
build/us/src/ovl2/ovl2_6.o:     file format elf32-tradbigmips


Disassembly of section .text:

00000000 <func_800FF5E0_ovl2>:
func_800FF5E0_ovl2():
       0:	3c0f0000 	lui	t7,0x0
       4:	25ef0000 	addiu	t7,t7,0
       8:	00047100 	sll	t6,a0,0x4
       c:	01cf1021 	addu	v0,t6,t7
      10:	44866000 	mtc1	a2,$f12
      14:	c4440004 	lwc1	$f4,4(v0)
      18:	8c430000 	lw	v1,0(v0)
      1c:	44857000 	mtc1	a1,$f14
      20:	460c2180 	add.s	$f6,$f4,$f12
      24:	0004c080 	sll	t8,a0,0x2
      28:	0304c023 	subu	t8,t8,a0
      2c:	3c190000 	lui	t9,0x0
      30:	e4460004 	swc1	$f6,4(v0)
      34:	c4680020 	lwc1	$f8,32(v1)
      38:	c4700024 	lwc1	$f16,36(v1)
      3c:	27390000 	addiu	t9,t9,0
      40:	460e4280 	add.s	$f10,$f8,$f14
      44:	0018c100 	sll	t8,t8,0x4
      48:	03192821 	addu	a1,t8,t9
      4c:	460c8480 	add.s	$f18,$f16,$f12
      50:	e46a0020 	swc1	$f10,32(v1)
      54:	e4720024 	swc1	$f18,36(v1)
      58:	c4a40010 	lwc1	$f4,16(a1)
      5c:	e4640028 	swc1	$f4,40(v1)
      60:	c4a60014 	lwc1	$f6,20(a1)
      64:	03e00008 	jr	ra
      68:	e466002c 	swc1	$f6,44(v1)

0000006c <func_800FF64C>:
func_800FF64C():
      6c:	3c0a0000 	lui	t2,0x0
      70:	254a0000 	addiu	t2,t2,0
      74:	8d4e0000 	lw	t6,0(t2)
      78:	00803025 	move	a2,a0
      7c:	3c040000 	lui	a0,0x0
      80:	11c0002c 	beqz	t6,134 <func_800FF64C+0xc8>
      84:	00001025 	move	v0,zero
      88:	3c0c0000 	lui	t4,0x0
      8c:	3c0b0000 	lui	t3,0x0
      90:	256b0000 	addiu	t3,t3,0
      94:	258c0000 	addiu	t4,t4,0
      98:	24840000 	addiu	a0,a0,0
      9c:	240d000c 	li	t5,12
      a0:	94850008 	lhu	a1,8(a0)
      a4:	30af00c0 	andi	t7,a1,0xc0
      a8:	51e0001d 	beqzl	t7,120 <func_800FF64C+0xb4>
      ac:	8d4f0000 	lw	t7,0(t2)
      b0:	9498000a 	lhu	t8,10(a0)
      b4:	0002c900 	sll	t9,v0,0x4
      b8:	01797021 	addu	t6,t3,t9
      bc:	54d80018 	bnel	a2,t8,120 <func_800FF64C+0xb4>
      c0:	8d4f0000 	lw	t7,0(t2)
      c4:	8dc30000 	lw	v1,0(t6)
      c8:	50600015 	beqzl	v1,120 <func_800FF64C+0xb4>
      cc:	8d4f0000 	lw	t7,0(t2)
      d0:	00cd0019 	multu	a2,t5
      d4:	00007812 	mflo	t7
      d8:	018f3821 	addu	a3,t4,t7
      dc:	90f80000 	lbu	t8,0(a3)
      e0:	30af0040 	andi	t7,a1,0x40
      e4:	24e90002 	addiu	t1,a3,2
      e8:	a0780014 	sb	t8,20(v1)
      ec:	90f90001 	lbu	t9,1(a3)
      f0:	a0790015 	sb	t9,21(v1)
      f4:	90ee0002 	lbu	t6,2(a3)
      f8:	11e00008 	beqz	t7,11c <func_800FF64C+0xb0>
      fc:	a06e0016 	sb	t6,22(v1)
     100:	91380001 	lbu	t8,1(t1)
     104:	25280003 	addiu	t0,t1,3
     108:	a0780018 	sb	t8,24(v1)
     10c:	91390002 	lbu	t9,2(t1)
     110:	a0790019 	sb	t9,25(v1)
     114:	910e0000 	lbu	t6,0(t0)
     118:	a06e001a 	sb	t6,26(v1)
     11c:	8d4f0000 	lw	t7,0(t2)
     120:	24420001 	addiu	v0,v0,1
     124:	24840030 	addiu	a0,a0,48
     128:	004f082b 	sltu	at,v0,t7
     12c:	5420ffdd 	bnezl	at,a4 <func_800FF64C+0x38>
     130:	94850008 	lhu	a1,8(a0)
     134:	03e00008 	jr	ra
     138:	00000000 	nop

0000013c <func_800FF71C_ovl2>:
func_800FF71C_ovl2():
     13c:	3c030000 	lui	v1,0x0
     140:	24630000 	addiu	v1,v1,0
     144:	8c620000 	lw	v0,0(v1)
     148:	afa50004 	sw	a1,4(sp)
     14c:	afa60008 	sw	a2,8(sp)
     150:	244e0008 	addiu	t6,v0,8
     154:	ac6e0000 	sw	t6,0(v1)
     158:	3c0fe700 	lui	t7,0xe700
     15c:	ac4f0000 	sw	t7,0(v0)
     160:	ac400004 	sw	zero,4(v0)
     164:	8c620000 	lw	v0,0(v1)
     168:	3c19e300 	lui	t9,0xe300
     16c:	37390a01 	ori	t9,t9,0xa01
     170:	24580008 	addiu	t8,v0,8
     174:	ac780000 	sw	t8,0(v1)
     178:	ac400004 	sw	zero,4(v0)
     17c:	ac590000 	sw	t9,0(v0)
     180:	90890013 	lbu	t1,19(a0)
     184:	3c0ce200 	lui	t4,0xe200
     188:	358c001c 	ori	t4,t4,0x1c
     18c:	312a0002 	andi	t2,t1,0x2
     190:	11400010 	beqz	t2,1d4 <func_800FF71C_ovl2+0x98>
     194:	3c09e200 	lui	t1,0xe200
     198:	8c620000 	lw	v0,0(v1)
     19c:	3c0d0050 	lui	t5,0x50
     1a0:	35ad4240 	ori	t5,t5,0x4240
     1a4:	244b0008 	addiu	t3,v0,8
     1a8:	ac6b0000 	sw	t3,0(v1)
     1ac:	ac4d0004 	sw	t5,4(v0)
     1b0:	ac4c0000 	sw	t4,0(v0)
     1b4:	8c620000 	lw	v0,0(v1)
     1b8:	3c0f0b00 	lui	t7,0xb00
     1bc:	2418000a 	li	t8,10
     1c0:	244e0008 	addiu	t6,v0,8
     1c4:	ac6e0000 	sw	t6,0(v1)
     1c8:	ac580004 	sw	t8,4(v0)
     1cc:	10000010 	b	210 <func_800FF71C_ovl2+0xd4>
     1d0:	ac4f0000 	sw	t7,0(v0)
     1d4:	8c620000 	lw	v0,0(v1)
     1d8:	3c0a0f0a 	lui	t2,0xf0a
     1dc:	354a4000 	ori	t2,t2,0x4000
     1e0:	24590008 	addiu	t9,v0,8
     1e4:	ac790000 	sw	t9,0(v1)
     1e8:	3529001c 	ori	t1,t1,0x1c
     1ec:	ac490000 	sw	t1,0(v0)
     1f0:	ac4a0004 	sw	t2,4(v0)
     1f4:	8c620000 	lw	v0,0(v1)
     1f8:	3c0c0b00 	lui	t4,0xb00
     1fc:	240d0008 	li	t5,8
     200:	244b0008 	addiu	t3,v0,8
     204:	ac6b0000 	sw	t3,0(v1)
     208:	ac4d0004 	sw	t5,4(v0)
     20c:	ac4c0000 	sw	t4,0(v0)
     210:	93a2000b 	lbu	v0,11(sp)
     214:	93b80007 	lbu	t8,7(sp)
     218:	24010004 	li	at,4
     21c:	304e0003 	andi	t6,v0,0x3
     220:	11c00046 	beqz	t6,33c <func_800FF71C_ovl2+0x200>
     224:	304f0001 	andi	t7,v0,0x1
     228:	51e0002c 	beqzl	t7,2dc <func_800FF71C_ovl2+0x1a0>
     22c:	8c620000 	lw	v0,0(v1)
     230:	8c620000 	lw	v0,0(v1)
     234:	3c19fa00 	lui	t9,0xfa00
     238:	24580008 	addiu	t8,v0,8
     23c:	ac780000 	sw	t8,0(v1)
     240:	ac590000 	sw	t9,0(v0)
     244:	908d0015 	lbu	t5,21(a0)
     248:	908a0014 	lbu	t2,20(a0)
     24c:	90990016 	lbu	t9,22(a0)
     250:	000d7400 	sll	t6,t5,0x10
     254:	908d0017 	lbu	t5,23(a0)
     258:	000a5e00 	sll	t3,t2,0x18
     25c:	016e7825 	or	t7,t3,t6
     260:	00194a00 	sll	t1,t9,0x8
     264:	01e95025 	or	t2,t7,t1
     268:	014d5825 	or	t3,t2,t5
     26c:	ac4b0004 	sw	t3,4(v0)
     270:	8c620000 	lw	v0,0(v1)
     274:	3c18fb00 	lui	t8,0xfb00
     278:	244e0008 	addiu	t6,v0,8
     27c:	ac6e0000 	sw	t6,0(v1)
     280:	ac580000 	sw	t8,0(v0)
     284:	908a0019 	lbu	t2,25(a0)
     288:	908f0018 	lbu	t7,24(a0)
     28c:	9098001a 	lbu	t8,26(a0)
     290:	000a6c00 	sll	t5,t2,0x10
     294:	908a001b 	lbu	t2,27(a0)
     298:	000f4e00 	sll	t1,t7,0x18
     29c:	012d5825 	or	t3,t1,t5
     2a0:	0018ca00 	sll	t9,t8,0x8
     2a4:	01797825 	or	t7,t3,t9
     2a8:	01ea4825 	or	t1,t7,t2
     2ac:	ac490004 	sw	t1,4(v0)
     2b0:	8c620000 	lw	v0,0(v1)
     2b4:	3c1855fe 	lui	t8,0x55fe
     2b8:	3c0efc30 	lui	t6,0xfc30
     2bc:	244d0008 	addiu	t5,v0,8
     2c0:	ac6d0000 	sw	t5,0(v1)
     2c4:	35cefe61 	ori	t6,t6,0xfe61
     2c8:	3718f379 	ori	t8,t8,0xf379
     2cc:	ac580004 	sw	t8,4(v0)
     2d0:	03e00008 	jr	ra
     2d4:	ac4e0000 	sw	t6,0(v0)
     2d8:	8c620000 	lw	v0,0(v1)
     2dc:	3c19fa00 	lui	t9,0xfa00
     2e0:	244b0008 	addiu	t3,v0,8
     2e4:	ac6b0000 	sw	t3,0(v1)
     2e8:	ac590000 	sw	t9,0(v0)
     2ec:	908d0015 	lbu	t5,21(a0)
     2f0:	908f0014 	lbu	t7,20(a0)
     2f4:	90990016 	lbu	t9,22(a0)
     2f8:	000d7400 	sll	t6,t5,0x10
     2fc:	908d0017 	lbu	t5,23(a0)
     300:	000f5600 	sll	t2,t7,0x18
     304:	014ec025 	or	t8,t2,t6
     308:	00196200 	sll	t4,t9,0x8
     30c:	030c7825 	or	t7,t8,t4
     310:	01ed5025 	or	t2,t7,t5
     314:	ac4a0004 	sw	t2,4(v0)
     318:	8c620000 	lw	v0,0(v1)
     31c:	3c0bfc30 	lui	t3,0xfc30
     320:	356bfe61 	ori	t3,t3,0xfe61
     324:	244e0008 	addiu	t6,v0,8
     328:	ac6e0000 	sw	t6,0(v1)
     32c:	2419f3f9 	li	t9,-3079
     330:	ac590004 	sw	t9,4(v0)
     334:	03e00008 	jr	ra
     338:	ac4b0000 	sw	t3,0(v0)
     33c:	1701001b 	bne	t8,at,3ac <func_800FF71C_ovl2+0x270>
     340:	3c0ffcff 	lui	t7,0xfcff
     344:	8c620000 	lw	v0,0(v1)
     348:	3c09fa00 	lui	t1,0xfa00
     34c:	244c0008 	addiu	t4,v0,8
     350:	ac6c0000 	sw	t4,0(v1)
     354:	ac490000 	sw	t1,0(v0)
     358:	908b0015 	lbu	t3,21(a0)
     35c:	908d0014 	lbu	t5,20(a0)
     360:	90890016 	lbu	t1,22(a0)
     364:	000bcc00 	sll	t9,t3,0x10
     368:	908b0017 	lbu	t3,23(a0)
     36c:	000d5600 	sll	t2,t5,0x18
     370:	0159c025 	or	t8,t2,t9
     374:	00097a00 	sll	t7,t1,0x8
     378:	030f6825 	or	t5,t8,t7
     37c:	01ab5025 	or	t2,t5,t3
     380:	ac4a0004 	sw	t2,4(v0)
     384:	8c620000 	lw	v0,0(v1)
     388:	3c09fffd 	lui	t1,0xfffd
     38c:	3c0cfcff 	lui	t4,0xfcff
     390:	24590008 	addiu	t9,v0,8
     394:	ac790000 	sw	t9,0(v1)
     398:	358cffff 	ori	t4,t4,0xffff
     39c:	3529f2f9 	ori	t1,t1,0xf2f9
     3a0:	ac490004 	sw	t1,4(v0)
     3a4:	03e00008 	jr	ra
     3a8:	ac4c0000 	sw	t4,0(v0)
     3ac:	8c620000 	lw	v0,0(v1)
     3b0:	3c0efffc 	lui	t6,0xfffc
     3b4:	35cef279 	ori	t6,t6,0xf279
     3b8:	24580008 	addiu	t8,v0,8
     3bc:	ac780000 	sw	t8,0(v1)
     3c0:	35efffff 	ori	t7,t7,0xffff
     3c4:	ac4f0000 	sw	t7,0(v0)
     3c8:	ac4e0004 	sw	t6,4(v0)
     3cc:	03e00008 	jr	ra
     3d0:	00000000 	nop

000003d4 <func_800FF9B4_ovl2>:
func_800FF9B4_ovl2():
     3d4:	27bdfee0 	addiu	sp,sp,-288
     3d8:	afb40014 	sw	s4,20(sp)
     3dc:	afb30010 	sw	s3,16(sp)
     3e0:	afb2000c 	sw	s2,12(sp)
     3e4:	afb10008 	sw	s1,8(sp)
     3e8:	afb00004 	sw	s0,4(sp)
     3ec:	afa40120 	sw	a0,288(sp)
     3f0:	94af0002 	lhu	t7,2(a1)
     3f4:	8c880000 	lw	t0,0(a0)
     3f8:	3c028012 	lui	v0,0x8012
     3fc:	000fc083 	sra	t8,t7,0x2
     400:	afb80100 	sw	t8,256(sp)
     404:	c4d20004 	lwc1	$f18,4(a2)
     408:	94b4000a 	lhu	s4,10(a1)
     40c:	24010002 	li	at,2
     410:	e7b20118 	swc1	$f18,280(sp)
     414:	90b90017 	lbu	t9,23(a1)
     418:	01001825 	move	v1,t0
     41c:	0014a083 	sra	s4,s4,0x2
     420:	afb9003c 	sw	t9,60(sp)
     424:	90ae0016 	lbu	t6,22(a1)
     428:	00194840 	sll	t1,t9,0x1
     42c:	00491021 	addu	v0,v0,t1
     430:	94424758 	lhu	v0,18264(v0)
     434:	15c10018 	bne	t6,at,498 <func_800FF9B4_ovl2+0xc4>
     438:	afae0034 	sw	t6,52(sp)
     43c:	3c188012 	lui	t8,0x8012
     440:	0309c021 	addu	t8,t8,t1
     444:	97184750 	lhu	t8,18256(t8)
     448:	8fae0100 	lw	t6,256(sp)
     44c:	0018c843 	sra	t9,t8,0x1
     450:	01c27821 	addu	t7,t6,v0
     454:	25f8ffff 	addiu	t8,t7,-1
     458:	0302001b 	divu	zero,t8,v0
     45c:	00007012 	mflo	t6
     460:	14400002 	bnez	v0,46c <func_800FF9B4_ovl2+0x98>
     464:	00000000 	nop
     468:	0007000d 	break	0x7
     46c:	01c20019 	multu	t6,v0
     470:	00007812 	mflo	t7
	...
     47c:	032f001b 	divu	zero,t9,t7
     480:	00009812 	mflo	s3
     484:	15e00002 	bnez	t7,490 <func_800FF9B4_ovl2+0xbc>
     488:	00000000 	nop
     48c:	0007000d 	break	0x7
     490:	10000016 	b	4ec <func_800FF9B4_ovl2+0x118>
     494:	c4c20000 	lwc1	$f2,0(a2)
     498:	8fae0100 	lw	t6,256(sp)
     49c:	3c188012 	lui	t8,0x8012
     4a0:	0309c021 	addu	t8,t8,t1
     4a4:	01c2c821 	addu	t9,t6,v0
     4a8:	272fffff 	addiu	t7,t9,-1
     4ac:	01e2001b 	divu	zero,t7,v0
     4b0:	00007012 	mflo	t6
     4b4:	97184750 	lhu	t8,18256(t8)
     4b8:	14400002 	bnez	v0,4c4 <func_800FF9B4_ovl2+0xf0>
     4bc:	00000000 	nop
     4c0:	0007000d 	break	0x7
     4c4:	01c20019 	multu	t6,v0
     4c8:	0000c812 	mflo	t9
	...
     4d4:	0319001b 	divu	zero,t8,t9
     4d8:	00009812 	mflo	s3
     4dc:	17200002 	bnez	t9,4e8 <func_800FF9B4_ovl2+0x114>
     4e0:	00000000 	nop
     4e4:	0007000d 	break	0x7
     4e8:	c4c20000 	lwc1	$f2,0(a2)
     4ec:	c4e00000 	lwc1	$f0,0(a3)
     4f0:	4600103c 	c.lt.s	$f2,$f0
     4f4:	00000000 	nop
     4f8:	45020004 	bc1fl	50c <func_800FF9B4_ovl2+0x138>
     4fc:	e7a200d0 	swc1	$f2,208(sp)
     500:	10000002 	b	50c <func_800FF9B4_ovl2+0x138>
     504:	e7a000d0 	swc1	$f0,208(sp)
     508:	e7a200d0 	swc1	$f2,208(sp)
     50c:	c4e00004 	lwc1	$f0,4(a3)
     510:	4600903c 	c.lt.s	$f18,$f0
     514:	00000000 	nop
     518:	45020004 	bc1fl	52c <func_800FF9B4_ovl2+0x158>
     51c:	e7b200cc 	swc1	$f18,204(sp)
     520:	10000002 	b	52c <func_800FF9B4_ovl2+0x158>
     524:	e7a000cc 	swc1	$f0,204(sp)
     528:	e7b200cc 	swc1	$f18,204(sp)
     52c:	c4e00008 	lwc1	$f0,8(a3)
     530:	c4cc0008 	lwc1	$f12,8(a2)
     534:	460c003c 	c.lt.s	$f0,$f12
     538:	00000000 	nop
     53c:	45020004 	bc1fl	550 <func_800FF9B4_ovl2+0x17c>
     540:	46006406 	mov.s	$f16,$f12
     544:	10000002 	b	550 <func_800FF9B4_ovl2+0x17c>
     548:	46000406 	mov.s	$f16,$f0
     54c:	46006406 	mov.s	$f16,$f12
     550:	c4c4000c 	lwc1	$f4,12(a2)
     554:	c4ee000c 	lwc1	$f14,12(a3)
     558:	4600820d 	trunc.w.s	$f8,$f16
     55c:	e7a40028 	swc1	$f4,40(sp)
     560:	c7a60028 	lwc1	$f6,40(sp)
     564:	440e4000 	mfc1	t6,$f8
     568:	4606703c 	c.lt.s	$f14,$f6
     56c:	448e5000 	mtc1	t6,$f10
     570:	45020006 	bc1fl	58c <func_800FF9B4_ovl2+0x1b8>
     574:	c7a00028 	lwc1	$f0,40(sp)
     578:	46007006 	mov.s	$f0,$f14
     57c:	e7a20038 	swc1	$f2,56(sp)
     580:	10000004 	b	594 <func_800FF9B4_ovl2+0x1c0>
     584:	e7ac002c 	swc1	$f12,44(sp)
     588:	c7a00028 	lwc1	$f0,40(sp)
     58c:	e7a20038 	swc1	$f2,56(sp)
     590:	e7ac002c 	swc1	$f12,44(sp)
     594:	4600010d 	trunc.w.s	$f4,$f0
     598:	468050a0 	cvt.s.w	$f2,$f10
     59c:	44192000 	mfc1	t9,$f4
     5a0:	00000000 	nop
     5a4:	44993000 	mtc1	t9,$f6
     5a8:	46028032 	c.eq.s	$f16,$f2
     5ac:	e7a200b4 	swc1	$f2,180(sp)
     5b0:	46803320 	cvt.s.w	$f12,$f6
     5b4:	45010006 	bc1t	5d0 <func_800FF9B4_ovl2+0x1fc>
     5b8:	46006386 	mov.s	$f14,$f12
     5bc:	3c013f80 	lui	at,0x3f80
     5c0:	44814000 	mtc1	at,$f8
     5c4:	00000000 	nop
     5c8:	46081280 	add.s	$f10,$f2,$f8
     5cc:	e7aa00b4 	swc1	$f10,180(sp)
     5d0:	460c0032 	c.eq.s	$f0,$f12
     5d4:	c7a600cc 	lwc1	$f6,204(sp)
     5d8:	45010005 	bc1t	5f0 <func_800FF9B4_ovl2+0x21c>
     5dc:	4600320d 	trunc.w.s	$f8,$f6
     5e0:	3c013f80 	lui	at,0x3f80
     5e4:	44812000 	mtc1	at,$f4
     5e8:	00000000 	nop
     5ec:	46046380 	add.s	$f14,$f12,$f4
     5f0:	440e4000 	mfc1	t6,$f8
     5f4:	24120001 	li	s2,1
     5f8:	448e5000 	mtc1	t6,$f10
     5fc:	00000000 	nop
     600:	46805320 	cvt.s.w	$f12,$f10
     604:	460c9081 	sub.s	$f2,$f18,$f12
     608:	4458f800 	cfc1	t8,$31
     60c:	44d2f800 	ctc1	s2,$31
     610:	00000000 	nop
     614:	46007124 	cvt.w.s	$f4,$f14
     618:	4452f800 	cfc1	s2,$31
     61c:	00000000 	nop
     620:	32520078 	andi	s2,s2,0x78
     624:	12400012 	beqz	s2,670 <func_800FF9B4_ovl2+0x29c>
     628:	3c014f00 	lui	at,0x4f00
     62c:	44812000 	mtc1	at,$f4
     630:	24120001 	li	s2,1
     634:	46047101 	sub.s	$f4,$f14,$f4
     638:	44d2f800 	ctc1	s2,$31
     63c:	00000000 	nop
     640:	46002124 	cvt.w.s	$f4,$f4
     644:	4452f800 	cfc1	s2,$31
     648:	00000000 	nop
     64c:	32520078 	andi	s2,s2,0x78
     650:	16400005 	bnez	s2,668 <func_800FF9B4_ovl2+0x294>
     654:	00000000 	nop
     658:	44122000 	mfc1	s2,$f4
     65c:	3c018000 	lui	at,0x8000
     660:	10000007 	b	680 <func_800FF9B4_ovl2+0x2ac>
     664:	02419025 	or	s2,s2,at
     668:	10000005 	b	680 <func_800FF9B4_ovl2+0x2ac>
     66c:	2412ffff 	li	s2,-1
     670:	44122000 	mfc1	s2,$f4
     674:	00000000 	nop
     678:	0640fffb 	bltz	s2,668 <func_800FF9B4_ovl2+0x294>
     67c:	00000000 	nop
     680:	44d8f800 	ctc1	t8,$31
     684:	44803000 	mtc1	zero,$f6
     688:	3c014480 	lui	at,0x4480
     68c:	00129080 	sll	s2,s2,0x2
     690:	4606103c 	c.lt.s	$f2,$f6
     694:	44818000 	mtc1	at,$f16
     698:	afb200dc 	sw	s2,220(sp)
     69c:	45020009 	bc1fl	6c4 <func_800FF9B4_ovl2+0x2f0>
     6a0:	afa000ac 	sw	zero,172(sp)
     6a4:	c7a00134 	lwc1	$f0,308(sp)
     6a8:	46001207 	neg.s	$f8,$f2
     6ac:	46004283 	div.s	$f10,$f8,$f0
     6b0:	4600510d 	trunc.w.s	$f4,$f10
     6b4:	440f2000 	mfc1	t7,$f4
     6b8:	10000003 	b	6c8 <func_800FF9B4_ovl2+0x2f4>
     6bc:	afaf00ac 	sw	t7,172(sp)
     6c0:	afa000ac 	sw	zero,172(sp)
     6c4:	c7a00134 	lwc1	$f0,308(sp)
     6c8:	c7a60130 	lwc1	$f6,304(sp)
     6cc:	3c013f00 	lui	at,0x3f00
     6d0:	44819000 	mtc1	at,$f18
     6d4:	46068203 	div.s	$f8,$f16,$f6
     6d8:	c7a600d0 	lwc1	$f6,208(sp)
     6dc:	8fb100ac 	lw	s1,172(sp)
     6e0:	02336021 	addu	t4,s1,s3
     6e4:	0194082b 	sltu	at,t4,s4
     6e8:	46124280 	add.s	$f10,$f8,$f18
     6ec:	4600320d 	trunc.w.s	$f8,$f6
     6f0:	4600510d 	trunc.w.s	$f4,$f10
     6f4:	440f4000 	mfc1	t7,$f8
     6f8:	c7a80038 	lwc1	$f8,56(sp)
     6fc:	448f5000 	mtc1	t7,$f10
     700:	44182000 	mfc1	t8,$f4
     704:	468053a0 	cvt.s.w	$f14,$f10
     708:	44982000 	mtc1	t8,$f4
     70c:	afb80040 	sw	t8,64(sp)
     710:	468021a0 	cvt.s.w	$f6,$f4
     714:	460e4281 	sub.s	$f10,$f8,$f14
     718:	46005107 	neg.s	$f4,$f10
     71c:	46043202 	mul.s	$f8,$f6,$f4
     720:	4600428d 	trunc.w.s	$f10,$f8
     724:	44195000 	mfc1	t9,$f10
     728:	00000000 	nop
     72c:	272f0010 	addiu	t7,t9,16
     730:	000fc143 	sra	t8,t7,0x5
     734:	14200006 	bnez	at,750 <func_800FF9B4_ovl2+0x37c>
     738:	afb80110 	sw	t8,272(sp)
     73c:	02806025 	move	t4,s4
     740:	02405025 	move	t2,s2
     744:	afa50124 	sw	a1,292(sp)
     748:	10000033 	b	818 <func_800FF9B4_ovl2+0x444>
     74c:	c7a20114 	lwc1	$f2,276(sp)
     750:	8fb900ac 	lw	t9,172(sp)
     754:	44933000 	mtc1	s3,$f6
     758:	c7a20118 	lwc1	$f2,280(sp)
     75c:	13200003 	beqz	t9,76c <func_800FF9B4_ovl2+0x398>
     760:	3c014f80 	lui	at,0x4f80
     764:	10000001 	b	76c <func_800FF9B4_ovl2+0x398>
     768:	46006086 	mov.s	$f2,$f12
     76c:	06610004 	bgez	s3,780 <func_800FF9B4_ovl2+0x3ac>
     770:	46803120 	cvt.s.w	$f4,$f6
     774:	44814000 	mtc1	at,$f8
     778:	00000000 	nop
     77c:	46082100 	add.s	$f4,$f4,$f8
     780:	46002282 	mul.s	$f10,$f4,$f0
     784:	240a0001 	li	t2,1
     788:	3c014f00 	lui	at,0x4f00
     78c:	46025180 	add.s	$f6,$f10,$f2
     790:	444ff800 	cfc1	t7,$31
     794:	44caf800 	ctc1	t2,$31
     798:	00000000 	nop
     79c:	46003224 	cvt.w.s	$f8,$f6
     7a0:	444af800 	cfc1	t2,$31
     7a4:	00000000 	nop
     7a8:	314a0078 	andi	t2,t2,0x78
     7ac:	51400013 	beqzl	t2,7fc <func_800FF9B4_ovl2+0x428>
     7b0:	440a4000 	mfc1	t2,$f8
     7b4:	44814000 	mtc1	at,$f8
     7b8:	240a0001 	li	t2,1
     7bc:	46083201 	sub.s	$f8,$f6,$f8
     7c0:	44caf800 	ctc1	t2,$31
     7c4:	00000000 	nop
     7c8:	46004224 	cvt.w.s	$f8,$f8
     7cc:	444af800 	cfc1	t2,$31
     7d0:	00000000 	nop
     7d4:	314a0078 	andi	t2,t2,0x78
     7d8:	15400005 	bnez	t2,7f0 <func_800FF9B4_ovl2+0x41c>
     7dc:	00000000 	nop
     7e0:	440a4000 	mfc1	t2,$f8
     7e4:	3c018000 	lui	at,0x8000
     7e8:	10000007 	b	808 <func_800FF9B4_ovl2+0x434>
     7ec:	01415025 	or	t2,t2,at
     7f0:	10000005 	b	808 <func_800FF9B4_ovl2+0x434>
     7f4:	240affff 	li	t2,-1
     7f8:	440a4000 	mfc1	t2,$f8
     7fc:	00000000 	nop
     800:	0540fffb 	bltz	t2,7f0 <func_800FF9B4_ovl2+0x41c>
     804:	00000000 	nop
     808:	44cff800 	ctc1	t7,$31
     80c:	254affff 	addiu	t2,t2,-1
     810:	000a5080 	sll	t2,t2,0x2
     814:	afa50124 	sw	a1,292(sp)
     818:	8fa20100 	lw	v0,256(sp)
     81c:	01008025 	move	s0,t0
     820:	2c410041 	sltiu	at,v0,65
     824:	14200007 	bnez	at,844 <func_800FF9B4_ovl2+0x470>
     828:	24010080 	li	at,128
     82c:	10410021 	beq	v0,at,8b4 <func_800FF9B4_ovl2+0x4e0>
     830:	24010100 	li	at,256
     834:	10410021 	beq	v0,at,8bc <func_800FF9B4_ovl2+0x4e8>
     838:	00000000 	nop
     83c:	10000022 	b	8c8 <func_800FF9B4_ovl2+0x4f4>
     840:	240e0002 	li	t6,2
     844:	2c410021 	sltiu	at,v0,33
     848:	14200006 	bnez	at,864 <func_800FF9B4_ovl2+0x490>
     84c:	2458fffe 	addiu	t8,v0,-2
     850:	24010040 	li	at,64
     854:	10410015 	beq	v0,at,8ac <func_800FF9B4_ovl2+0x4d8>
     858:	00000000 	nop
     85c:	1000001a 	b	8c8 <func_800FF9B4_ovl2+0x4f4>
     860:	240e0002 	li	t6,2
     864:	2f01001f 	sltiu	at,t8,31
     868:	10200016 	beqz	at,8c4 <func_800FF9B4_ovl2+0x4f0>
     86c:	0018c080 	sll	t8,t8,0x2
     870:	3c018013 	lui	at,0x8013
     874:	00380821 	addu	at,at,t8
     878:	8c3889b0 	lw	t8,-30288(at)
     87c:	03000008 	jr	t8
     880:	00000000 	nop
     884:	10000012 	b	8d0 <func_800FF9B4_ovl2+0x4fc>
     888:	240b0001 	li	t3,1
     88c:	10000010 	b	8d0 <func_800FF9B4_ovl2+0x4fc>
     890:	240b0002 	li	t3,2
     894:	1000000e 	b	8d0 <func_800FF9B4_ovl2+0x4fc>
     898:	240b0003 	li	t3,3
     89c:	1000000c 	b	8d0 <func_800FF9B4_ovl2+0x4fc>
     8a0:	240b0004 	li	t3,4
     8a4:	1000000a 	b	8d0 <func_800FF9B4_ovl2+0x4fc>
     8a8:	240b0005 	li	t3,5
     8ac:	10000008 	b	8d0 <func_800FF9B4_ovl2+0x4fc>
     8b0:	240b0006 	li	t3,6
     8b4:	10000006 	b	8d0 <func_800FF9B4_ovl2+0x4fc>
     8b8:	240b0007 	li	t3,7
     8bc:	10000004 	b	8d0 <func_800FF9B4_ovl2+0x4fc>
     8c0:	240b0008 	li	t3,8
     8c4:	240e0002 	li	t6,2
     8c8:	afae00a0 	sw	t6,160(sp)
     8cc:	00005825 	move	t3,zero
     8d0:	1160001c 	beqz	t3,944 <func_800FF9B4_ovl2+0x570>
     8d4:	c7a80130 	lwc1	$f8,304(sp)
     8d8:	44822000 	mtc1	v0,$f4
     8dc:	3c014f80 	lui	at,0x4f80
     8e0:	04410004 	bgez	v0,8f4 <func_800FF9B4_ovl2+0x520>
     8e4:	468022a0 	cvt.s.w	$f10,$f4
     8e8:	44813000 	mtc1	at,$f6
     8ec:	00000000 	nop
     8f0:	46065280 	add.s	$f10,$f10,$f6
     8f4:	46085102 	mul.s	$f4,$f10,$f8
     8f8:	c7a60038 	lwc1	$f6,56(sp)
     8fc:	c7a8002c 	lwc1	$f8,44(sp)
     900:	24190002 	li	t9,2
     904:	46043280 	add.s	$f10,$f6,$f4
     908:	4608503c 	c.lt.s	$f10,$f8
     90c:	00000000 	nop
     910:	4502000c 	bc1fl	944 <func_800FF9B4_ovl2+0x570>
     914:	afb900a0 	sw	t9,160(sp)
     918:	8fb90124 	lw	t9,292(sp)
     91c:	240e0001 	li	t6,1
     920:	972f001a 	lhu	t7,26(t9)
     924:	31f80001 	andi	t8,t7,0x1
     928:	13000003 	beqz	t8,938 <func_800FF9B4_ovl2+0x564>
     92c:	00000000 	nop
     930:	10000004 	b	944 <func_800FF9B4_ovl2+0x570>
     934:	afae00a0 	sw	t6,160(sp)
     938:	10000002 	b	944 <func_800FF9B4_ovl2+0x570>
     93c:	afa000a0 	sw	zero,160(sp)
     940:	afb900a0 	sw	t9,160(sp)
     944:	8faf003c 	lw	t7,60(sp)
     948:	8fb90100 	lw	t9,256(sp)
     94c:	3c010700 	lui	at,0x700
     950:	11e0007b 	beqz	t7,b40 <func_800FF9B4_ovl2+0x76c>
     954:	2722ffff 	addiu	v0,t9,-1
     958:	8fa20100 	lw	v0,256(sp)
     95c:	8fb80034 	lw	t8,52(sp)
     960:	3c010700 	lui	at,0x700
     964:	2442ffff 	addiu	v0,v0,-1
     968:	00023080 	sll	a2,v0,0x2
     96c:	30c60fff 	andi	a2,a2,0xfff
     970:	00063300 	sll	a2,a2,0xc
     974:	330e0007 	andi	t6,t8,0x7
     978:	00c16825 	or	t5,a2,at
     97c:	000ecd40 	sll	t9,t6,0x15
     980:	3c01fd00 	lui	at,0xfd00
     984:	0321c025 	or	t8,t9,at
     988:	31ee0003 	andi	t6,t7,0x3
     98c:	000eccc0 	sll	t9,t6,0x13
     990:	8fa90124 	lw	t1,292(sp)
     994:	03197825 	or	t7,t8,t9
     998:	304e0fff 	andi	t6,v0,0xfff
     99c:	afad0098 	sw	t5,152(sp)
     9a0:	01eec025 	or	t8,t7,t6
     9a4:	00602025 	move	a0,v1
     9a8:	ac980000 	sw	t8,0(a0)
     9ac:	8d390010 	lw	t9,16(t1)
     9b0:	3c01f500 	lui	at,0xf500
     9b4:	24630008 	addiu	v1,v1,8
     9b8:	ac990004 	sw	t9,4(a0)
     9bc:	912e0017 	lbu	t6,23(t1)
     9c0:	3c198012 	lui	t9,0x8012
     9c4:	8faf0100 	lw	t7,256(sp)
     9c8:	000ec080 	sll	t8,t6,0x2
     9cc:	0338c821 	addu	t9,t9,t8
     9d0:	8f394760 	lw	t9,18272(t9)
     9d4:	afae003c 	sw	t6,60(sp)
     9d8:	00602825 	move	a1,v1
     9dc:	032f0019 	multu	t9,t7
     9e0:	3168000f 	andi	t0,t3,0xf
     9e4:	00084100 	sll	t0,t0,0x4
     9e8:	24630008 	addiu	v1,v1,8
     9ec:	0000c012 	mflo	t8
     9f0:	27190007 	addiu	t9,t8,7
     9f4:	001978c2 	srl	t7,t9,0x3
     9f8:	31f801ff 	andi	t8,t7,0x1ff
     9fc:	0018ca40 	sll	t9,t8,0x9
     a00:	91380016 	lbu	t8,22(t1)
     a04:	03217825 	or	t7,t9,at
     a08:	3c010708 	lui	at,0x708
     a0c:	33190007 	andi	t9,t8,0x7
     a10:	0019c540 	sll	t8,t9,0x15
     a14:	01f8c825 	or	t9,t7,t8
     a18:	31cf0003 	andi	t7,t6,0x3
     a1c:	000fc4c0 	sll	t8,t7,0x13
     a20:	03387025 	or	t6,t9,t8
     a24:	acae0000 	sw	t6,0(a1)
     a28:	8fa700a0 	lw	a3,160(sp)
     a2c:	3c18e600 	lui	t8,0xe600
     a30:	30e70003 	andi	a3,a3,0x3
     a34:	00073a00 	sll	a3,a3,0x8
     a38:	00e17825 	or	t7,a3,at
     a3c:	01e8c825 	or	t9,t7,t0
     a40:	acb90004 	sw	t9,4(a1)
     a44:	afa60038 	sw	a2,56(sp)
     a48:	afa30074 	sw	v1,116(sp)
     a4c:	00602825 	move	a1,v1
     a50:	acb80000 	sw	t8,0(a1)
     a54:	aca00004 	sw	zero,4(a1)
     a58:	8fa900ac 	lw	t1,172(sp)
     a5c:	2586ffff 	addiu	a2,t4,-1
     a60:	00063080 	sll	a2,a2,0x2
     a64:	00094880 	sll	t1,t1,0x2
     a68:	31290fff 	andi	t1,t1,0xfff
     a6c:	3c01f400 	lui	at,0xf400
     a70:	30c60fff 	andi	a2,a2,0xfff
     a74:	01217025 	or	t6,t1,at
     a78:	01a67825 	or	t7,t5,a2
     a7c:	24630010 	addiu	v1,v1,16
     a80:	ac6efff8 	sw	t6,-8(v1)
     a84:	ac6ffffc 	sw	t7,-4(v1)
     a88:	00601025 	move	v0,v1
     a8c:	3c19e700 	lui	t9,0xe700
     a90:	ac590000 	sw	t9,0(v0)
     a94:	ac400004 	sw	zero,4(v0)
     a98:	8fb80124 	lw	t8,292(sp)
     a9c:	3c0f8012 	lui	t7,0x8012
     aa0:	8fb90100 	lw	t9,256(sp)
     aa4:	930b0017 	lbu	t3,23(t8)
     aa8:	3c01f500 	lui	at,0xf500
     aac:	24630008 	addiu	v1,v1,8
     ab0:	000b7080 	sll	t6,t3,0x2
     ab4:	01ee7821 	addu	t7,t7,t6
     ab8:	8def4760 	lw	t7,18272(t7)
     abc:	00602025 	move	a0,v1
     ac0:	24630010 	addiu	v1,v1,16
     ac4:	01f90019 	multu	t7,t9
     ac8:	00007012 	mflo	t6
     acc:	25cf0007 	addiu	t7,t6,7
     ad0:	000fc8c2 	srl	t9,t7,0x3
     ad4:	332e01ff 	andi	t6,t9,0x1ff
     ad8:	000e7a40 	sll	t7,t6,0x9
     adc:	930e0016 	lbu	t6,22(t8)
     ae0:	01e1c825 	or	t9,t7,at
     ae4:	3c010008 	lui	at,0x8
     ae8:	31cf0007 	andi	t7,t6,0x7
     aec:	000fc540 	sll	t8,t7,0x15
     af0:	03387025 	or	t6,t9,t8
     af4:	316f0003 	andi	t7,t3,0x3
     af8:	000fccc0 	sll	t9,t7,0x13
     afc:	01d9c025 	or	t8,t6,t9
     b00:	ac980000 	sw	t8,0(a0)
     b04:	8faf0124 	lw	t7,292(sp)
     b08:	95ee0018 	lhu	t6,24(t7)
     b0c:	31d9000f 	andi	t9,t6,0xf
     b10:	0019c500 	sll	t8,t9,0x14
     b14:	03017825 	or	t7,t8,at
     b18:	01e77025 	or	t6,t7,a3
     b1c:	01c8c825 	or	t9,t6,t0
     b20:	3c01f200 	lui	at,0xf200
     b24:	ac990004 	sw	t9,4(a0)
     b28:	0121c025 	or	t8,t1,at
     b2c:	ac78fff8 	sw	t8,-8(v1)
     b30:	8faf0038 	lw	t7,56(sp)
     b34:	01e67025 	or	t6,t7,a2
     b38:	1000005f 	b	cb8 <func_800FF9B4_ovl2+0x8e4>
     b3c:	ac6efffc 	sw	t6,-4(v1)
     b40:	8fb80034 	lw	t8,52(sp)
     b44:	00026840 	sll	t5,v0,0x1
     b48:	31ad0fff 	andi	t5,t5,0xfff
     b4c:	000d6b00 	sll	t5,t5,0xc
     b50:	01a16825 	or	t5,t5,at
     b54:	330f0007 	andi	t7,t8,0x7
     b58:	000f7540 	sll	t6,t7,0x15
     b5c:	3c01fd00 	lui	at,0xfd00
     b60:	00192842 	srl	a1,t9,0x1
     b64:	01c1c825 	or	t9,t6,at
     b68:	3c010008 	lui	at,0x8
     b6c:	24afffff 	addiu	t7,a1,-1
     b70:	31ee0fff 	andi	t6,t7,0xfff
     b74:	0321c025 	or	t8,t9,at
     b78:	afad0098 	sw	t5,152(sp)
     b7c:	030ec825 	or	t9,t8,t6
     b80:	00602025 	move	a0,v1
     b84:	ac990000 	sw	t9,0(a0)
     b88:	8faf0124 	lw	t7,292(sp)
     b8c:	24ae0007 	addiu	t6,a1,7
     b90:	000ec8c2 	srl	t9,t6,0x3
     b94:	8df80010 	lw	t8,16(t7)
     b98:	332f01ff 	andi	t7,t9,0x1ff
     b9c:	3c01f500 	lui	at,0xf500
     ba0:	ac980004 	sw	t8,4(a0)
     ba4:	8fae0124 	lw	t6,292(sp)
     ba8:	000fc240 	sll	t8,t7,0x9
     bac:	afb8001c 	sw	t8,28(sp)
     bb0:	91d90016 	lbu	t9,22(t6)
     bb4:	3168000f 	andi	t0,t3,0xf
     bb8:	00084100 	sll	t0,t0,0x4
     bbc:	332f0007 	andi	t7,t9,0x7
     bc0:	000f7540 	sll	t6,t7,0x15
     bc4:	01c1c825 	or	t9,t6,at
     bc8:	3c010008 	lui	at,0x8
     bcc:	03217825 	or	t7,t9,at
     bd0:	01f87025 	or	t6,t7,t8
     bd4:	ac6e0008 	sw	t6,8(v1)
     bd8:	8fa700a0 	lw	a3,160(sp)
     bdc:	3c010708 	lui	at,0x708
     be0:	3c18e600 	lui	t8,0xe600
     be4:	30e70003 	andi	a3,a3,0x3
     be8:	00073a00 	sll	a3,a3,0x8
     bec:	00e1c825 	or	t9,a3,at
     bf0:	03287825 	or	t7,t9,t0
     bf4:	ac6f000c 	sw	t7,12(v1)
     bf8:	ac780010 	sw	t8,16(v1)
     bfc:	ac600014 	sw	zero,20(v1)
     c00:	8fa900ac 	lw	t1,172(sp)
     c04:	2586ffff 	addiu	a2,t4,-1
     c08:	00063080 	sll	a2,a2,0x2
     c0c:	00094880 	sll	t1,t1,0x2
     c10:	31290fff 	andi	t1,t1,0xfff
     c14:	3c01f400 	lui	at,0xf400
     c18:	30c60fff 	andi	a2,a2,0xfff
     c1c:	01217025 	or	t6,t1,at
     c20:	01a6c825 	or	t9,t5,a2
     c24:	24630020 	addiu	v1,v1,32
     c28:	ac6efff8 	sw	t6,-8(v1)
     c2c:	ac79fffc 	sw	t9,-4(v1)
     c30:	00602025 	move	a0,v1
     c34:	3c0fe700 	lui	t7,0xe700
     c38:	ac8f0000 	sw	t7,0(a0)
     c3c:	ac800004 	sw	zero,4(a0)
     c40:	8fb80124 	lw	t8,292(sp)
     c44:	3c01f500 	lui	at,0xf500
     c48:	24630008 	addiu	v1,v1,8
     c4c:	930e0016 	lbu	t6,22(t8)
     c50:	00602825 	move	a1,v1
     c54:	24630010 	addiu	v1,v1,16
     c58:	31d90007 	andi	t9,t6,0x7
     c5c:	8fae001c 	lw	t6,28(sp)
     c60:	00197d40 	sll	t7,t9,0x15
     c64:	01e1c025 	or	t8,t7,at
     c68:	030ec825 	or	t9,t8,t6
     c6c:	acb90000 	sw	t9,0(a1)
     c70:	8faf0124 	lw	t7,292(sp)
     c74:	3c010008 	lui	at,0x8
     c78:	95f80018 	lhu	t8,24(t7)
     c7c:	330e000f 	andi	t6,t8,0xf
     c80:	000ecd00 	sll	t9,t6,0x14
     c84:	03217825 	or	t7,t9,at
     c88:	01e7c025 	or	t8,t7,a3
     c8c:	03087025 	or	t6,t8,t0
     c90:	acae0004 	sw	t6,4(a1)
     c94:	3c01f200 	lui	at,0xf200
     c98:	00027880 	sll	t7,v0,0x2
     c9c:	0121c825 	or	t9,t1,at
     ca0:	31f80fff 	andi	t8,t7,0xfff
     ca4:	ac79fff8 	sw	t9,-8(v1)
     ca8:	00187300 	sll	t6,t8,0xc
     cac:	afae0038 	sw	t6,56(sp)
     cb0:	01c6c825 	or	t9,t6,a2
     cb4:	ac79fffc 	sw	t9,-4(v1)
     cb8:	00602025 	move	a0,v1
     cbc:	3c0fe700 	lui	t7,0xe700
     cc0:	ac8f0000 	sw	t7,0(a0)
     cc4:	ac800004 	sw	zero,4(a0)
     cc8:	4458f800 	cfc1	t8,$31
     ccc:	24090001 	li	t1,1
     cd0:	44c9f800 	ctc1	t1,$31
     cd4:	c7a600b4 	lwc1	$f6,180(sp)
     cd8:	24630008 	addiu	v1,v1,8
     cdc:	3c014f00 	lui	at,0x4f00
     ce0:	46003124 	cvt.w.s	$f4,$f6
     ce4:	4449f800 	cfc1	t1,$31
     ce8:	00000000 	nop
     cec:	31290078 	andi	t1,t1,0x78
     cf0:	51200013 	beqzl	t1,d40 <func_800FF9B4_ovl2+0x96c>
     cf4:	44092000 	mfc1	t1,$f4
     cf8:	44812000 	mtc1	at,$f4
     cfc:	24090001 	li	t1,1
     d00:	46043101 	sub.s	$f4,$f6,$f4
     d04:	44c9f800 	ctc1	t1,$31
     d08:	00000000 	nop
     d0c:	46002124 	cvt.w.s	$f4,$f4
     d10:	4449f800 	cfc1	t1,$31
     d14:	00000000 	nop
     d18:	31290078 	andi	t1,t1,0x78
     d1c:	15200005 	bnez	t1,d34 <func_800FF9B4_ovl2+0x960>
     d20:	00000000 	nop
     d24:	44092000 	mfc1	t1,$f4
     d28:	3c018000 	lui	at,0x8000
     d2c:	10000007 	b	d4c <func_800FF9B4_ovl2+0x978>
     d30:	01214825 	or	t1,t1,at
     d34:	10000005 	b	d4c <func_800FF9B4_ovl2+0x978>
     d38:	2409ffff 	li	t1,-1
     d3c:	44092000 	mfc1	t1,$f4
     d40:	00000000 	nop
     d44:	0520fffb 	bltz	t1,d34 <func_800FF9B4_ovl2+0x960>
     d48:	00000000 	nop
     d4c:	44d8f800 	ctc1	t8,$31
     d50:	24060001 	li	a2,1
     d54:	00094880 	sll	t1,t1,0x2
     d58:	31290fff 	andi	t1,t1,0xfff
     d5c:	444ff800 	cfc1	t7,$31
     d60:	44c6f800 	ctc1	a2,$31
     d64:	00094b00 	sll	t1,t1,0xc
     d68:	3c01e400 	lui	at,0xe400
     d6c:	460062a4 	cvt.w.s	$f10,$f12
     d70:	01214825 	or	t1,t1,at
     d74:	314e0fff 	andi	t6,t2,0xfff
     d78:	01c9c825 	or	t9,t6,t1
     d7c:	4446f800 	cfc1	a2,$31
     d80:	ac790000 	sw	t9,0(v1)
     d84:	3c014f00 	lui	at,0x4f00
     d88:	30c60078 	andi	a2,a2,0x78
     d8c:	10c00012 	beqz	a2,dd8 <func_800FF9B4_ovl2+0xa04>
     d90:	260b0008 	addiu	t3,s0,8
     d94:	44815000 	mtc1	at,$f10
     d98:	24060001 	li	a2,1
     d9c:	460a6281 	sub.s	$f10,$f12,$f10
     da0:	44c6f800 	ctc1	a2,$31
     da4:	00000000 	nop
     da8:	460052a4 	cvt.w.s	$f10,$f10
     dac:	4446f800 	cfc1	a2,$31
     db0:	00000000 	nop
     db4:	30c60078 	andi	a2,a2,0x78
     db8:	14c00005 	bnez	a2,dd0 <func_800FF9B4_ovl2+0x9fc>
     dbc:	00000000 	nop
     dc0:	44065000 	mfc1	a2,$f10
     dc4:	3c018000 	lui	at,0x8000
     dc8:	10000007 	b	de8 <func_800FF9B4_ovl2+0xa14>
     dcc:	00c13025 	or	a2,a2,at
     dd0:	10000005 	b	de8 <func_800FF9B4_ovl2+0xa14>
     dd4:	2406ffff 	li	a2,-1
     dd8:	44065000 	mfc1	a2,$f10
     ddc:	00000000 	nop
     de0:	04c0fffb 	bltz	a2,dd0 <func_800FF9B4_ovl2+0x9fc>
     de4:	00000000 	nop
     de8:	44cff800 	ctc1	t7,$31
     dec:	24080001 	li	t0,1
     df0:	00063080 	sll	a2,a2,0x2
     df4:	3c014f00 	lui	at,0x4f00
     df8:	4458f800 	cfc1	t8,$31
     dfc:	44c8f800 	ctc1	t0,$31
     e00:	00000000 	nop
     e04:	46007224 	cvt.w.s	$f8,$f14
     e08:	4448f800 	cfc1	t0,$31
     e0c:	00000000 	nop
     e10:	31080078 	andi	t0,t0,0x78
     e14:	51000013 	beqzl	t0,e64 <func_800FF9B4_ovl2+0xa90>
     e18:	44084000 	mfc1	t0,$f8
     e1c:	44814000 	mtc1	at,$f8
     e20:	24080001 	li	t0,1
     e24:	46087201 	sub.s	$f8,$f14,$f8
     e28:	44c8f800 	ctc1	t0,$31
     e2c:	00000000 	nop
     e30:	46004224 	cvt.w.s	$f8,$f8
     e34:	4448f800 	cfc1	t0,$31
     e38:	00000000 	nop
     e3c:	31080078 	andi	t0,t0,0x78
     e40:	15000005 	bnez	t0,e58 <func_800FF9B4_ovl2+0xa84>
     e44:	00000000 	nop
     e48:	44084000 	mfc1	t0,$f8
     e4c:	3c018000 	lui	at,0x8000
     e50:	10000007 	b	e70 <func_800FF9B4_ovl2+0xa9c>
     e54:	01014025 	or	t0,t0,at
     e58:	10000005 	b	e70 <func_800FF9B4_ovl2+0xa9c>
     e5c:	2408ffff 	li	t0,-1
     e60:	44084000 	mfc1	t0,$f8
     e64:	00000000 	nop
     e68:	0500fffb 	bltz	t0,e58 <func_800FF9B4_ovl2+0xa84>
     e6c:	00000000 	nop
     e70:	44d8f800 	ctc1	t8,$31
     e74:	00084080 	sll	t0,t0,0x2
     e78:	31080fff 	andi	t0,t0,0xfff
     e7c:	46008183 	div.s	$f6,$f16,$f0
     e80:	00084300 	sll	t0,t0,0xc
     e84:	30ce0fff 	andi	t6,a2,0xfff
     e88:	01c8c825 	or	t9,t6,t0
     e8c:	3c0fe100 	lui	t7,0xe100
     e90:	ac790004 	sw	t9,4(v1)
     e94:	ac6f0008 	sw	t7,8(v1)
     e98:	00067082 	srl	t6,a2,0x2
     e9c:	8fad0110 	lw	t5,272(sp)
     ea0:	24630008 	addiu	v1,v1,8
     ea4:	3c014f80 	lui	at,0x4f80
     ea8:	000d6c00 	sll	t5,t5,0x10
     eac:	46123100 	add.s	$f4,$f6,$f18
     eb0:	4600228d 	trunc.w.s	$f10,$f4
     eb4:	c7a40118 	lwc1	$f4,280(sp)
     eb8:	44025000 	mfc1	v0,$f10
     ebc:	448e5000 	mtc1	t6,$f10
     ec0:	44824000 	mtc1	v0,$f8
     ec4:	00000000 	nop
     ec8:	468041a0 	cvt.s.w	$f6,$f8
     ecc:	46805220 	cvt.s.w	$f8,$f10
     ed0:	05c10004 	bgez	t6,ee4 <func_800FF9B4_ovl2+0xb10>
     ed4:	e7a6001c 	swc1	$f6,28(sp)
     ed8:	44813000 	mtc1	at,$f6
     edc:	00000000 	nop
     ee0:	46064200 	add.s	$f8,$f8,$f6
     ee4:	46082281 	sub.s	$f10,$f4,$f8
     ee8:	c7a4001c 	lwc1	$f4,28(sp)
     eec:	24630008 	addiu	v1,v1,8
     ef0:	00602825 	move	a1,v1
     ef4:	46005187 	neg.s	$f6,$f10
     ef8:	24070001 	li	a3,1
     efc:	46062202 	mul.s	$f8,$f4,$f6
     f00:	4600428d 	trunc.w.s	$f10,$f8
     f04:	440f5000 	mfc1	t7,$f10
     f08:	00000000 	nop
     f0c:	25f80010 	addiu	t8,t7,16
     f10:	00187143 	sra	t6,t8,0x5
     f14:	31d9ffff 	andi	t9,t6,0xffff
     f18:	032d7825 	or	t7,t9,t5
     f1c:	ac6ffffc 	sw	t7,-4(v1)
     f20:	3c18f100 	lui	t8,0xf100
     f24:	acb80000 	sw	t8,0(a1)
     f28:	8fb90040 	lw	t9,64(sp)
     f2c:	3058ffff 	andi	t8,v0,0xffff
     f30:	24630008 	addiu	v1,v1,8
     f34:	00197c00 	sll	t7,t9,0x10
     f38:	01f87025 	or	t6,t7,t8
     f3c:	11520093 	beq	t2,s2,118c <func_800FF9B4_ovl2+0xdb8>
     f40:	acae0004 	sw	t6,4(a1)
     f44:	02332821 	addu	a1,s1,s3
     f48:	afa8002c 	sw	t0,44(sp)
     f4c:	afa90020 	sw	t1,32(sp)
     f50:	000ac882 	srl	t9,t2,0x2
     f54:	44993000 	mtc1	t9,$f6
     f58:	01404025 	move	t0,t2
     f5c:	c7a40118 	lwc1	$f4,280(sp)
     f60:	07210005 	bgez	t9,f78 <func_800FF9B4_ovl2+0xba4>
     f64:	46803220 	cvt.s.w	$f8,$f6
     f68:	3c014f80 	lui	at,0x4f80
     f6c:	44815000 	mtc1	at,$f10
     f70:	00000000 	nop
     f74:	460a4200 	add.s	$f8,$f8,$f10
     f78:	46082181 	sub.s	$f6,$f4,$f8
     f7c:	c7a4001c 	lwc1	$f4,28(sp)
     f80:	24b1ffff 	addiu	s1,a1,-1
     f84:	02332821 	addu	a1,s1,s3
     f88:	46003287 	neg.s	$f10,$f6
     f8c:	00b4082b 	sltu	at,a1,s4
     f90:	460a2202 	mul.s	$f8,$f4,$f10
     f94:	00a06025 	move	t4,a1
     f98:	02405025 	move	t2,s2
     f9c:	2678ffff 	addiu	t8,s3,-1
     fa0:	4600418d 	trunc.w.s	$f6,$f8
     fa4:	44093000 	mfc1	t1,$f6
     fa8:	00000000 	nop
     fac:	25290010 	addiu	t1,t1,16
     fb0:	14200003 	bnez	at,fc0 <func_800FF9B4_ovl2+0xbec>
     fb4:	00094943 	sra	t1,t1,0x5
     fb8:	10000034 	b	108c <func_800FF9B4_ovl2+0xcb8>
     fbc:	02806025 	move	t4,s4
     fc0:	03070019 	multu	t8,a3
     fc4:	3c014f80 	lui	at,0x4f80
     fc8:	00007012 	mflo	t6
     fcc:	01d3c821 	addu	t9,t6,s3
     fd0:	44992000 	mtc1	t9,$f4
     fd4:	07210004 	bgez	t9,fe8 <func_800FF9B4_ovl2+0xc14>
     fd8:	468022a0 	cvt.s.w	$f10,$f4
     fdc:	44814000 	mtc1	at,$f8
     fe0:	00000000 	nop
     fe4:	46085280 	add.s	$f10,$f10,$f8
     fe8:	46005182 	mul.s	$f6,$f10,$f0
     fec:	24020001 	li	v0,1
     ff0:	3c014f00 	lui	at,0x4f00
     ff4:	46023100 	add.s	$f4,$f6,$f2
     ff8:	444ff800 	cfc1	t7,$31
     ffc:	44c2f800 	ctc1	v0,$31
    1000:	00000000 	nop
    1004:	46002224 	cvt.w.s	$f8,$f4
    1008:	4442f800 	cfc1	v0,$31
    100c:	00000000 	nop
    1010:	30420078 	andi	v0,v0,0x78
    1014:	50400013 	beqzl	v0,1064 <func_800FF9B4_ovl2+0xc90>
    1018:	44024000 	mfc1	v0,$f8
    101c:	44814000 	mtc1	at,$f8
    1020:	24020001 	li	v0,1
    1024:	46082201 	sub.s	$f8,$f4,$f8
    1028:	44c2f800 	ctc1	v0,$31
    102c:	00000000 	nop
    1030:	46004224 	cvt.w.s	$f8,$f8
    1034:	4442f800 	cfc1	v0,$31
    1038:	00000000 	nop
    103c:	30420078 	andi	v0,v0,0x78
    1040:	14400005 	bnez	v0,1058 <func_800FF9B4_ovl2+0xc84>
    1044:	00000000 	nop
    1048:	44024000 	mfc1	v0,$f8
    104c:	3c018000 	lui	at,0x8000
    1050:	10000007 	b	1070 <func_800FF9B4_ovl2+0xc9c>
    1054:	00411025 	or	v0,v0,at
    1058:	10000005 	b	1070 <func_800FF9B4_ovl2+0xc9c>
    105c:	2402ffff 	li	v0,-1
    1060:	44024000 	mfc1	v0,$f8
    1064:	00000000 	nop
    1068:	0440fffb 	bltz	v0,1058 <func_800FF9B4_ovl2+0xc84>
    106c:	00000000 	nop
    1070:	2442ffff 	addiu	v0,v0,-1
    1074:	00025080 	sll	t2,v0,0x2
    1078:	44cff800 	ctc1	t7,$31
    107c:	024a082b 	sltu	at,s2,t2
    1080:	50200003 	beqzl	at,1090 <func_800FF9B4_ovl2+0xcbc>
    1084:	8e0e0000 	lw	t6,0(s0)
    1088:	02405025 	move	t2,s2
    108c:	8e0e0000 	lw	t6,0(s0)
    1090:	00112080 	sll	a0,s1,0x2
    1094:	30840fff 	andi	a0,a0,0xfff
    1098:	ac6e0000 	sw	t6,0(v1)
    109c:	8e180004 	lw	t8,4(s0)
    10a0:	3c01f400 	lui	at,0xf400
    10a4:	2586ffff 	addiu	a2,t4,-1
    10a8:	ac780004 	sw	t8,4(v1)
    10ac:	8d6f0000 	lw	t7,0(t3)
    10b0:	00063080 	sll	a2,a2,0x2
    10b4:	30c60fff 	andi	a2,a2,0xfff
    10b8:	ac6f0008 	sw	t7,8(v1)
    10bc:	8d790004 	lw	t9,4(t3)
    10c0:	25620048 	addiu	v0,t3,72
    10c4:	24e70001 	addiu	a3,a3,1
    10c8:	ac79000c 	sw	t9,12(v1)
    10cc:	8d6e0008 	lw	t6,8(t3)
    10d0:	0081c825 	or	t9,a0,at
    10d4:	3c01f200 	lui	at,0xf200
    10d8:	ac6e0010 	sw	t6,16(v1)
    10dc:	8d78000c 	lw	t8,12(t3)
    10e0:	ac790018 	sw	t9,24(v1)
    10e4:	24630058 	addiu	v1,v1,88
    10e8:	ac78ffbc 	sw	t8,-68(v1)
    10ec:	8faf0098 	lw	t7,152(sp)
    10f0:	01e6c025 	or	t8,t7,a2
    10f4:	ac78ffc4 	sw	t8,-60(v1)
    10f8:	8d790018 	lw	t9,24(t3)
    10fc:	ac79ffc8 	sw	t9,-56(v1)
    1100:	8d6e001c 	lw	t6,28(t3)
    1104:	ac6effcc 	sw	t6,-52(v1)
    1108:	8d780020 	lw	t8,32(t3)
    110c:	00817025 	or	t6,a0,at
    1110:	ac78ffd0 	sw	t8,-48(v1)
    1114:	8d6f0024 	lw	t7,36(t3)
    1118:	ac6effd8 	sw	t6,-40(v1)
    111c:	ac6fffd4 	sw	t7,-44(v1)
    1120:	8fb90038 	lw	t9,56(sp)
    1124:	03267825 	or	t7,t9,a2
    1128:	ac6fffdc 	sw	t7,-36(v1)
    112c:	8d6e0030 	lw	t6,48(t3)
    1130:	31590fff 	andi	t9,t2,0xfff
    1134:	ac6effe0 	sw	t6,-32(v1)
    1138:	8d780034 	lw	t8,52(t3)
    113c:	310e0fff 	andi	t6,t0,0xfff
    1140:	ac78ffe4 	sw	t8,-28(v1)
    1144:	8faf0020 	lw	t7,32(sp)
    1148:	032fc025 	or	t8,t9,t7
    114c:	ac78ffe8 	sw	t8,-24(v1)
    1150:	8fb9002c 	lw	t9,44(sp)
    1154:	3c18e100 	lui	t8,0xe100
    1158:	ac78fff0 	sw	t8,-16(v1)
    115c:	01d97825 	or	t7,t6,t9
    1160:	312effff 	andi	t6,t1,0xffff
    1164:	01cdc825 	or	t9,t6,t5
    1168:	ac6fffec 	sw	t7,-20(v1)
    116c:	ac79fff4 	sw	t9,-12(v1)
    1170:	8c580000 	lw	t8,0(v0)
    1174:	ac78fff8 	sw	t8,-8(v1)
    1178:	8c4f0004 	lw	t7,4(v0)
    117c:	ac6ffffc 	sw	t7,-4(v1)
    1180:	8fae00dc 	lw	t6,220(sp)
    1184:	554eff73 	bnel	t2,t6,f54 <func_800FF9B4_ovl2+0xb80>
    1188:	000ac882 	srl	t9,t2,0x2
    118c:	8fb90120 	lw	t9,288(sp)
    1190:	af230000 	sw	v1,0(t9)
    1194:	8fb40014 	lw	s4,20(sp)
    1198:	8fb30010 	lw	s3,16(sp)
    119c:	8fb2000c 	lw	s2,12(sp)
    11a0:	8fb10008 	lw	s1,8(sp)
    11a4:	8fb00004 	lw	s0,4(sp)
    11a8:	03e00008 	jr	ra
    11ac:	27bd0120 	addiu	sp,sp,288

000011b0 <func_80100790>:
func_80100790():
    11b0:	27bdff68 	addiu	sp,sp,-152
    11b4:	afbf0054 	sw	ra,84(sp)
    11b8:	afbe0050 	sw	s8,80(sp)
    11bc:	afb7004c 	sw	s7,76(sp)
    11c0:	afb60048 	sw	s6,72(sp)
    11c4:	afb50044 	sw	s5,68(sp)
    11c8:	afb40040 	sw	s4,64(sp)
    11cc:	afb3003c 	sw	s3,60(sp)
    11d0:	afb20038 	sw	s2,56(sp)
    11d4:	afb10034 	sw	s1,52(sp)
    11d8:	afb00030 	sw	s0,48(sp)
    11dc:	f7b60028 	sdc1	$f22,40(sp)
    11e0:	f7b40020 	sdc1	$f20,32(sp)
    11e4:	8c8e0000 	lw	t6,0(a0)
    11e8:	8c90004c 	lw	s0,76(a0)
    11ec:	3c180000 	lui	t8,0x0
    11f0:	000e7880 	sll	t7,t6,0x2
    11f4:	01ee7823 	subu	t7,t7,t6
    11f8:	000f78c0 	sll	t7,t7,0x3
    11fc:	27180000 	addiu	t8,t8,0
    1200:	120000ab 	beqz	s0,14b0 <func_80100790+0x300>
    1204:	01f89821 	addu	s3,t7,t8
    1208:	3c013f80 	lui	at,0x3f80
    120c:	3c1ee300 	lui	s8,0xe300
    1210:	3c140000 	lui	s4,0x0
    1214:	4481b000 	mtc1	at,$f22
    1218:	26940000 	addiu	s4,s4,0
    121c:	37de1001 	ori	s8,s8,0x1001
    1220:	24170060 	li	s7,96
    1224:	27b50074 	addiu	s5,sp,116
    1228:	c6040020 	lwc1	$f4,32(s0)
    122c:	8e03003c 	lw	v1,60(s0)
    1230:	e7a40074 	swc1	$f4,116(sp)
    1234:	c7a80074 	lwc1	$f8,116(sp)
    1238:	c6660010 	lwc1	$f6,16(s3)
    123c:	4608303c 	c.lt.s	$f6,$f8
    1240:	00000000 	nop
    1244:	45030098 	bc1tl	14a8 <func_80100790+0x2f8>
    1248:	8e100008 	lw	s0,8(s0)
    124c:	c60a0024 	lwc1	$f10,36(s0)
    1250:	e7aa0078 	swc1	$f10,120(sp)
    1254:	c7b20078 	lwc1	$f18,120(sp)
    1258:	c6700014 	lwc1	$f16,20(s3)
    125c:	4612803c 	c.lt.s	$f16,$f18
    1260:	00000000 	nop
    1264:	45030090 	bc1tl	14a8 <func_80100790+0x2f8>
    1268:	8e100008 	lw	s0,8(s0)
    126c:	9462000e 	lhu	v0,14(v1)
    1270:	30590004 	andi	t9,v0,0x4
    1274:	53200005 	beqzl	t9,128c <func_80100790+0xdc>
    1278:	9608001c 	lhu	t0,28(s0)
    127c:	c6640010 	lwc1	$f4,16(s3)
    1280:	1000000e 	b	12bc <func_80100790+0x10c>
    1284:	e7a4007c 	swc1	$f4,124(sp)
    1288:	9608001c 	lhu	t0,28(s0)
    128c:	3c014f80 	lui	at,0x4f80
    1290:	44883000 	mtc1	t0,$f6
    1294:	05010004 	bgez	t0,12a8 <func_80100790+0xf8>
    1298:	46803220 	cvt.s.w	$f8,$f6
    129c:	44815000 	mtc1	at,$f10
    12a0:	00000000 	nop
    12a4:	460a4200 	add.s	$f8,$f8,$f10
    12a8:	c6100028 	lwc1	$f16,40(s0)
    12ac:	c7a40074 	lwc1	$f4,116(sp)
    12b0:	46104482 	mul.s	$f18,$f8,$f16
    12b4:	46049180 	add.s	$f6,$f18,$f4
    12b8:	e7a6007c 	swc1	$f6,124(sp)
    12bc:	c7aa007c 	lwc1	$f10,124(sp)
    12c0:	c6680008 	lwc1	$f8,8(s3)
    12c4:	4608503c 	c.lt.s	$f10,$f8
    12c8:	00000000 	nop
    12cc:	45030076 	bc1tl	14a8 <func_80100790+0x2f8>
    12d0:	8e100008 	lw	s0,8(s0)
    12d4:	9609001e 	lhu	t1,30(s0)
    12d8:	3c014f80 	lui	at,0x4f80
    12dc:	44898000 	mtc1	t1,$f16
    12e0:	05210004 	bgez	t1,12f4 <func_80100790+0x144>
    12e4:	468084a0 	cvt.s.w	$f18,$f16
    12e8:	44812000 	mtc1	at,$f4
    12ec:	00000000 	nop
    12f0:	46049480 	add.s	$f18,$f18,$f4
    12f4:	c606002c 	lwc1	$f6,44(s0)
    12f8:	304a0008 	andi	t2,v0,0x8
    12fc:	46069002 	mul.s	$f0,$f18,$f6
    1300:	c7b20078 	lwc1	$f18,120(sp)
    1304:	1140003a 	beqz	t2,13f0 <func_80100790+0x240>
    1308:	46000506 	mov.s	$f20,$f0
    130c:	920b0012 	lbu	t3,18(s0)
    1310:	02002025 	move	a0,s0
    1314:	396c0001 	xori	t4,t3,0x1
    1318:	318d00ff 	andi	t5,t4,0xff
    131c:	01b70019 	multu	t5,s7
    1320:	a20c0012 	sb	t4,18(s0)
    1324:	9066000f 	lbu	a2,15(v1)
    1328:	00007012 	mflo	t6
    132c:	020e8821 	addu	s1,s0,t6
    1330:	26310040 	addiu	s1,s1,64
    1334:	0c000000 	jal	0 <func_800FF5E0_ovl2>
    1338:	92250016 	lbu	a1,22(s1)
    133c:	920f0012 	lbu	t7,18(s0)
    1340:	92240016 	lbu	a0,22(s1)
    1344:	01f70019 	multu	t7,s7
    1348:	0000c012 	mflo	t8
    134c:	02182821 	addu	a1,s0,t8
    1350:	0c000000 	jal	0 <func_800FF5E0_ovl2>
    1354:	24a50068 	addiu	a1,a1,104
    1358:	c7aa0078 	lwc1	$f10,120(sp)
    135c:	0040b025 	move	s6,v0
    1360:	26720008 	addiu	s2,s3,8
    1364:	46165200 	add.s	$f8,$f10,$f22
    1368:	e7a80080 	swc1	$f8,128(sp)
    136c:	c6700014 	lwc1	$f16,20(s3)
    1370:	46104032 	c.eq.s	$f8,$f16
    1374:	00000000 	nop
    1378:	45010043 	bc1t	1488 <func_80100790+0x2d8>
    137c:	00000000 	nop
    1380:	c7a40080 	lwc1	$f4,128(sp)
    1384:	02802025 	move	a0,s4
    1388:	46162481 	sub.s	$f18,$f4,$f22
    138c:	46149180 	add.s	$f6,$f18,$f20
    1390:	e7b20078 	swc1	$f18,120(sp)
    1394:	e7a60080 	swc1	$f6,128(sp)
    1398:	c6600014 	lwc1	$f0,20(s3)
    139c:	4606003c 	c.lt.s	$f0,$f6
    13a0:	00000000 	nop
    13a4:	45020003 	bc1fl	13b4 <func_80100790+0x204>
    13a8:	c60a0028 	lwc1	$f10,40(s0)
    13ac:	e7a00080 	swc1	$f0,128(sp)
    13b0:	c60a0028 	lwc1	$f10,40(s0)
    13b4:	02202825 	move	a1,s1
    13b8:	02a03025 	move	a2,s5
    13bc:	e7aa0010 	swc1	$f10,16(sp)
    13c0:	c608002c 	lwc1	$f8,44(s0)
    13c4:	02403825 	move	a3,s2
    13c8:	0c000000 	jal	0 <func_800FF5E0_ovl2>
    13cc:	e7a80014 	swc1	$f8,20(sp)
    13d0:	c7b00080 	lwc1	$f16,128(sp)
    13d4:	c6640014 	lwc1	$f4,20(s3)
    13d8:	46048032 	c.eq.s	$f16,$f4
    13dc:	00000000 	nop
    13e0:	4502ffe8 	bc1fl	1384 <func_80100790+0x1d4>
    13e4:	c7a40080 	lwc1	$f4,128(sp)
    13e8:	10000027 	b	1488 <func_80100790+0x2d8>
    13ec:	00000000 	nop
    13f0:	46120180 	add.s	$f6,$f0,$f18
    13f4:	e7a60080 	swc1	$f6,128(sp)
    13f8:	c668000c 	lwc1	$f8,12(s3)
    13fc:	c7aa0080 	lwc1	$f10,128(sp)
    1400:	4608503c 	c.lt.s	$f10,$f8
    1404:	00000000 	nop
    1408:	45030027 	bc1tl	14a8 <func_80100790+0x2f8>
    140c:	8e100008 	lw	s0,8(s0)
    1410:	92190012 	lbu	t9,18(s0)
    1414:	02002025 	move	a0,s0
    1418:	26720008 	addiu	s2,s3,8
    141c:	3b280001 	xori	t0,t9,0x1
    1420:	310900ff 	andi	t1,t0,0xff
    1424:	01370019 	multu	t1,s7
    1428:	a2080012 	sb	t0,18(s0)
    142c:	9066000f 	lbu	a2,15(v1)
    1430:	00005012 	mflo	t2
    1434:	020a8821 	addu	s1,s0,t2
    1438:	26310040 	addiu	s1,s1,64
    143c:	0c000000 	jal	0 <func_800FF5E0_ovl2>
    1440:	92250016 	lbu	a1,22(s1)
    1444:	920b0012 	lbu	t3,18(s0)
    1448:	92240016 	lbu	a0,22(s1)
    144c:	01770019 	multu	t3,s7
    1450:	00006012 	mflo	t4
    1454:	020c2821 	addu	a1,s0,t4
    1458:	0c000000 	jal	0 <func_800FF5E0_ovl2>
    145c:	24a50068 	addiu	a1,a1,104
    1460:	c6100028 	lwc1	$f16,40(s0)
    1464:	0040b025 	move	s6,v0
    1468:	02802025 	move	a0,s4
    146c:	e7b00010 	swc1	$f16,16(sp)
    1470:	c604002c 	lwc1	$f4,44(s0)
    1474:	02202825 	move	a1,s1
    1478:	02a03025 	move	a2,s5
    147c:	02403825 	move	a3,s2
    1480:	0c000000 	jal	0 <func_800FF5E0_ovl2>
    1484:	e7a40014 	swc1	$f4,20(sp)
    1488:	52c00007 	beqzl	s6,14a8 <func_80100790+0x2f8>
    148c:	8e100008 	lw	s0,8(s0)
    1490:	8e830000 	lw	v1,0(s4)
    1494:	246d0008 	addiu	t5,v1,8
    1498:	ae8d0000 	sw	t5,0(s4)
    149c:	ac600004 	sw	zero,4(v1)
    14a0:	ac7e0000 	sw	s8,0(v1)
    14a4:	8e100008 	lw	s0,8(s0)
    14a8:	5600ff60 	bnezl	s0,122c <func_80100790+0x7c>
    14ac:	c6040020 	lwc1	$f4,32(s0)
    14b0:	8fbf0054 	lw	ra,84(sp)
    14b4:	d7b40020 	ldc1	$f20,32(sp)
    14b8:	d7b60028 	ldc1	$f22,40(sp)
    14bc:	8fb00030 	lw	s0,48(sp)
    14c0:	8fb10034 	lw	s1,52(sp)
    14c4:	8fb20038 	lw	s2,56(sp)
    14c8:	8fb3003c 	lw	s3,60(sp)
    14cc:	8fb40040 	lw	s4,64(sp)
    14d0:	8fb50044 	lw	s5,68(sp)
    14d4:	8fb60048 	lw	s6,72(sp)
    14d8:	8fb7004c 	lw	s7,76(sp)
    14dc:	8fbe0050 	lw	s8,80(sp)
    14e0:	03e00008 	jr	ra
    14e4:	27bd0098 	addiu	sp,sp,152

000014e8 <func_80100AC8>:
func_80100AC8():
    14e8:	27bdffb0 	addiu	sp,sp,-80
    14ec:	afbf004c 	sw	ra,76(sp)
    14f0:	afbe0048 	sw	s8,72(sp)
    14f4:	afb70044 	sw	s7,68(sp)
    14f8:	afb60040 	sw	s6,64(sp)
    14fc:	afb5003c 	sw	s5,60(sp)
    1500:	afb40038 	sw	s4,56(sp)
    1504:	afb30034 	sw	s3,52(sp)
    1508:	afb20030 	sw	s2,48(sp)
    150c:	afb1002c 	sw	s1,44(sp)
    1510:	afb00028 	sw	s0,40(sp)
    1514:	f7b40020 	sdc1	$f20,32(sp)
    1518:	8c970000 	lw	s7,0(a0)
    151c:	3c168012 	lui	s6,0x8012
    1520:	3c050000 	lui	a1,0x0
    1524:	00177080 	sll	t6,s7,0x2
    1528:	02ceb021 	addu	s6,s6,t6
    152c:	8ed64740 	lw	s6,18240(s6)
    1530:	24a50000 	addiu	a1,a1,0
    1534:	afa40050 	sw	a0,80(sp)
    1538:	3c078000 	lui	a3,0x8000
    153c:	32c600ff 	andi	a2,s6,0xff
    1540:	0c000000 	jal	0 <func_800FF5E0_ovl2>
    1544:	afb60010 	sw	s6,16(sp)
    1548:	26cffff6 	addiu	t7,s6,-10
    154c:	000fc042 	srl	t8,t7,0x1
    1550:	0018c880 	sll	t9,t8,0x2
    1554:	3c02800d 	lui	v0,0x800d
    1558:	00591021 	addu	v0,v0,t9
    155c:	8c4279d8 	lw	v0,31192(v0)
    1560:	3c013f00 	lui	at,0x3f00
    1564:	44818000 	mtc1	at,$f16
    1568:	84480010 	lh	t0,16(v0)
    156c:	84490012 	lh	t1,18(v0)
    1570:	844c0008 	lh	t4,8(v0)
    1574:	44882000 	mtc1	t0,$f4
    1578:	44894000 	mtc1	t1,$f8
    157c:	3c013e80 	lui	at,0x3e80
    1580:	468021a0 	cvt.s.w	$f6,$f4
    1584:	44819000 	mtc1	at,$f18
    1588:	448c2000 	mtc1	t4,$f4
    158c:	00175080 	sll	t2,s7,0x2
    1590:	01575023 	subu	t2,t2,s7
    1594:	468042a0 	cvt.s.w	$f10,$f8
    1598:	46123002 	mul.s	$f0,$f6,$f18
    159c:	3c0b0000 	lui	t3,0x0
    15a0:	256b0000 	addiu	t3,t3,0
    15a4:	000a50c0 	sll	t2,t2,0x3
    15a8:	014ba021 	addu	s4,t2,t3
    15ac:	46125082 	mul.s	$f2,$f10,$f18
    15b0:	3c030000 	lui	v1,0x0
    15b4:	3c100000 	lui	s0,0x0
    15b8:	3c1e0000 	lui	s8,0x0
    15bc:	27de0000 	addiu	s8,s8,0
    15c0:	26100000 	addiu	s0,s0,0
    15c4:	468021a0 	cvt.s.w	$f6,$f4
    15c8:	00009825 	move	s3,zero
    15cc:	24420008 	addiu	v0,v0,8
    15d0:	46103202 	mul.s	$f8,$f6,$f16
    15d4:	e6880000 	swc1	$f8,0(s4)
    15d8:	844d0002 	lh	t5,2(v0)
    15dc:	c6880000 	lwc1	$f8,0(s4)
    15e0:	448d5000 	mtc1	t5,$f10
    15e4:	00000000 	nop
    15e8:	46805120 	cvt.s.w	$f4,$f10
    15ec:	46102182 	mul.s	$f6,$f4,$f16
    15f0:	e6860004 	swc1	$f6,4(s4)
    15f4:	46104302 	mul.s	$f12,$f8,$f16
    15f8:	c68a0004 	lwc1	$f10,4(s4)
    15fc:	46105382 	mul.s	$f14,$f10,$f16
    1600:	460c0101 	sub.s	$f4,$f0,$f12
    1604:	460e1181 	sub.s	$f6,$f2,$f14
    1608:	e6840008 	swc1	$f4,8(s4)
    160c:	460c0200 	add.s	$f8,$f0,$f12
    1610:	e686000c 	swc1	$f6,12(s4)
    1614:	460e1280 	add.s	$f10,$f2,$f14
    1618:	e6880010 	swc1	$f8,16(s4)
    161c:	e68a0014 	swc1	$f10,20(s4)
    1620:	8c630000 	lw	v1,0(v1)
    1624:	5060006e 	beqzl	v1,17e0 <func_80100AC8+0x2f8>
    1628:	8fa80050 	lw	t0,80(sp)
    162c:	4480a000 	mtc1	zero,$f20
    1630:	241500ff 	li	s5,255
    1634:	8e0e0004 	lw	t6,4(s0)
    1638:	00008825 	move	s1,zero
    163c:	00137900 	sll	t7,s3,0x4
    1640:	16ce0062 	bne	s6,t6,17cc <func_80100AC8+0x2e4>
    1644:	3c180000 	lui	t8,0x0
    1648:	27180000 	addiu	t8,t8,0
    164c:	01f89021 	addu	s2,t7,t8
    1650:	0c000000 	jal	0 <func_800FF5E0_ovl2>
    1654:	8e040000 	lw	a0,0(s0)
    1658:	8fa40050 	lw	a0,80(sp)
    165c:	24050001 	li	a1,1
    1660:	0c000000 	jal	0 <func_800FF5E0_ovl2>
    1664:	00403025 	move	a2,v0
    1668:	8619000c 	lh	t9,12(s0)
    166c:	c6880008 	lwc1	$f8,8(s4)
    1670:	96040008 	lhu	a0,8(s0)
    1674:	44992000 	mtc1	t9,$f4
    1678:	30890020 	andi	t1,a0,0x20
    167c:	468021a0 	cvt.s.w	$f6,$f4
    1680:	308c00c0 	andi	t4,a0,0xc0
    1684:	46083280 	add.s	$f10,$f6,$f8
    1688:	e44a0020 	swc1	$f10,32(v0)
    168c:	8608000e 	lh	t0,14(s0)
    1690:	c688000c 	lwc1	$f8,12(s4)
    1694:	44882000 	mtc1	t0,$f4
    1698:	00000000 	nop
    169c:	468021a0 	cvt.s.w	$f6,$f4
    16a0:	46083280 	add.s	$f10,$f6,$f8
    16a4:	e44a0024 	swc1	$f10,36(v0)
    16a8:	c6040010 	lwc1	$f4,16(s0)
    16ac:	e4440028 	swc1	$f4,40(v0)
    16b0:	c6060014 	lwc1	$f6,20(s0)
    16b4:	11200004 	beqz	t1,16c8 <func_80100AC8+0x1e0>
    16b8:	e446002c 	swc1	$f6,44(v0)
    16bc:	904a0013 	lbu	t2,19(v0)
    16c0:	354b0002 	ori	t3,t2,0x2
    16c4:	a04b0013 	sb	t3,19(v0)
    16c8:	5180001f 	beqzl	t4,1748 <func_80100AC8+0x260>
    16cc:	308d0105 	andi	t5,a0,0x105
    16d0:	960d000a 	lhu	t5,10(s0)
    16d4:	30880040 	andi	t0,a0,0x40
    16d8:	308c0080 	andi	t4,a0,0x80
    16dc:	000d7080 	sll	t6,t5,0x2
    16e0:	01cd7023 	subu	t6,t6,t5
    16e4:	000e7080 	sll	t6,t6,0x2
    16e8:	03ce1821 	addu	v1,s8,t6
    16ec:	906f0000 	lbu	t7,0(v1)
    16f0:	24630002 	addiu	v1,v1,2
    16f4:	a04f0014 	sb	t7,20(v0)
    16f8:	9078ffff 	lbu	t8,-1(v1)
    16fc:	a0580015 	sb	t8,21(v0)
    1700:	90790000 	lbu	t9,0(v1)
    1704:	a0550017 	sb	s5,23(v0)
    1708:	1100000b 	beqz	t0,1738 <func_80100AC8+0x250>
    170c:	a0590016 	sb	t9,22(v0)
    1710:	90690001 	lbu	t1,1(v1)
    1714:	24110001 	li	s1,1
    1718:	24630003 	addiu	v1,v1,3
    171c:	a0490018 	sb	t1,24(v0)
    1720:	906affff 	lbu	t2,-1(v1)
    1724:	a04a0019 	sb	t2,25(v0)
    1728:	906b0000 	lbu	t3,0(v1)
    172c:	a055001b 	sb	s5,27(v0)
    1730:	10000004 	b	1744 <func_80100AC8+0x25c>
    1734:	a04b001a 	sb	t3,26(v0)
    1738:	51800003 	beqzl	t4,1748 <func_80100AC8+0x260>
    173c:	308d0105 	andi	t5,a0,0x105
    1740:	24110002 	li	s1,2
    1744:	308d0105 	andi	t5,a0,0x105
    1748:	15a00006 	bnez	t5,1764 <func_80100AC8+0x27c>
    174c:	30990200 	andi	t9,a0,0x200
    1750:	c6080018 	lwc1	$f8,24(s0)
    1754:	4608a032 	c.eq.s	$f20,$f8
    1758:	00000000 	nop
    175c:	4501000a 	bc1t	1788 <func_80100AC8+0x2a0>
    1760:	00000000 	nop
    1764:	36310004 	ori	s1,s1,0x4
    1768:	308e0400 	andi	t6,a0,0x400
    176c:	11c00006 	beqz	t6,1788 <func_80100AC8+0x2a0>
    1770:	3231ffff 	andi	s1,s1,0xffff
    1774:	24180001 	li	t8,1
    1778:	36310010 	ori	s1,s1,0x10
    177c:	a45800ba 	sh	t8,186(v0)
    1780:	a458005a 	sh	t8,90(v0)
    1784:	3231ffff 	andi	s1,s1,0xffff
    1788:	17200006 	bnez	t9,17a4 <func_80100AC8+0x2bc>
    178c:	3c030000 	lui	v1,0x0
    1790:	c60a001c 	lwc1	$f10,28(s0)
    1794:	460aa032 	c.eq.s	$f20,$f10
    1798:	00000000 	nop
    179c:	45030004 	bc1tl	17b0 <func_80100AC8+0x2c8>
    17a0:	ae420000 	sw	v0,0(s2)
    17a4:	36310008 	ori	s1,s1,0x8
    17a8:	3231ffff 	andi	s1,s1,0xffff
    17ac:	ae420000 	sw	v0,0(s2)
    17b0:	a657000c 	sh	s7,12(s2)
    17b4:	c4440024 	lwc1	$f4,36(v0)
    17b8:	a651000e 	sh	s1,14(s2)
    17bc:	e6540008 	swc1	$f20,8(s2)
    17c0:	e6440004 	swc1	$f4,4(s2)
    17c4:	ac52003c 	sw	s2,60(v0)
    17c8:	8c630000 	lw	v1,0(v1)
    17cc:	26730001 	addiu	s3,s3,1
    17d0:	0263082b 	sltu	at,s3,v1
    17d4:	1420ff97 	bnez	at,1634 <func_80100AC8+0x14c>
    17d8:	26100030 	addiu	s0,s0,48
    17dc:	8fa80050 	lw	t0,80(sp)
    17e0:	ad000014 	sw	zero,20(t0)
    17e4:	8fbf004c 	lw	ra,76(sp)
    17e8:	8fbe0048 	lw	s8,72(sp)
    17ec:	8fb70044 	lw	s7,68(sp)
    17f0:	8fb60040 	lw	s6,64(sp)
    17f4:	8fb5003c 	lw	s5,60(sp)
    17f8:	8fb40038 	lw	s4,56(sp)
    17fc:	8fb30034 	lw	s3,52(sp)
    1800:	8fb20030 	lw	s2,48(sp)
    1804:	8fb1002c 	lw	s1,44(sp)
    1808:	8fb00028 	lw	s0,40(sp)
    180c:	d7b40020 	ldc1	$f20,32(sp)
    1810:	03e00008 	jr	ra
    1814:	27bd0050 	addiu	sp,sp,80

00001818 <func_80100DF8>:
func_80100DF8():
    1818:	3c050000 	lui	a1,0x0
    181c:	8ca50000 	lw	a1,0(a1)
    1820:	00047080 	sll	t6,a0,0x2
    1824:	3c028012 	lui	v0,0x8012
    1828:	004e1021 	addu	v0,v0,t6
    182c:	8c424740 	lw	v0,18240(v0)
    1830:	10a0000c 	beqz	a1,1864 <func_80100DF8+0x4c>
    1834:	00001825 	move	v1,zero
    1838:	3c040000 	lui	a0,0x0
    183c:	24840000 	addiu	a0,a0,0
    1840:	8c8f0004 	lw	t7,4(a0)
    1844:	24630001 	addiu	v1,v1,1
    1848:	0065082b 	sltu	at,v1,a1
    184c:	144f0003 	bne	v0,t7,185c <func_80100DF8+0x44>
    1850:	00000000 	nop
    1854:	03e00008 	jr	ra
    1858:	24020001 	li	v0,1
    185c:	1420fff8 	bnez	at,1840 <func_80100DF8+0x28>
    1860:	24840030 	addiu	a0,a0,48
    1864:	00001025 	move	v0,zero
    1868:	03e00008 	jr	ra
    186c:	00000000 	nop

00001870 <func_80100E50_ovl2>:
func_80100E50_ovl2():
    1870:	27bdffe8 	addiu	sp,sp,-24
    1874:	afbf0014 	sw	ra,20(sp)
    1878:	3c050000 	lui	a1,0x0
    187c:	24a50000 	addiu	a1,a1,0
    1880:	00003025 	move	a2,zero
    1884:	0c000000 	jal	0 <func_800FF5E0_ovl2>
    1888:	00003825 	move	a3,zero
    188c:	8fbf0014 	lw	ra,20(sp)
    1890:	27bd0018 	addiu	sp,sp,24
    1894:	03e00008 	jr	ra
    1898:	00000000 	nop

0000189c <func_80100E7C_ovl2>:
func_80100E7C_ovl2():
    189c:	44802000 	mtc1	zero,$f4
    18a0:	3c018013 	lui	at,0x8013
    18a4:	460c203e 	c.le.s	$f4,$f12
    18a8:	00000000 	nop
    18ac:	4500000b 	bc1f	18dc <func_80100E7C_ovl2+0x40>
    18b0:	00000000 	nop
    18b4:	3c010000 	lui	at,0x0
    18b8:	c4260000 	lwc1	$f6,0(at)
    18bc:	4606603e 	c.le.s	$f12,$f6
    18c0:	00000000 	nop
    18c4:	45000003 	bc1f	18d4 <func_80100E7C_ovl2+0x38>
    18c8:	00000000 	nop
    18cc:	03e00008 	jr	ra
    18d0:	00001025 	move	v0,zero
    18d4:	03e00008 	jr	ra
    18d8:	24020001 	li	v0,1
    18dc:	c4288a30 	lwc1	$f8,-30160(at)
    18e0:	24020002 	li	v0,2
    18e4:	460c403e 	c.le.s	$f8,$f12
    18e8:	00000000 	nop
    18ec:	45000003 	bc1f	18fc <func_80100E7C_ovl2+0x60>
    18f0:	00000000 	nop
    18f4:	03e00008 	jr	ra
    18f8:	24020003 	li	v0,3
    18fc:	03e00008 	jr	ra
    1900:	00000000 	nop

00001904 <func_80100EE4_ovl2>:
func_80100EE4_ovl2():
    1904:	3c030000 	lui	v1,0x0
    1908:	24630000 	addiu	v1,v1,0
    190c:	c472000c 	lwc1	$f18,12(v1)
    1910:	c4700000 	lwc1	$f16,0(v1)
    1914:	c46a0008 	lwc1	$f10,8(v1)
    1918:	c4680014 	lwc1	$f8,20(v1)
    191c:	46128401 	sub.s	$f16,$f16,$f18
    1920:	3c020000 	lui	v0,0x0
    1924:	24420000 	addiu	v0,v0,0
    1928:	46085201 	sub.s	$f8,$f10,$f8
    192c:	c440000c 	lwc1	$f0,12(v0)
    1930:	c44a0010 	lwc1	$f10,16(v0)
    1934:	c4460008 	lwc1	$f6,8(v0)
    1938:	46120481 	sub.s	$f18,$f0,$f18
    193c:	c4440014 	lwc1	$f4,20(v0)
    1940:	c4420000 	lwc1	$f2,0(v0)
    1944:	27bdffb8 	addiu	sp,sp,-72
    1948:	46043301 	sub.s	$f12,$f6,$f4
    194c:	afbf0014 	sw	ra,20(sp)
    1950:	afa40048 	sw	a0,72(sp)
    1954:	46001381 	sub.s	$f14,$f2,$f0
    1958:	e7b20040 	swc1	$f18,64(sp)
    195c:	e7aa003c 	swc1	$f10,60(sp)
    1960:	e7b00028 	swc1	$f16,40(sp)
    1964:	0c000000 	jal	0 <func_800FF5E0_ovl2>
    1968:	e7a80024 	swc1	$f8,36(sp)
    196c:	e7a00030 	swc1	$f0,48(sp)
    1970:	c7ac0024 	lwc1	$f12,36(sp)
    1974:	0c000000 	jal	0 <func_800FF5E0_ovl2>
    1978:	c7ae0028 	lwc1	$f14,40(sp)
    197c:	c7ac0030 	lwc1	$f12,48(sp)
    1980:	0c000000 	jal	0 <func_800FF5E0_ovl2>
    1984:	e7a0002c 	swc1	$f0,44(sp)
    1988:	c7ac002c 	lwc1	$f12,44(sp)
    198c:	0c000000 	jal	0 <func_800FF5E0_ovl2>
    1990:	afa2001c 	sw	v0,28(sp)
    1994:	8fa3001c 	lw	v1,28(sp)
    1998:	24040001 	li	a0,1
    199c:	c7ae002c 	lwc1	$f14,44(sp)
    19a0:	14640007 	bne	v1,a0,19c0 <func_80100EE4_ovl2+0xbc>
    19a4:	3c0e0000 	lui	t6,0x0
    19a8:	24010002 	li	at,2
    19ac:	14410004 	bne	v0,at,19c0 <func_80100EE4_ovl2+0xbc>
    19b0:	3c010000 	lui	at,0x0
    19b4:	c4280000 	lwc1	$f8,0(at)
    19b8:	10000008 	b	19dc <func_80100EE4_ovl2+0xd8>
    19bc:	46087380 	add.s	$f14,$f14,$f8
    19c0:	24010002 	li	at,2
    19c4:	14610005 	bne	v1,at,19dc <func_80100EE4_ovl2+0xd8>
    19c8:	00000000 	nop
    19cc:	14440003 	bne	v0,a0,19dc <func_80100EE4_ovl2+0xd8>
    19d0:	3c010000 	lui	at,0x0
    19d4:	c42a0000 	lwc1	$f10,0(at)
    19d8:	460a7381 	sub.s	$f14,$f14,$f10
    19dc:	8dce0000 	lw	t6,0(t6)
    19e0:	3c010000 	lui	at,0x0
    19e4:	c4260000 	lwc1	$f6,0(at)
    19e8:	8dc2003c 	lw	v0,60(t6)
    19ec:	3c014334 	lui	at,0x4334
    19f0:	44815000 	mtc1	at,$f10
    19f4:	c4440020 	lwc1	$f4,32(v0)
    19f8:	c7a00028 	lwc1	$f0,40(sp)
    19fc:	c7a20024 	lwc1	$f2,36(sp)
    1a00:	46062202 	mul.s	$f8,$f4,$f6
    1a04:	c4460024 	lwc1	$f6,36(v0)
    1a08:	460a4103 	div.s	$f4,$f8,$f10
    1a0c:	c7aa0030 	lwc1	$f10,48(sp)
    1a10:	46062202 	mul.s	$f8,$f4,$f6
    1a14:	460e5101 	sub.s	$f4,$f10,$f14
    1a18:	46000182 	mul.s	$f6,$f0,$f0
    1a1c:	00000000 	nop
    1a20:	46021282 	mul.s	$f10,$f2,$f2
    1a24:	46082483 	div.s	$f18,$f4,$f8
    1a28:	460a3300 	add.s	$f12,$f6,$f10
    1a2c:	0c000000 	jal	0 <func_800FF5E0_ovl2>
    1a30:	e7b20038 	swc1	$f18,56(sp)
    1a34:	3c020000 	lui	v0,0x0
    1a38:	24420000 	addiu	v0,v0,0
    1a3c:	c4440004 	lwc1	$f4,4(v0)
    1a40:	c4480010 	lwc1	$f8,16(v0)
    1a44:	46000386 	mov.s	$f14,$f0
    1a48:	0c000000 	jal	0 <func_800FF5E0_ovl2>
    1a4c:	46082301 	sub.s	$f12,$f4,$f8
    1a50:	3c0f0000 	lui	t7,0x0
    1a54:	8def0000 	lw	t7,0(t7)
    1a58:	3c010000 	lui	at,0x0
    1a5c:	c42a0000 	lwc1	$f10,0(at)
    1a60:	8df8003c 	lw	t8,60(t7)
    1a64:	3c014334 	lui	at,0x4334
    1a68:	44814000 	mtc1	at,$f8
    1a6c:	c7060020 	lwc1	$f6,32(t8)
    1a70:	3c0d0000 	lui	t5,0x0
    1a74:	25ad0000 	addiu	t5,t5,0
    1a78:	460a3102 	mul.s	$f4,$f6,$f10
    1a7c:	8db90000 	lw	t9,0(t5)
    1a80:	3c040000 	lui	a0,0x0
    1a84:	3c0b0000 	lui	t3,0x0
    1a88:	c7b20038 	lwc1	$f18,56(sp)
    1a8c:	256b0000 	addiu	t3,t3,0
    1a90:	24840000 	addiu	a0,a0,0
    1a94:	46082183 	div.s	$f6,$f4,$f8
    1a98:	00005025 	move	t2,zero
    1a9c:	240c0030 	li	t4,48
    1aa0:	24090018 	li	t1,24
    1aa4:	3c080000 	lui	t0,0x0
    1aa8:	46060283 	div.s	$f10,$f0,$f6
    1aac:	132000a7 	beqz	t9,1d4c <func_80100EE4_ovl2+0x448>
    1ab0:	e7aa0034 	swc1	$f10,52(sp)
    1ab4:	44808000 	mtc1	zero,$f16
    1ab8:	25080000 	addiu	t0,t0,0
    1abc:	8c860000 	lw	a2,0(a0)
    1ac0:	50c0009d 	beqzl	a2,1d38 <func_80100EE4_ovl2+0x434>
    1ac4:	8dae0000 	lw	t6,0(t5)
    1ac8:	014c0019 	multu	t2,t4
    1acc:	9487000c 	lhu	a3,12(a0)
    1ad0:	00007012 	mflo	t6
    1ad4:	016e1821 	addu	v1,t3,t6
    1ad8:	94650008 	lhu	a1,8(v1)
    1adc:	30af000a 	andi	t7,a1,0xa
    1ae0:	55e00007 	bnezl	t7,1b00 <func_80100EE4_ovl2+0x1fc>
    1ae4:	94d8001e 	lhu	t8,30(a2)
    1ae8:	c464001c 	lwc1	$f4,28(v1)
    1aec:	46048032 	c.eq.s	$f16,$f4
    1af0:	00000000 	nop
    1af4:	45030049 	bc1tl	1c1c <func_80100EE4_ovl2+0x318>
    1af8:	30af0005 	andi	t7,a1,0x5
    1afc:	94d8001e 	lhu	t8,30(a2)
    1b00:	c46c001c 	lwc1	$f12,28(v1)
    1b04:	c4ca002c 	lwc1	$f10,44(a2)
    1b08:	2719ffff 	addiu	t9,t8,-1
    1b0c:	44994000 	mtc1	t9,$f8
    1b10:	460c8032 	c.eq.s	$f16,$f12
    1b14:	c4820004 	lwc1	$f2,4(a0)
    1b18:	468041a0 	cvt.s.w	$f6,$f8
    1b1c:	30b80008 	andi	t8,a1,0x8
    1b20:	460a3382 	mul.s	$f14,$f6,$f10
    1b24:	45010011 	bc1t	1b6c <func_80100EE4_ovl2+0x268>
    1b28:	00000000 	nop
    1b2c:	c4840008 	lwc1	$f4,8(a0)
    1b30:	460c2200 	add.s	$f8,$f4,$f12
    1b34:	e4880008 	swc1	$f8,8(a0)
    1b38:	c4800008 	lwc1	$f0,8(a0)
    1b3c:	460e0183 	div.s	$f6,$f0,$f14
    1b40:	4600328d 	trunc.w.s	$f10,$f6
    1b44:	440f5000 	mfc1	t7,$f10
    1b48:	00000000 	nop
    1b4c:	448f2000 	mtc1	t7,$f4
    1b50:	00000000 	nop
    1b54:	46802220 	cvt.s.w	$f8,$f4
    1b58:	460e4182 	mul.s	$f6,$f8,$f14
    1b5c:	46060281 	sub.s	$f10,$f0,$f6
    1b60:	e48a0008 	swc1	$f10,8(a0)
    1b64:	c4840008 	lwc1	$f4,8(a0)
    1b68:	46041080 	add.s	$f2,$f2,$f4
    1b6c:	1300000b 	beqz	t8,1b9c <func_80100EE4_ovl2+0x298>
    1b70:	30af0002 	andi	t7,a1,0x2
    1b74:	00e90019 	multu	a3,t1
    1b78:	c7a60034 	lwc1	$f6,52(sp)
    1b7c:	c464002c 	lwc1	$f4,44(v1)
    1b80:	0000c812 	mflo	t9
    1b84:	01197021 	addu	t6,t0,t9
    1b88:	c5c80004 	lwc1	$f8,4(t6)
    1b8c:	46064282 	mul.s	$f10,$f8,$f6
    1b90:	00000000 	nop
    1b94:	46045202 	mul.s	$f8,$f10,$f4
    1b98:	46081080 	add.s	$f2,$f2,$f8
    1b9c:	11e00004 	beqz	t7,1bb0 <func_80100EE4_ovl2+0x2ac>
    1ba0:	c7a6003c 	lwc1	$f6,60(sp)
    1ba4:	c46a0024 	lwc1	$f10,36(v1)
    1ba8:	460a3102 	mul.s	$f4,$f6,$f10
    1bac:	46041080 	add.s	$f2,$f2,$f4
    1bb0:	9498000e 	lhu	t8,14(a0)
    1bb4:	33190008 	andi	t9,t8,0x8
    1bb8:	53200017 	beqzl	t9,1c18 <func_80100EE4_ovl2+0x314>
    1bbc:	e4c20024 	swc1	$f2,36(a2)
    1bc0:	00e90019 	multu	a3,t1
    1bc4:	00001025 	move	v0,zero
    1bc8:	00007012 	mflo	t6
    1bcc:	010e7821 	addu	t7,t0,t6
    1bd0:	c5e8000c 	lwc1	$f8,12(t7)
    1bd4:	46081001 	sub.s	$f0,$f2,$f8
    1bd8:	4600803c 	c.lt.s	$f16,$f0
    1bdc:	460e0183 	div.s	$f6,$f0,$f14
    1be0:	45000003 	bc1f	1bf0 <func_80100EE4_ovl2+0x2ec>
    1be4:	00000000 	nop
    1be8:	10000001 	b	1bf0 <func_80100EE4_ovl2+0x2ec>
    1bec:	24020001 	li	v0,1
    1bf0:	4600328d 	trunc.w.s	$f10,$f6
    1bf4:	44195000 	mfc1	t9,$f10
    1bf8:	00000000 	nop
    1bfc:	03227021 	addu	t6,t9,v0
    1c00:	448e2000 	mtc1	t6,$f4
    1c04:	00000000 	nop
    1c08:	46802220 	cvt.s.w	$f8,$f4
    1c0c:	460e4182 	mul.s	$f6,$f8,$f14
    1c10:	46061081 	sub.s	$f2,$f2,$f6
    1c14:	e4c20024 	swc1	$f2,36(a2)
    1c18:	30af0005 	andi	t7,a1,0x5
    1c1c:	15e00006 	bnez	t7,1c38 <func_80100EE4_ovl2+0x334>
    1c20:	30ae0004 	andi	t6,a1,0x4
    1c24:	c46a0018 	lwc1	$f10,24(v1)
    1c28:	460a8032 	c.eq.s	$f16,$f10
    1c2c:	00000000 	nop
    1c30:	45030041 	bc1tl	1d38 <func_80100EE4_ovl2+0x434>
    1c34:	8dae0000 	lw	t6,0(t5)
    1c38:	94d8001c 	lhu	t8,28(a2)
    1c3c:	c4c00020 	lwc1	$f0,32(a2)
    1c40:	3c014f80 	lui	at,0x4f80
    1c44:	44982000 	mtc1	t8,$f4
    1c48:	07010004 	bgez	t8,1c5c <func_80100EE4_ovl2+0x358>
    1c4c:	46802220 	cvt.s.w	$f8,$f4
    1c50:	44813000 	mtc1	at,$f6
    1c54:	00000000 	nop
    1c58:	46064200 	add.s	$f8,$f8,$f6
    1c5c:	c4ca0028 	lwc1	$f10,40(a2)
    1c60:	c4640018 	lwc1	$f4,24(v1)
    1c64:	30b90001 	andi	t9,a1,0x1
    1c68:	460a4302 	mul.s	$f12,$f8,$f10
    1c6c:	13200005 	beqz	t9,1c84 <func_80100EE4_ovl2+0x380>
    1c70:	46040000 	add.s	$f0,$f0,$f4
    1c74:	c7a60040 	lwc1	$f6,64(sp)
    1c78:	c4680020 	lwc1	$f8,32(v1)
    1c7c:	46083282 	mul.s	$f10,$f6,$f8
    1c80:	460a0000 	add.s	$f0,$f0,$f10
    1c84:	51c0000b 	beqzl	t6,1cb4 <func_80100EE4_ovl2+0x3b0>
    1c88:	9483000e 	lhu	v1,14(a0)
    1c8c:	00e90019 	multu	a3,t1
    1c90:	c4680028 	lwc1	$f8,40(v1)
    1c94:	00007812 	mflo	t7
    1c98:	010fc021 	addu	t8,t0,t7
    1c9c:	c7040000 	lwc1	$f4,0(t8)
    1ca0:	46122182 	mul.s	$f6,$f4,$f18
    1ca4:	00000000 	nop
    1ca8:	46083282 	mul.s	$f10,$f6,$f8
    1cac:	460a0000 	add.s	$f0,$f0,$f10
    1cb0:	9483000e 	lhu	v1,14(a0)
    1cb4:	30630004 	andi	v1,v1,0x4
    1cb8:	5060001e 	beqzl	v1,1d34 <func_80100EE4_ovl2+0x430>
    1cbc:	e4c00020 	swc1	$f0,32(a2)
    1cc0:	00e90019 	multu	a3,t1
    1cc4:	0000c812 	mflo	t9
    1cc8:	01197021 	addu	t6,t0,t9
    1ccc:	c5c40008 	lwc1	$f4,8(t6)
    1cd0:	46040081 	sub.s	$f2,$f0,$f4
    1cd4:	4602803c 	c.lt.s	$f16,$f2
    1cd8:	00000000 	nop
    1cdc:	45020007 	bc1fl	1cfc <func_80100EE4_ovl2+0x3f8>
    1ce0:	460c1283 	div.s	$f10,$f2,$f12
    1ce4:	460c1183 	div.s	$f6,$f2,$f12
    1ce8:	4600320d 	trunc.w.s	$f8,$f6
    1cec:	44024000 	mfc1	v0,$f8
    1cf0:	10000005 	b	1d08 <func_80100EE4_ovl2+0x404>
    1cf4:	24420001 	addiu	v0,v0,1
    1cf8:	460c1283 	div.s	$f10,$f2,$f12
    1cfc:	4600510d 	trunc.w.s	$f4,$f10
    1d00:	44022000 	mfc1	v0,$f4
    1d04:	00000000 	nop
    1d08:	10600004 	beqz	v1,1d1c <func_80100EE4_ovl2+0x418>
    1d0c:	30590001 	andi	t9,v0,0x1
    1d10:	53200003 	beqzl	t9,1d20 <func_80100EE4_ovl2+0x41c>
    1d14:	44823000 	mtc1	v0,$f6
    1d18:	24420001 	addiu	v0,v0,1
    1d1c:	44823000 	mtc1	v0,$f6
    1d20:	00000000 	nop
    1d24:	46803220 	cvt.s.w	$f8,$f6
    1d28:	460c4282 	mul.s	$f10,$f8,$f12
    1d2c:	460a0001 	sub.s	$f0,$f0,$f10
    1d30:	e4c00020 	swc1	$f0,32(a2)
    1d34:	8dae0000 	lw	t6,0(t5)
    1d38:	254a0001 	addiu	t2,t2,1
    1d3c:	24840010 	addiu	a0,a0,16
    1d40:	014e082b 	sltu	at,t2,t6
    1d44:	5420ff5e 	bnezl	at,1ac0 <func_80100EE4_ovl2+0x1bc>
    1d48:	8c860000 	lw	a2,0(a0)
    1d4c:	8fbf0014 	lw	ra,20(sp)
    1d50:	27bd0048 	addiu	sp,sp,72
    1d54:	03e00008 	jr	ra
    1d58:	00000000 	nop

00001d5c <func_8010133C_ovl2>:
func_8010133C_ovl2():
    1d5c:	3c010000 	lui	at,0x0
    1d60:	ac200000 	sw	zero,0(at)
    1d64:	3c010000 	lui	at,0x0
    1d68:	3c030000 	lui	v1,0x0
    1d6c:	3c020000 	lui	v0,0x0
    1d70:	24420000 	addiu	v0,v0,0
    1d74:	24630000 	addiu	v1,v1,0
    1d78:	ac200000 	sw	zero,0(at)
    1d7c:	24630040 	addiu	v1,v1,64
    1d80:	ac60ffd0 	sw	zero,-48(v1)
    1d84:	ac60ffe0 	sw	zero,-32(v1)
    1d88:	ac60fff0 	sw	zero,-16(v1)
    1d8c:	1462fffb 	bne	v1,v0,1d7c <func_8010133C_ovl2+0x20>
    1d90:	ac60ffc0 	sw	zero,-64(v1)
    1d94:	03e00008 	jr	ra
    1d98:	00000000 	nop

00001d9c <func_8010137C_ovl2>:
func_8010137C_ovl2():
    1d9c:	27bdffe0 	addiu	sp,sp,-32
    1da0:	afbf001c 	sw	ra,28(sp)
    1da4:	afb10018 	sw	s1,24(sp)
    1da8:	0c000000 	jal	0 <func_800FF5E0_ovl2>
    1dac:	afb00014 	sw	s0,20(sp)
    1db0:	00008025 	move	s0,zero
    1db4:	24110004 	li	s1,4
    1db8:	0c000000 	jal	0 <func_800FF5E0_ovl2>
    1dbc:	02002025 	move	a0,s0
    1dc0:	50400004 	beqzl	v0,1dd4 <func_8010137C_ovl2+0x38>
    1dc4:	26100001 	addiu	s0,s0,1
    1dc8:	0c000000 	jal	0 <func_800FF5E0_ovl2>
    1dcc:	02002025 	move	a0,s0
    1dd0:	26100001 	addiu	s0,s0,1
    1dd4:	1611fff8 	bne	s0,s1,1db8 <func_8010137C_ovl2+0x1c>
    1dd8:	00000000 	nop
    1ddc:	00002025 	move	a0,zero
    1de0:	00002825 	move	a1,zero
    1de4:	2406001a 	li	a2,26
    1de8:	0c000000 	jal	0 <func_800FF5E0_ovl2>
    1dec:	3c078000 	lui	a3,0x8000
    1df0:	3c050000 	lui	a1,0x0
    1df4:	24a50000 	addiu	a1,a1,0
    1df8:	00402025 	move	a0,v0
    1dfc:	24060001 	li	a2,1
    1e00:	0c000000 	jal	0 <func_800FF5E0_ovl2>
    1e04:	00003825 	move	a3,zero
    1e08:	8fbf001c 	lw	ra,28(sp)
    1e0c:	8fb00014 	lw	s0,20(sp)
    1e10:	8fb10018 	lw	s1,24(sp)
    1e14:	03e00008 	jr	ra
    1e18:	27bd0020 	addiu	sp,sp,32
    1e1c:	00000000 	nop

00001e20 <func_80101400_ovl2>:
func_80101400_ovl2():
    1e20:	27bdff00 	addiu	sp,sp,-256
    1e24:	3c0c0000 	lui	t4,0x0
    1e28:	258c0000 	addiu	t4,t4,0
    1e2c:	8d860000 	lw	a2,0(t4)
    1e30:	afbf002c 	sw	ra,44(sp)
    1e34:	afb00028 	sw	s0,40(sp)
    1e38:	f7b60020 	sdc1	$f22,32(sp)
    1e3c:	f7b40018 	sdc1	$f20,24(sp)
    1e40:	8cd80008 	lw	t8,8(a2)
    1e44:	27ae00a0 	addiu	t6,sp,160
    1e48:	27b90094 	addiu	t9,sp,148
    1e4c:	add80000 	sw	t8,0(t6)
    1e50:	8ccf000c 	lw	t7,12(a2)
    1e54:	4480b000 	mtc1	zero,$f22
    1e58:	00808025 	move	s0,a0
    1e5c:	adcf0004 	sw	t7,4(t6)
    1e60:	8cd80010 	lw	t8,16(a2)
    1e64:	00004025 	move	t0,zero
    1e68:	27ab00b0 	addiu	t3,sp,176
    1e6c:	add80008 	sw	t8,8(t6)
    1e70:	8cce0014 	lw	t6,20(a2)
    1e74:	af2e0000 	sw	t6,0(t9)
    1e78:	8ccd0018 	lw	t5,24(a2)
    1e7c:	af2d0004 	sw	t5,4(t9)
    1e80:	8cce001c 	lw	t6,28(a2)
    1e84:	af2e0008 	sw	t6,8(t9)
    1e88:	8cc90030 	lw	t1,48(a2)
    1e8c:	8cc30034 	lw	v1,52(a2)
    1e90:	8d250024 	lw	a1,36(t1)
    1e94:	8d270014 	lw	a3,20(t1)
    1e98:	001078c0 	sll	t7,s0,0x3
    1e9c:	00af5021 	addu	t2,a1,t7
    1ea0:	95580000 	lhu	t8,0(t2)
    1ea4:	0018c900 	sll	t9,t8,0x4
    1ea8:	00f92021 	addu	a0,a3,t9
    1eac:	50640033 	beql	v1,a0,1f7c <func_80101400_ovl2+0x15c>
    1eb0:	95440002 	lhu	a0,2(t2)
    1eb4:	50600043 	beqzl	v1,1fc4 <func_80101400_ovl2+0x1a4>
    1eb8:	c4820000 	lwc1	$f2,0(a0)
    1ebc:	c4820000 	lwc1	$f2,0(a0)
    1ec0:	c4600000 	lwc1	$f0,0(v1)
    1ec4:	46001032 	c.eq.s	$f2,$f0
    1ec8:	00000000 	nop
    1ecc:	45020014 	bc1fl	1f20 <func_80101400_ovl2+0x100>
    1ed0:	c488000c 	lwc1	$f8,12(a0)
    1ed4:	c4840004 	lwc1	$f4,4(a0)
    1ed8:	c4660004 	lwc1	$f6,4(v1)
    1edc:	46062032 	c.eq.s	$f4,$f6
    1ee0:	00000000 	nop
    1ee4:	4502000e 	bc1fl	1f20 <func_80101400_ovl2+0x100>
    1ee8:	c488000c 	lwc1	$f8,12(a0)
    1eec:	c4880008 	lwc1	$f8,8(a0)
    1ef0:	c46a0008 	lwc1	$f10,8(v1)
    1ef4:	460a4032 	c.eq.s	$f8,$f10
    1ef8:	00000000 	nop
    1efc:	45020008 	bc1fl	1f20 <func_80101400_ovl2+0x100>
    1f00:	c488000c 	lwc1	$f8,12(a0)
    1f04:	c484000c 	lwc1	$f4,12(a0)
    1f08:	c466000c 	lwc1	$f6,12(v1)
    1f0c:	46062032 	c.eq.s	$f4,$f6
    1f10:	00000000 	nop
    1f14:	45030019 	bc1tl	1f7c <func_80101400_ovl2+0x15c>
    1f18:	95440002 	lhu	a0,2(t2)
    1f1c:	c488000c 	lwc1	$f8,12(a0)
    1f20:	c464000c 	lwc1	$f4,12(v1)
    1f24:	46004287 	neg.s	$f10,$f8
    1f28:	46045032 	c.eq.s	$f10,$f4
    1f2c:	00000000 	nop
    1f30:	45020024 	bc1fl	1fc4 <func_80101400_ovl2+0x1a4>
    1f34:	c4820000 	lwc1	$f2,0(a0)
    1f38:	c4680004 	lwc1	$f8,4(v1)
    1f3c:	c48a0004 	lwc1	$f10,4(a0)
    1f40:	3c01bf80 	lui	at,0xbf80
    1f44:	44813000 	mtc1	at,$f6
    1f48:	460a4102 	mul.s	$f4,$f8,$f10
    1f4c:	00000000 	nop
    1f50:	46020202 	mul.s	$f8,$f0,$f2
    1f54:	46044280 	add.s	$f10,$f8,$f4
    1f58:	c4840008 	lwc1	$f4,8(a0)
    1f5c:	c4680008 	lwc1	$f8,8(v1)
    1f60:	46044202 	mul.s	$f8,$f8,$f4
    1f64:	46085100 	add.s	$f4,$f10,$f8
    1f68:	46043032 	c.eq.s	$f6,$f4
    1f6c:	00000000 	nop
    1f70:	45000013 	bc1f	1fc0 <func_80101400_ovl2+0x1a0>
    1f74:	00000000 	nop
    1f78:	95440002 	lhu	a0,2(t2)
    1f7c:	95420004 	lhu	v0,4(t2)
    1f80:	1080000b 	beqz	a0,1fb0 <func_80101400_ovl2+0x190>
    1f84:	00000000 	nop
    1f88:	10400007 	beqz	v0,1fa8 <func_80101400_ovl2+0x188>
    1f8c:	00086840 	sll	t5,t0,0x1
    1f90:	016d7021 	addu	t6,t3,t5
    1f94:	a5c20000 	sh	v0,0(t6)
    1f98:	8cc30034 	lw	v1,52(a2)
    1f9c:	8d270014 	lw	a3,20(t1)
    1fa0:	8d250024 	lw	a1,36(t1)
    1fa4:	25080001 	addiu	t0,t0,1
    1fa8:	1000ffbb 	b	1e98 <func_80101400_ovl2+0x78>
    1fac:	00808025 	move	s0,a0
    1fb0:	104000d3 	beqz	v0,2300 <func_80101400_ovl2+0x4e0>
    1fb4:	00000000 	nop
    1fb8:	1000ffb7 	b	1e98 <func_80101400_ovl2+0x78>
    1fbc:	00408025 	move	s0,v0
    1fc0:	c4820000 	lwc1	$f2,0(a0)
    1fc4:	c7aa00a0 	lwc1	$f10,160(sp)
    1fc8:	c48c0004 	lwc1	$f12,4(a0)
    1fcc:	c7a600a4 	lwc1	$f6,164(sp)
    1fd0:	460a1202 	mul.s	$f8,$f2,$f10
    1fd4:	c48e0008 	lwc1	$f14,8(a0)
    1fd8:	c490000c 	lwc1	$f16,12(a0)
    1fdc:	46066102 	mul.s	$f4,$f12,$f6
    1fe0:	c7a600a8 	lwc1	$f6,168(sp)
    1fe4:	00002825 	move	a1,zero
    1fe8:	00003825 	move	a3,zero
    1fec:	00001825 	move	v1,zero
    1ff0:	00001025 	move	v0,zero
    1ff4:	46044280 	add.s	$f10,$f8,$f4
    1ff8:	46067202 	mul.s	$f8,$f14,$f6
    1ffc:	c7a60094 	lwc1	$f6,148(sp)
    2000:	46085100 	add.s	$f4,$f10,$f8
    2004:	46061282 	mul.s	$f10,$f2,$f6
    2008:	c7a80098 	lwc1	$f8,152(sp)
    200c:	46102480 	add.s	$f18,$f4,$f16
    2010:	46086102 	mul.s	$f4,$f12,$f8
    2014:	c7a8009c 	lwc1	$f8,156(sp)
    2018:	4612b03c 	c.lt.s	$f22,$f18
    201c:	46045180 	add.s	$f6,$f10,$f4
    2020:	46087282 	mul.s	$f10,$f14,$f8
    2024:	460a3100 	add.s	$f4,$f6,$f10
    2028:	45000003 	bc1f	2038 <func_80101400_ovl2+0x218>
    202c:	46102500 	add.s	$f20,$f4,$f16
    2030:	10000001 	b	2038 <func_80101400_ovl2+0x218>
    2034:	24050001 	li	a1,1
    2038:	4614b03c 	c.lt.s	$f22,$f20
    203c:	00000000 	nop
    2040:	45000003 	bc1f	2050 <func_80101400_ovl2+0x230>
    2044:	00000000 	nop
    2048:	10000001 	b	2050 <func_80101400_ovl2+0x230>
    204c:	24070001 	li	a3,1
    2050:	46169032 	c.eq.s	$f18,$f22
    2054:	00000000 	nop
    2058:	45010003 	bc1t	2068 <func_80101400_ovl2+0x248>
    205c:	00000000 	nop
    2060:	10000001 	b	2068 <func_80101400_ovl2+0x248>
    2064:	24030001 	li	v1,1
    2068:	4616a032 	c.eq.s	$f20,$f22
    206c:	00000000 	nop
    2070:	45010003 	bc1t	2080 <func_80101400_ovl2+0x260>
    2074:	00000000 	nop
    2078:	10000001 	b	2080 <func_80101400_ovl2+0x260>
    207c:	24020001 	li	v0,1
    2080:	54a70004 	bnel	a1,a3,2094 <func_80101400_ovl2+0x274>
    2084:	8cc20038 	lw	v0,56(a2)
    2088:	1062007e 	beq	v1,v0,2284 <func_80101400_ovl2+0x464>
    208c:	00000000 	nop
    2090:	8cc20038 	lw	v0,56(a2)
    2094:	1044007b 	beq	v0,a0,2284 <func_80101400_ovl2+0x464>
    2098:	00000000 	nop
    209c:	50400029 	beqzl	v0,2144 <func_80101400_ovl2+0x324>
    20a0:	afa40088 	sw	a0,136(sp)
    20a4:	c4400000 	lwc1	$f0,0(v0)
    20a8:	46001032 	c.eq.s	$f2,$f0
    20ac:	00000000 	nop
    20b0:	45020011 	bc1fl	20f8 <func_80101400_ovl2+0x2d8>
    20b4:	c448000c 	lwc1	$f8,12(v0)
    20b8:	c4480004 	lwc1	$f8,4(v0)
    20bc:	46086032 	c.eq.s	$f12,$f8
    20c0:	00000000 	nop
    20c4:	4502000c 	bc1fl	20f8 <func_80101400_ovl2+0x2d8>
    20c8:	c448000c 	lwc1	$f8,12(v0)
    20cc:	c4460008 	lwc1	$f6,8(v0)
    20d0:	46067032 	c.eq.s	$f14,$f6
    20d4:	00000000 	nop
    20d8:	45020007 	bc1fl	20f8 <func_80101400_ovl2+0x2d8>
    20dc:	c448000c 	lwc1	$f8,12(v0)
    20e0:	c44a000c 	lwc1	$f10,12(v0)
    20e4:	460a8032 	c.eq.s	$f16,$f10
    20e8:	00000000 	nop
    20ec:	45010065 	bc1t	2284 <func_80101400_ovl2+0x464>
    20f0:	00000000 	nop
    20f4:	c448000c 	lwc1	$f8,12(v0)
    20f8:	46008107 	neg.s	$f4,$f16
    20fc:	46082032 	c.eq.s	$f4,$f8
    2100:	00000000 	nop
    2104:	4502000f 	bc1fl	2144 <func_80101400_ovl2+0x324>
    2108:	afa40088 	sw	a0,136(sp)
    210c:	46020282 	mul.s	$f10,$f0,$f2
    2110:	c4440004 	lwc1	$f4,4(v0)
    2114:	3c01bf80 	lui	at,0xbf80
    2118:	44813000 	mtc1	at,$f6
    211c:	460c2202 	mul.s	$f8,$f4,$f12
    2120:	46085100 	add.s	$f4,$f10,$f8
    2124:	c44a0008 	lwc1	$f10,8(v0)
    2128:	460e5202 	mul.s	$f8,$f10,$f14
    212c:	46082280 	add.s	$f10,$f4,$f8
    2130:	460a3032 	c.eq.s	$f6,$f10
    2134:	00000000 	nop
    2138:	45010052 	bc1t	2284 <func_80101400_ovl2+0x464>
    213c:	00000000 	nop
    2140:	afa40088 	sw	a0,136(sp)
    2144:	afa50070 	sw	a1,112(sp)
    2148:	afa7006c 	sw	a3,108(sp)
    214c:	afa800ac 	sw	t0,172(sp)
    2150:	afa90090 	sw	t1,144(sp)
    2154:	afaa008c 	sw	t2,140(sp)
    2158:	e7b20078 	swc1	$f18,120(sp)
    215c:	8cd90044 	lw	t9,68(a2)
    2160:	0320f809 	jalr	t9
    2164:	00000000 	nop
    2168:	3c0c0000 	lui	t4,0x0
    216c:	258c0000 	addiu	t4,t4,0
    2170:	8fa40088 	lw	a0,136(sp)
    2174:	8fa50070 	lw	a1,112(sp)
    2178:	8fa7006c 	lw	a3,108(sp)
    217c:	8fa800ac 	lw	t0,172(sp)
    2180:	8fa90090 	lw	t1,144(sp)
    2184:	8faa008c 	lw	t2,140(sp)
    2188:	27ab00b0 	addiu	t3,sp,176
    218c:	1040003d 	beqz	v0,2284 <func_80101400_ovl2+0x464>
    2190:	c7b20078 	lwc1	$f18,120(sp)
    2194:	8d860000 	lw	a2,0(t4)
    2198:	c4840000 	lwc1	$f4,0(a0)
    219c:	c48a0004 	lwc1	$f10,4(a0)
    21a0:	c4c80020 	lwc1	$f8,32(a2)
    21a4:	8cd80000 	lw	t8,0(a2)
    21a8:	8ccf0004 	lw	t7,4(a2)
    21ac:	46082182 	mul.s	$f6,$f4,$f8
    21b0:	c4c40024 	lwc1	$f4,36(a2)
    21b4:	001868c0 	sll	t5,t8,0x3
    21b8:	3c010000 	lui	at,0x0
    21bc:	46045202 	mul.s	$f8,$f10,$f4
    21c0:	c4840008 	lwc1	$f4,8(a0)
    21c4:	01ed1021 	addu	v0,t7,t5
    21c8:	46083280 	add.s	$f10,$f6,$f8
    21cc:	c4c60028 	lwc1	$f6,40(a2)
    21d0:	46062202 	mul.s	$f8,$f4,$f6
    21d4:	46085000 	add.s	$f0,$f10,$f8
    21d8:	4616003c 	c.lt.s	$f0,$f22
    21dc:	00000000 	nop
    21e0:	45020004 	bc1fl	21f4 <func_80101400_ovl2+0x3d4>
    21e4:	46000086 	mov.s	$f2,$f0
    21e8:	10000002 	b	21f4 <func_80101400_ovl2+0x3d4>
    21ec:	46000087 	neg.s	$f2,$f0
    21f0:	46000086 	mov.s	$f2,$f0
    21f4:	c4240000 	lwc1	$f4,0(at)
    21f8:	4604103c 	c.lt.s	$f2,$f4
    21fc:	00000000 	nop
    2200:	45020019 	bc1fl	2268 <func_80101400_ovl2+0x448>
    2204:	46009283 	div.s	$f10,$f18,$f0
    2208:	4616903c 	c.lt.s	$f18,$f22
    220c:	3c013f80 	lui	at,0x3f80
    2210:	45020004 	bc1fl	2224 <func_80101400_ovl2+0x404>
    2214:	46009006 	mov.s	$f0,$f18
    2218:	10000002 	b	2224 <func_80101400_ovl2+0x404>
    221c:	46009007 	neg.s	$f0,$f18
    2220:	46009006 	mov.s	$f0,$f18
    2224:	4616a03c 	c.lt.s	$f20,$f22
    2228:	00000000 	nop
    222c:	45020004 	bc1fl	2240 <func_80101400_ovl2+0x420>
    2230:	4600a086 	mov.s	$f2,$f20
    2234:	10000002 	b	2240 <func_80101400_ovl2+0x420>
    2238:	4600a087 	neg.s	$f2,$f20
    223c:	4600a086 	mov.s	$f2,$f20
    2240:	4602003c 	c.lt.s	$f0,$f2
    2244:	00000000 	nop
    2248:	45020004 	bc1fl	225c <func_80101400_ovl2+0x43c>
    224c:	44813000 	mtc1	at,$f6
    2250:	10000007 	b	2270 <func_80101400_ovl2+0x450>
    2254:	e4560004 	swc1	$f22,4(v0)
    2258:	44813000 	mtc1	at,$f6
    225c:	10000004 	b	2270 <func_80101400_ovl2+0x450>
    2260:	e4460004 	swc1	$f6,4(v0)
    2264:	46009283 	div.s	$f10,$f18,$f0
    2268:	46005207 	neg.s	$f8,$f10
    226c:	e4480004 	swc1	$f8,4(v0)
    2270:	a4500000 	sh	s0,0(v0)
    2274:	8d860000 	lw	a2,0(t4)
    2278:	8cce0000 	lw	t6,0(a2)
    227c:	25d90001 	addiu	t9,t6,1
    2280:	acd90000 	sw	t9,0(a2)
    2284:	14a00003 	bnez	a1,2294 <func_80101400_ovl2+0x474>
    2288:	00000000 	nop
    228c:	10e00003 	beqz	a3,229c <func_80101400_ovl2+0x47c>
    2290:	00002025 	move	a0,zero
    2294:	10000001 	b	229c <func_80101400_ovl2+0x47c>
    2298:	95440002 	lhu	a0,2(t2)
    229c:	10a00003 	beqz	a1,22ac <func_80101400_ovl2+0x48c>
    22a0:	00808025 	move	s0,a0
    22a4:	14e00003 	bnez	a3,22b4 <func_80101400_ovl2+0x494>
    22a8:	00001025 	move	v0,zero
    22ac:	10000001 	b	22b4 <func_80101400_ovl2+0x494>
    22b0:	95420004 	lhu	v0,4(t2)
    22b4:	1080000b 	beqz	a0,22e4 <func_80101400_ovl2+0x4c4>
    22b8:	00000000 	nop
    22bc:	10400005 	beqz	v0,22d4 <func_80101400_ovl2+0x4b4>
    22c0:	8d860000 	lw	a2,0(t4)
    22c4:	0008c040 	sll	t8,t0,0x1
    22c8:	01787821 	addu	t7,t3,t8
    22cc:	a5e20000 	sh	v0,0(t7)
    22d0:	25080001 	addiu	t0,t0,1
    22d4:	8d250024 	lw	a1,36(t1)
    22d8:	8d270014 	lw	a3,20(t1)
    22dc:	1000feee 	b	1e98 <func_80101400_ovl2+0x78>
    22e0:	8cc30034 	lw	v1,52(a2)
    22e4:	10400006 	beqz	v0,2300 <func_80101400_ovl2+0x4e0>
    22e8:	00408025 	move	s0,v0
    22ec:	8d860000 	lw	a2,0(t4)
    22f0:	8d250024 	lw	a1,36(t1)
    22f4:	8d270014 	lw	a3,20(t1)
    22f8:	1000fee7 	b	1e98 <func_80101400_ovl2+0x78>
    22fc:	8cc30034 	lw	v1,52(a2)
    2300:	11000009 	beqz	t0,2328 <func_80101400_ovl2+0x508>
    2304:	00086840 	sll	t5,t0,0x1
    2308:	8d860000 	lw	a2,0(t4)
    230c:	016d7021 	addu	t6,t3,t5
    2310:	95d0fffe 	lhu	s0,-2(t6)
    2314:	2508ffff 	addiu	t0,t0,-1
    2318:	8d250024 	lw	a1,36(t1)
    231c:	8d270014 	lw	a3,20(t1)
    2320:	1000fedd 	b	1e98 <func_80101400_ovl2+0x78>
    2324:	8cc30034 	lw	v1,52(a2)
    2328:	8fbf002c 	lw	ra,44(sp)
    232c:	d7b40018 	ldc1	$f20,24(sp)
    2330:	d7b60020 	ldc1	$f22,32(sp)
    2334:	8fb00028 	lw	s0,40(sp)
    2338:	03e00008 	jr	ra
    233c:	27bd0100 	addiu	sp,sp,256

00002340 <func_80101920>:
func_80101920():
    2340:	94820008 	lhu	v0,8(a0)
    2344:	304e0008 	andi	t6,v0,0x8
    2348:	15c0009a 	bnez	t6,25b4 <func_80101920+0x274>
    234c:	304f0004 	andi	t7,v0,0x4
    2350:	11e00007 	beqz	t7,2370 <func_80101920+0x30>
    2354:	3c180000 	lui	t8,0x0
    2358:	8f180000 	lw	t8,0(t8)
    235c:	0018cfc2 	srl	t9,t8,0x1f
    2360:	57200004 	bnezl	t9,2374 <func_80101920+0x34>
    2364:	30420003 	andi	v0,v0,0x3
    2368:	03e00008 	jr	ra
    236c:	00001025 	move	v0,zero
    2370:	30420003 	andi	v0,v0,0x3
    2374:	1040008f 	beqz	v0,25b4 <func_80101920+0x274>
    2378:	24010003 	li	at,3
    237c:	14410037 	bne	v0,at,245c <func_80101920+0x11c>
    2380:	30480001 	andi	t0,v0,0x1
    2384:	10e00033 	beqz	a3,2454 <func_80101920+0x114>
    2388:	00000000 	nop
    238c:	10c00031 	beqz	a2,2454 <func_80101920+0x114>
    2390:	00000000 	nop
    2394:	c4a00000 	lwc1	$f0,0(a1)
    2398:	c4e40000 	lwc1	$f4,0(a3)
    239c:	c4a20004 	lwc1	$f2,4(a1)
    23a0:	c4e80004 	lwc1	$f8,4(a3)
    23a4:	46040182 	mul.s	$f6,$f0,$f4
    23a8:	c4ac0008 	lwc1	$f12,8(a1)
    23ac:	c4f20008 	lwc1	$f18,8(a3)
    23b0:	46081282 	mul.s	$f10,$f2,$f8
    23b4:	44807000 	mtc1	zero,$f14
    23b8:	46126102 	mul.s	$f4,$f12,$f18
    23bc:	460a3400 	add.s	$f16,$f6,$f10
    23c0:	46048200 	add.s	$f8,$f16,$f4
    23c4:	4608703c 	c.lt.s	$f14,$f8
    23c8:	00000000 	nop
    23cc:	45020013 	bc1fl	241c <func_80101920+0xdc>
    23d0:	c4c80000 	lwc1	$f8,0(a2)
    23d4:	c4ca0000 	lwc1	$f10,0(a2)
    23d8:	46000187 	neg.s	$f6,$f0
    23dc:	c4c40004 	lwc1	$f4,4(a2)
    23e0:	460a3482 	mul.s	$f18,$f6,$f10
    23e4:	46001407 	neg.s	$f16,$f2
    23e8:	46006287 	neg.s	$f10,$f12
    23ec:	46048202 	mul.s	$f8,$f16,$f4
    23f0:	c4d00008 	lwc1	$f16,8(a2)
    23f4:	46105102 	mul.s	$f4,$f10,$f16
    23f8:	46089180 	add.s	$f6,$f18,$f8
    23fc:	46043480 	add.s	$f18,$f6,$f4
    2400:	4612703c 	c.lt.s	$f14,$f18
    2404:	00000000 	nop
    2408:	45000012 	bc1f	2454 <func_80101920+0x114>
    240c:	00000000 	nop
    2410:	03e00008 	jr	ra
    2414:	00001025 	move	v0,zero
    2418:	c4c80000 	lwc1	$f8,0(a2)
    241c:	c4d00004 	lwc1	$f16,4(a2)
    2420:	c4d20008 	lwc1	$f18,8(a2)
    2424:	46080282 	mul.s	$f10,$f0,$f8
    2428:	00000000 	nop
    242c:	46101182 	mul.s	$f6,$f2,$f16
    2430:	46065100 	add.s	$f4,$f10,$f6
    2434:	46126202 	mul.s	$f8,$f12,$f18
    2438:	46082400 	add.s	$f16,$f4,$f8
    243c:	4610703c 	c.lt.s	$f14,$f16
    2440:	00000000 	nop
    2444:	45000003 	bc1f	2454 <func_80101920+0x114>
    2448:	00000000 	nop
    244c:	03e00008 	jr	ra
    2450:	00001025 	move	v0,zero
    2454:	03e00008 	jr	ra
    2458:	24020001 	li	v0,1
    245c:	11000027 	beqz	t0,24fc <func_80101920+0x1bc>
    2460:	00000000 	nop
    2464:	50c00012 	beqzl	a2,24b0 <func_80101920+0x170>
    2468:	44807000 	mtc1	zero,$f14
    246c:	c4aa0000 	lwc1	$f10,0(a1)
    2470:	c4c60000 	lwc1	$f6,0(a2)
    2474:	c4a40004 	lwc1	$f4,4(a1)
    2478:	c4c80004 	lwc1	$f8,4(a2)
    247c:	46065482 	mul.s	$f18,$f10,$f6
    2480:	c4a60008 	lwc1	$f6,8(a1)
    2484:	44807000 	mtc1	zero,$f14
    2488:	46082402 	mul.s	$f16,$f4,$f8
    248c:	c4c40008 	lwc1	$f4,8(a2)
    2490:	46043202 	mul.s	$f8,$f6,$f4
    2494:	46109280 	add.s	$f10,$f18,$f16
    2498:	46085480 	add.s	$f18,$f10,$f8
    249c:	4612703c 	c.lt.s	$f14,$f18
    24a0:	00000000 	nop
    24a4:	45010013 	bc1t	24f4 <func_80101920+0x1b4>
    24a8:	00000000 	nop
    24ac:	44807000 	mtc1	zero,$f14
    24b0:	10e0003e 	beqz	a3,25ac <func_80101920+0x26c>
    24b4:	00000000 	nop
    24b8:	c4b00000 	lwc1	$f16,0(a1)
    24bc:	c4e60000 	lwc1	$f6,0(a3)
    24c0:	c4aa0004 	lwc1	$f10,4(a1)
    24c4:	c4e80004 	lwc1	$f8,4(a3)
    24c8:	46068102 	mul.s	$f4,$f16,$f6
    24cc:	c4a60008 	lwc1	$f6,8(a1)
    24d0:	46085482 	mul.s	$f18,$f10,$f8
    24d4:	c4ea0008 	lwc1	$f10,8(a3)
    24d8:	460a3202 	mul.s	$f8,$f6,$f10
    24dc:	46122400 	add.s	$f16,$f4,$f18
    24e0:	46088100 	add.s	$f4,$f16,$f8
    24e4:	4604703c 	c.lt.s	$f14,$f4
    24e8:	00000000 	nop
    24ec:	4500002f 	bc1f	25ac <func_80101920+0x26c>
    24f0:	00000000 	nop
    24f4:	03e00008 	jr	ra
    24f8:	00001025 	move	v0,zero
    24fc:	50c00015 	beqzl	a2,2554 <func_80101920+0x214>
    2500:	44807000 	mtc1	zero,$f14
    2504:	c4b20000 	lwc1	$f18,0(a1)
    2508:	c4ca0000 	lwc1	$f10,0(a2)
    250c:	c4a80004 	lwc1	$f8,4(a1)
    2510:	46009187 	neg.s	$f6,$f18
    2514:	c4d20004 	lwc1	$f18,4(a2)
    2518:	460a3402 	mul.s	$f16,$f6,$f10
    251c:	46004107 	neg.s	$f4,$f8
    2520:	c4a80008 	lwc1	$f8,8(a1)
    2524:	46122182 	mul.s	$f6,$f4,$f18
    2528:	c4d20008 	lwc1	$f18,8(a2)
    252c:	44807000 	mtc1	zero,$f14
    2530:	46004107 	neg.s	$f4,$f8
    2534:	46068280 	add.s	$f10,$f16,$f6
    2538:	46122402 	mul.s	$f16,$f4,$f18
    253c:	46105180 	add.s	$f6,$f10,$f16
    2540:	4606703c 	c.lt.s	$f14,$f6
    2544:	00000000 	nop
    2548:	45010016 	bc1t	25a4 <func_80101920+0x264>
    254c:	00000000 	nop
    2550:	44807000 	mtc1	zero,$f14
    2554:	10e00015 	beqz	a3,25ac <func_80101920+0x26c>
    2558:	00000000 	nop
    255c:	c4a80000 	lwc1	$f8,0(a1)
    2560:	c4f20000 	lwc1	$f18,0(a3)
    2564:	c4b00004 	lwc1	$f16,4(a1)
    2568:	46004107 	neg.s	$f4,$f8
    256c:	c4e80004 	lwc1	$f8,4(a3)
    2570:	46122282 	mul.s	$f10,$f4,$f18
    2574:	46008187 	neg.s	$f6,$f16
    2578:	c4b00008 	lwc1	$f16,8(a1)
    257c:	46083102 	mul.s	$f4,$f6,$f8
    2580:	c4e80008 	lwc1	$f8,8(a3)
    2584:	46008187 	neg.s	$f6,$f16
    2588:	46045480 	add.s	$f18,$f10,$f4
    258c:	46083282 	mul.s	$f10,$f6,$f8
    2590:	460a9100 	add.s	$f4,$f18,$f10
    2594:	4604703c 	c.lt.s	$f14,$f4
    2598:	00000000 	nop
    259c:	45000003 	bc1f	25ac <func_80101920+0x26c>
    25a0:	00000000 	nop
    25a4:	03e00008 	jr	ra
    25a8:	00001025 	move	v0,zero
    25ac:	03e00008 	jr	ra
    25b0:	24020001 	li	v0,1
    25b4:	00001025 	move	v0,zero
    25b8:	03e00008 	jr	ra
    25bc:	00000000 	nop

000025c0 <func_80101BA0_ovl2>:
func_80101BA0_ovl2():
    25c0:	94820008 	lhu	v0,8(a0)
    25c4:	304e0008 	andi	t6,v0,0x8
    25c8:	15c00066 	bnez	t6,2764 <func_80101BA0_ovl2+0x1a4>
    25cc:	304f0004 	andi	t7,v0,0x4
    25d0:	11e00007 	beqz	t7,25f0 <func_80101BA0_ovl2+0x30>
    25d4:	3c180000 	lui	t8,0x0
    25d8:	8f180000 	lw	t8,0(t8)
    25dc:	0018cfc2 	srl	t9,t8,0x1f
    25e0:	57200004 	bnezl	t9,25f4 <func_80101BA0_ovl2+0x34>
    25e4:	30420003 	andi	v0,v0,0x3
    25e8:	03e00008 	jr	ra
    25ec:	00001025 	move	v0,zero
    25f0:	30420003 	andi	v0,v0,0x3
    25f4:	1040005b 	beqz	v0,2764 <func_80101BA0_ovl2+0x1a4>
    25f8:	24010003 	li	at,3
    25fc:	14410003 	bne	v0,at,260c <func_80101BA0_ovl2+0x4c>
    2600:	30480001 	andi	t0,v0,0x1
    2604:	03e00008 	jr	ra
    2608:	00001025 	move	v0,zero
    260c:	11000027 	beqz	t0,26ac <func_80101BA0_ovl2+0xec>
    2610:	00000000 	nop
    2614:	10c00011 	beqz	a2,265c <func_80101BA0_ovl2+0x9c>
    2618:	00000000 	nop
    261c:	c4a60000 	lwc1	$f6,0(a1)
    2620:	c4c80000 	lwc1	$f8,0(a2)
    2624:	c4b00004 	lwc1	$f16,4(a1)
    2628:	c4d20004 	lwc1	$f18,4(a2)
    262c:	46083282 	mul.s	$f10,$f6,$f8
    2630:	44802000 	mtc1	zero,$f4
    2634:	46128182 	mul.s	$f6,$f16,$f18
    2638:	c4d20008 	lwc1	$f18,8(a2)
    263c:	c4b00008 	lwc1	$f16,8(a1)
    2640:	46065200 	add.s	$f8,$f10,$f6
    2644:	46128282 	mul.s	$f10,$f16,$f18
    2648:	460a4180 	add.s	$f6,$f8,$f10
    264c:	4606203c 	c.lt.s	$f4,$f6
    2650:	00000000 	nop
    2654:	45010013 	bc1t	26a4 <func_80101BA0_ovl2+0xe4>
    2658:	00000000 	nop
    265c:	10e0003f 	beqz	a3,275c <func_80101BA0_ovl2+0x19c>
    2660:	00000000 	nop
    2664:	c4b20000 	lwc1	$f18,0(a1)
    2668:	c4e80000 	lwc1	$f8,0(a3)
    266c:	c4a40004 	lwc1	$f4,4(a1)
    2670:	c4e60004 	lwc1	$f6,4(a3)
    2674:	46089282 	mul.s	$f10,$f18,$f8
    2678:	44808000 	mtc1	zero,$f16
    267c:	46062482 	mul.s	$f18,$f4,$f6
    2680:	c4e60008 	lwc1	$f6,8(a3)
    2684:	c4a40008 	lwc1	$f4,8(a1)
    2688:	46125200 	add.s	$f8,$f10,$f18
    268c:	46062282 	mul.s	$f10,$f4,$f6
    2690:	460a4480 	add.s	$f18,$f8,$f10
    2694:	4612803c 	c.lt.s	$f16,$f18
    2698:	00000000 	nop
    269c:	4500002f 	bc1f	275c <func_80101BA0_ovl2+0x19c>
    26a0:	00000000 	nop
    26a4:	03e00008 	jr	ra
    26a8:	00001025 	move	v0,zero
    26ac:	10c00014 	beqz	a2,2700 <func_80101BA0_ovl2+0x140>
    26b0:	00000000 	nop
    26b4:	c4a60000 	lwc1	$f6,0(a1)
    26b8:	c4ca0000 	lwc1	$f10,0(a2)
    26bc:	c4b20004 	lwc1	$f18,4(a1)
    26c0:	46003207 	neg.s	$f8,$f6
    26c4:	44802000 	mtc1	zero,$f4
    26c8:	460a4402 	mul.s	$f16,$f8,$f10
    26cc:	c4c80004 	lwc1	$f8,4(a2)
    26d0:	46009187 	neg.s	$f6,$f18
    26d4:	46083282 	mul.s	$f10,$f6,$f8
    26d8:	c4a60008 	lwc1	$f6,8(a1)
    26dc:	46003207 	neg.s	$f8,$f6
    26e0:	460a8480 	add.s	$f18,$f16,$f10
    26e4:	c4d00008 	lwc1	$f16,8(a2)
    26e8:	46104282 	mul.s	$f10,$f8,$f16
    26ec:	460a9180 	add.s	$f6,$f18,$f10
    26f0:	4606203c 	c.lt.s	$f4,$f6
    26f4:	00000000 	nop
    26f8:	45010016 	bc1t	2754 <func_80101BA0_ovl2+0x194>
    26fc:	00000000 	nop
    2700:	10e00016 	beqz	a3,275c <func_80101BA0_ovl2+0x19c>
    2704:	00000000 	nop
    2708:	c4b00000 	lwc1	$f16,0(a1)
    270c:	c4ea0000 	lwc1	$f10,0(a3)
    2710:	c4a60004 	lwc1	$f6,4(a1)
    2714:	46008487 	neg.s	$f18,$f16
    2718:	44804000 	mtc1	zero,$f8
    271c:	460a9102 	mul.s	$f4,$f18,$f10
    2720:	c4f20004 	lwc1	$f18,4(a3)
    2724:	46003407 	neg.s	$f16,$f6
    2728:	46128282 	mul.s	$f10,$f16,$f18
    272c:	c4b00008 	lwc1	$f16,8(a1)
    2730:	46008487 	neg.s	$f18,$f16
    2734:	460a2180 	add.s	$f6,$f4,$f10
    2738:	c4e40008 	lwc1	$f4,8(a3)
    273c:	46049282 	mul.s	$f10,$f18,$f4
    2740:	460a3400 	add.s	$f16,$f6,$f10
    2744:	4610403c 	c.lt.s	$f8,$f16
    2748:	00000000 	nop
    274c:	45000003 	bc1f	275c <func_80101BA0_ovl2+0x19c>
    2750:	00000000 	nop
    2754:	03e00008 	jr	ra
    2758:	00001025 	move	v0,zero
    275c:	03e00008 	jr	ra
    2760:	24020001 	li	v0,1
    2764:	00001025 	move	v0,zero
    2768:	03e00008 	jr	ra
    276c:	00000000 	nop

00002770 <func_80101D50_ovl2>:
func_80101D50_ovl2():
    2770:	afa50004 	sw	a1,4(sp)
    2774:	afa60008 	sw	a2,8(sp)
    2778:	afa7000c 	sw	a3,12(sp)
    277c:	94820008 	lhu	v0,8(a0)
    2780:	304e0008 	andi	t6,v0,0x8
    2784:	15c0000d 	bnez	t6,27bc <func_80101D50_ovl2+0x4c>
    2788:	304f0003 	andi	t7,v0,0x3
    278c:	11e0000b 	beqz	t7,27bc <func_80101D50_ovl2+0x4c>
    2790:	30580004 	andi	t8,v0,0x4
    2794:	13000007 	beqz	t8,27b4 <func_80101D50_ovl2+0x44>
    2798:	3c190000 	lui	t9,0x0
    279c:	8f390000 	lw	t9,0(t9)
    27a0:	001947c2 	srl	t0,t9,0x1f
    27a4:	15000003 	bnez	t0,27b4 <func_80101D50_ovl2+0x44>
    27a8:	00000000 	nop
    27ac:	03e00008 	jr	ra
    27b0:	00001025 	move	v0,zero
    27b4:	03e00008 	jr	ra
    27b8:	24020001 	li	v0,1
    27bc:	00001025 	move	v0,zero
    27c0:	03e00008 	jr	ra
    27c4:	00000000 	nop

000027c8 <func_80101DA8_ovl2>:
func_80101DA8_ovl2():
    27c8:	afa50004 	sw	a1,4(sp)
    27cc:	afa60008 	sw	a2,8(sp)
    27d0:	afa7000c 	sw	a3,12(sp)
    27d4:	94820008 	lhu	v0,8(a0)
    27d8:	304e0008 	andi	t6,v0,0x8
    27dc:	15c0000d 	bnez	t6,2814 <func_80101DA8_ovl2+0x4c>
    27e0:	304f0003 	andi	t7,v0,0x3
    27e4:	11e00010 	beqz	t7,2828 <func_80101DA8_ovl2+0x60>
    27e8:	30580004 	andi	t8,v0,0x4
    27ec:	13000007 	beqz	t8,280c <func_80101DA8_ovl2+0x44>
    27f0:	3c190000 	lui	t9,0x0
    27f4:	8f390000 	lw	t9,0(t9)
    27f8:	001947c2 	srl	t0,t9,0x1f
    27fc:	15000003 	bnez	t0,280c <func_80101DA8_ovl2+0x44>
    2800:	00000000 	nop
    2804:	03e00008 	jr	ra
    2808:	00001025 	move	v0,zero
    280c:	03e00008 	jr	ra
    2810:	24020001 	li	v0,1
    2814:	94890012 	lhu	t1,18(a0)
    2818:	55200004 	bnezl	t1,282c <func_80101DA8_ovl2+0x64>
    281c:	00001025 	move	v0,zero
    2820:	03e00008 	jr	ra
    2824:	24020001 	li	v0,1
    2828:	00001025 	move	v0,zero
    282c:	03e00008 	jr	ra
    2830:	00000000 	nop

00002834 <func_80101E14_ovl2>:
func_80101E14_ovl2():
    2834:	27bdffd8 	addiu	sp,sp,-40
    2838:	afbf0014 	sw	ra,20(sp)
    283c:	afa5002c 	sw	a1,44(sp)
    2840:	c4a40000 	lwc1	$f4,0(a1)
    2844:	46002187 	neg.s	$f6,$f4
    2848:	e7a60018 	swc1	$f6,24(sp)
    284c:	c4a80004 	lwc1	$f8,4(a1)
    2850:	46004287 	neg.s	$f10,$f8
    2854:	e7aa001c 	swc1	$f10,28(sp)
    2858:	c4b00008 	lwc1	$f16,8(a1)
    285c:	27a50018 	addiu	a1,sp,24
    2860:	46008487 	neg.s	$f18,$f16
    2864:	0c000000 	jal	0 <func_800FF5E0_ovl2>
    2868:	e7b20020 	swc1	$f18,32(sp)
    286c:	8fbf0014 	lw	ra,20(sp)
    2870:	27bd0028 	addiu	sp,sp,40
    2874:	03e00008 	jr	ra
    2878:	00000000 	nop

0000287c <func_80101E5C_ovl2>:
func_80101E5C_ovl2():
    287c:	afa7000c 	sw	a3,12(sp)
    2880:	94820008 	lhu	v0,8(a0)
    2884:	304e0008 	andi	t6,v0,0x8
    2888:	51c00036 	beqzl	t6,2964 <func_80101E5C_ovl2+0xe8>
    288c:	00001025 	move	v0,zero
    2890:	948f0012 	lhu	t7,18(a0)
    2894:	2401000c 	li	at,12
    2898:	30580001 	andi	t8,v0,0x1
    289c:	55e10031 	bnel	t7,at,2964 <func_80101E5C_ovl2+0xe8>
    28a0:	00001025 	move	v0,zero
    28a4:	13000015 	beqz	t8,28fc <func_80101E5C_ovl2+0x80>
    28a8:	00000000 	nop
    28ac:	10c0002a 	beqz	a2,2958 <func_80101E5C_ovl2+0xdc>
    28b0:	00000000 	nop
    28b4:	c4a60000 	lwc1	$f6,0(a1)
    28b8:	c4c80000 	lwc1	$f8,0(a2)
    28bc:	c4b00004 	lwc1	$f16,4(a1)
    28c0:	c4d20004 	lwc1	$f18,4(a2)
    28c4:	46083282 	mul.s	$f10,$f6,$f8
    28c8:	44802000 	mtc1	zero,$f4
    28cc:	46128182 	mul.s	$f6,$f16,$f18
    28d0:	c4d20008 	lwc1	$f18,8(a2)
    28d4:	c4b00008 	lwc1	$f16,8(a1)
    28d8:	46065200 	add.s	$f8,$f10,$f6
    28dc:	46128282 	mul.s	$f10,$f16,$f18
    28e0:	460a4180 	add.s	$f6,$f8,$f10
    28e4:	4606203c 	c.lt.s	$f4,$f6
    28e8:	00000000 	nop
    28ec:	4500001a 	bc1f	2958 <func_80101E5C_ovl2+0xdc>
    28f0:	00000000 	nop
    28f4:	03e00008 	jr	ra
    28f8:	00001025 	move	v0,zero
    28fc:	10c00016 	beqz	a2,2958 <func_80101E5C_ovl2+0xdc>
    2900:	00000000 	nop
    2904:	c4b20000 	lwc1	$f18,0(a1)
    2908:	c4ca0000 	lwc1	$f10,0(a2)
    290c:	c4a60004 	lwc1	$f6,4(a1)
    2910:	46009207 	neg.s	$f8,$f18
    2914:	44808000 	mtc1	zero,$f16
    2918:	460a4102 	mul.s	$f4,$f8,$f10
    291c:	c4c80004 	lwc1	$f8,4(a2)
    2920:	46003487 	neg.s	$f18,$f6
    2924:	46089282 	mul.s	$f10,$f18,$f8
    2928:	c4b20008 	lwc1	$f18,8(a1)
    292c:	46009207 	neg.s	$f8,$f18
    2930:	460a2180 	add.s	$f6,$f4,$f10
    2934:	c4c40008 	lwc1	$f4,8(a2)
    2938:	46044282 	mul.s	$f10,$f8,$f4
    293c:	460a3480 	add.s	$f18,$f6,$f10
    2940:	4612803c 	c.lt.s	$f16,$f18
    2944:	00000000 	nop
    2948:	45000003 	bc1f	2958 <func_80101E5C_ovl2+0xdc>
    294c:	00000000 	nop
    2950:	03e00008 	jr	ra
    2954:	00001025 	move	v0,zero
    2958:	03e00008 	jr	ra
    295c:	24020001 	li	v0,1
    2960:	00001025 	move	v0,zero
    2964:	03e00008 	jr	ra
    2968:	00000000 	nop

0000296c <func_80101F4C_ovl2>:
func_80101F4C_ovl2():
    296c:	afa7000c 	sw	a3,12(sp)
    2970:	94820008 	lhu	v0,8(a0)
    2974:	304e0008 	andi	t6,v0,0x8
    2978:	51c00036 	beqzl	t6,2a54 <func_80101F4C_ovl2+0xe8>
    297c:	00001025 	move	v0,zero
    2980:	948f0012 	lhu	t7,18(a0)
    2984:	24010003 	li	at,3
    2988:	30580001 	andi	t8,v0,0x1
    298c:	55e10031 	bnel	t7,at,2a54 <func_80101F4C_ovl2+0xe8>
    2990:	00001025 	move	v0,zero
    2994:	13000015 	beqz	t8,29ec <func_80101F4C_ovl2+0x80>
    2998:	00000000 	nop
    299c:	10c0002a 	beqz	a2,2a48 <func_80101F4C_ovl2+0xdc>
    29a0:	00000000 	nop
    29a4:	c4a60000 	lwc1	$f6,0(a1)
    29a8:	c4c80000 	lwc1	$f8,0(a2)
    29ac:	c4b00004 	lwc1	$f16,4(a1)
    29b0:	c4d20004 	lwc1	$f18,4(a2)
    29b4:	46083282 	mul.s	$f10,$f6,$f8
    29b8:	44802000 	mtc1	zero,$f4
    29bc:	46128182 	mul.s	$f6,$f16,$f18
    29c0:	c4d20008 	lwc1	$f18,8(a2)
    29c4:	c4b00008 	lwc1	$f16,8(a1)
    29c8:	46065200 	add.s	$f8,$f10,$f6
    29cc:	46128282 	mul.s	$f10,$f16,$f18
    29d0:	460a4180 	add.s	$f6,$f8,$f10
    29d4:	4606203c 	c.lt.s	$f4,$f6
    29d8:	00000000 	nop
    29dc:	4500001a 	bc1f	2a48 <func_80101F4C_ovl2+0xdc>
    29e0:	00000000 	nop
    29e4:	03e00008 	jr	ra
    29e8:	00001025 	move	v0,zero
    29ec:	10c00016 	beqz	a2,2a48 <func_80101F4C_ovl2+0xdc>
    29f0:	00000000 	nop
    29f4:	c4b20000 	lwc1	$f18,0(a1)
    29f8:	c4ca0000 	lwc1	$f10,0(a2)
    29fc:	c4a60004 	lwc1	$f6,4(a1)
    2a00:	46009207 	neg.s	$f8,$f18
    2a04:	44808000 	mtc1	zero,$f16
    2a08:	460a4102 	mul.s	$f4,$f8,$f10
    2a0c:	c4c80004 	lwc1	$f8,4(a2)
    2a10:	46003487 	neg.s	$f18,$f6
    2a14:	46089282 	mul.s	$f10,$f18,$f8
    2a18:	c4b20008 	lwc1	$f18,8(a1)
    2a1c:	46009207 	neg.s	$f8,$f18
    2a20:	460a2180 	add.s	$f6,$f4,$f10
    2a24:	c4c40008 	lwc1	$f4,8(a2)
    2a28:	46044282 	mul.s	$f10,$f8,$f4
    2a2c:	460a3480 	add.s	$f18,$f6,$f10
    2a30:	4612803c 	c.lt.s	$f16,$f18
    2a34:	00000000 	nop
    2a38:	45000003 	bc1f	2a48 <func_80101F4C_ovl2+0xdc>
    2a3c:	00000000 	nop
    2a40:	03e00008 	jr	ra
    2a44:	00001025 	move	v0,zero
    2a48:	03e00008 	jr	ra
    2a4c:	24020001 	li	v0,1
    2a50:	00001025 	move	v0,zero
    2a54:	03e00008 	jr	ra
    2a58:	00000000 	nop

00002a5c <func_8010203C_ovl2>:
func_8010203C_ovl2():
    2a5c:	27bdffd8 	addiu	sp,sp,-40
    2a60:	afbf001c 	sw	ra,28(sp)
    2a64:	afb00018 	sw	s0,24(sp)
    2a68:	afa40028 	sw	a0,40(sp)
    2a6c:	afa60030 	sw	a2,48(sp)
    2a70:	afa70034 	sw	a3,52(sp)
    2a74:	94830008 	lhu	v1,8(a0)
    2a78:	00c03825 	move	a3,a2
    2a7c:	00a08025 	move	s0,a1
    2a80:	306f0003 	andi	t7,v1,0x3
    2a84:	11e0003f 	beqz	t7,2b84 <func_8010203C_ovl2+0x128>
    2a88:	00807025 	move	t6,a0
    2a8c:	3c020000 	lui	v0,0x0
    2a90:	8c420000 	lw	v0,0(v0)
    2a94:	95d80012 	lhu	t8,18(t6)
    2a98:	9444004a 	lhu	a0,74(v0)
    2a9c:	5498003a 	bnel	a0,t8,2b88 <func_8010203C_ovl2+0x12c>
    2aa0:	00001025 	move	v0,zero
    2aa4:	95c50010 	lhu	a1,16(t6)
    2aa8:	9446004c 	lhu	a2,76(v0)
    2aac:	afa70030 	sw	a3,48(sp)
    2ab0:	0c000000 	jal	0 <func_800FF5E0_ovl2>
    2ab4:	afa30024 	sw	v1,36(sp)
    2ab8:	8fa30024 	lw	v1,36(sp)
    2abc:	10400031 	beqz	v0,2b84 <func_8010203C_ovl2+0x128>
    2ac0:	8fa70030 	lw	a3,48(sp)
    2ac4:	30790001 	andi	t9,v1,0x1
    2ac8:	13200015 	beqz	t9,2b20 <func_8010203C_ovl2+0xc4>
    2acc:	00000000 	nop
    2ad0:	10e0002a 	beqz	a3,2b7c <func_8010203C_ovl2+0x120>
    2ad4:	00000000 	nop
    2ad8:	c6060000 	lwc1	$f6,0(s0)
    2adc:	c4e80000 	lwc1	$f8,0(a3)
    2ae0:	c6100004 	lwc1	$f16,4(s0)
    2ae4:	c4f20004 	lwc1	$f18,4(a3)
    2ae8:	46083282 	mul.s	$f10,$f6,$f8
    2aec:	44802000 	mtc1	zero,$f4
    2af0:	46128182 	mul.s	$f6,$f16,$f18
    2af4:	c4f20008 	lwc1	$f18,8(a3)
    2af8:	c6100008 	lwc1	$f16,8(s0)
    2afc:	46065200 	add.s	$f8,$f10,$f6
    2b00:	46128282 	mul.s	$f10,$f16,$f18
    2b04:	460a4180 	add.s	$f6,$f8,$f10
    2b08:	4606203c 	c.lt.s	$f4,$f6
    2b0c:	00000000 	nop
    2b10:	4500001a 	bc1f	2b7c <func_8010203C_ovl2+0x120>
    2b14:	00000000 	nop
    2b18:	1000001b 	b	2b88 <func_8010203C_ovl2+0x12c>
    2b1c:	00001025 	move	v0,zero
    2b20:	10e00016 	beqz	a3,2b7c <func_8010203C_ovl2+0x120>
    2b24:	00000000 	nop
    2b28:	c6120000 	lwc1	$f18,0(s0)
    2b2c:	c4ea0000 	lwc1	$f10,0(a3)
    2b30:	c6060004 	lwc1	$f6,4(s0)
    2b34:	46009207 	neg.s	$f8,$f18
    2b38:	44808000 	mtc1	zero,$f16
    2b3c:	460a4102 	mul.s	$f4,$f8,$f10
    2b40:	c4e80004 	lwc1	$f8,4(a3)
    2b44:	46003487 	neg.s	$f18,$f6
    2b48:	46089282 	mul.s	$f10,$f18,$f8
    2b4c:	c6120008 	lwc1	$f18,8(s0)
    2b50:	46009207 	neg.s	$f8,$f18
    2b54:	460a2180 	add.s	$f6,$f4,$f10
    2b58:	c4e40008 	lwc1	$f4,8(a3)
    2b5c:	46044282 	mul.s	$f10,$f8,$f4
    2b60:	460a3480 	add.s	$f18,$f6,$f10
    2b64:	4612803c 	c.lt.s	$f16,$f18
    2b68:	00000000 	nop
    2b6c:	45000003 	bc1f	2b7c <func_8010203C_ovl2+0x120>
    2b70:	00000000 	nop
    2b74:	10000004 	b	2b88 <func_8010203C_ovl2+0x12c>
    2b78:	00001025 	move	v0,zero
    2b7c:	10000002 	b	2b88 <func_8010203C_ovl2+0x12c>
    2b80:	24020001 	li	v0,1
    2b84:	00001025 	move	v0,zero
    2b88:	8fbf001c 	lw	ra,28(sp)
    2b8c:	8fb00018 	lw	s0,24(sp)
    2b90:	27bd0028 	addiu	sp,sp,40
    2b94:	03e00008 	jr	ra
    2b98:	00000000 	nop

00002b9c <func_8010217C_ovl2>:
func_8010217C_ovl2():
    2b9c:	afa50004 	sw	a1,4(sp)
    2ba0:	afa60008 	sw	a2,8(sp)
    2ba4:	afa7000c 	sw	a3,12(sp)
    2ba8:	948e0012 	lhu	t6,18(a0)
    2bac:	24010001 	li	at,1
    2bb0:	00001025 	move	v0,zero
    2bb4:	15c10007 	bne	t6,at,2bd4 <func_8010217C_ovl2+0x38>
    2bb8:	00000000 	nop
    2bbc:	948f0008 	lhu	t7,8(a0)
    2bc0:	31f80003 	andi	t8,t7,0x3
    2bc4:	13000003 	beqz	t8,2bd4 <func_8010217C_ovl2+0x38>
    2bc8:	00000000 	nop
    2bcc:	03e00008 	jr	ra
    2bd0:	24020001 	li	v0,1
    2bd4:	03e00008 	jr	ra
    2bd8:	00000000 	nop

00002bdc <func_801021BC_ovl2>:
func_801021BC_ovl2():
    2bdc:	afa50004 	sw	a1,4(sp)
    2be0:	afa60008 	sw	a2,8(sp)
    2be4:	afa7000c 	sw	a3,12(sp)
    2be8:	948e0012 	lhu	t6,18(a0)
    2bec:	24010002 	li	at,2
    2bf0:	00001025 	move	v0,zero
    2bf4:	15c10007 	bne	t6,at,2c14 <func_801021BC_ovl2+0x38>
    2bf8:	00000000 	nop
    2bfc:	948f0008 	lhu	t7,8(a0)
    2c00:	31f80003 	andi	t8,t7,0x3
    2c04:	13000003 	beqz	t8,2c14 <func_801021BC_ovl2+0x38>
    2c08:	00000000 	nop
    2c0c:	03e00008 	jr	ra
    2c10:	24020001 	li	v0,1
    2c14:	03e00008 	jr	ra
    2c18:	00000000 	nop

00002c1c <func_801021FC_ovl2>:
func_801021FC_ovl2():
    2c1c:	27bdffe8 	addiu	sp,sp,-24
    2c20:	afbf0014 	sw	ra,20(sp)
    2c24:	0c000000 	jal	0 <func_800FF5E0_ovl2>
    2c28:	00000000 	nop
    2c2c:	8fbf0014 	lw	ra,20(sp)
    2c30:	27bd0018 	addiu	sp,sp,24
    2c34:	03e00008 	jr	ra
    2c38:	00000000 	nop

00002c3c <func_8010221C_ovl2>:
func_8010221C_ovl2():
    2c3c:	afa7000c 	sw	a3,12(sp)
    2c40:	94820008 	lhu	v0,8(a0)
    2c44:	3c030000 	lui	v1,0x0
    2c48:	304e0008 	andi	t6,v0,0x8
    2c4c:	51c0003b 	beqzl	t6,2d3c <func_8010221C_ovl2+0x100>
    2c50:	00001025 	move	v0,zero
    2c54:	8c630000 	lw	v1,0(v1)
    2c58:	9498000e 	lhu	t8,14(a0)
    2c5c:	946f0048 	lhu	t7,72(v1)
    2c60:	55f80036 	bnel	t7,t8,2d3c <func_8010221C_ovl2+0x100>
    2c64:	00001025 	move	v0,zero
    2c68:	9479004a 	lhu	t9,74(v1)
    2c6c:	94880012 	lhu	t0,18(a0)
    2c70:	30490001 	andi	t1,v0,0x1
    2c74:	57280031 	bnel	t9,t0,2d3c <func_8010221C_ovl2+0x100>
    2c78:	00001025 	move	v0,zero
    2c7c:	11200015 	beqz	t1,2cd4 <func_8010221C_ovl2+0x98>
    2c80:	00000000 	nop
    2c84:	10c0002a 	beqz	a2,2d30 <func_8010221C_ovl2+0xf4>
    2c88:	00000000 	nop
    2c8c:	c4a60000 	lwc1	$f6,0(a1)
    2c90:	c4c80000 	lwc1	$f8,0(a2)
    2c94:	c4b00004 	lwc1	$f16,4(a1)
    2c98:	c4d20004 	lwc1	$f18,4(a2)
    2c9c:	46083282 	mul.s	$f10,$f6,$f8
    2ca0:	44802000 	mtc1	zero,$f4
    2ca4:	46128182 	mul.s	$f6,$f16,$f18
    2ca8:	c4d20008 	lwc1	$f18,8(a2)
    2cac:	c4b00008 	lwc1	$f16,8(a1)
    2cb0:	46065200 	add.s	$f8,$f10,$f6
    2cb4:	46128282 	mul.s	$f10,$f16,$f18
    2cb8:	460a4180 	add.s	$f6,$f8,$f10
    2cbc:	4606203c 	c.lt.s	$f4,$f6
    2cc0:	00000000 	nop
    2cc4:	4500001a 	bc1f	2d30 <func_8010221C_ovl2+0xf4>
    2cc8:	00000000 	nop
    2ccc:	03e00008 	jr	ra
    2cd0:	00001025 	move	v0,zero
    2cd4:	10c00016 	beqz	a2,2d30 <func_8010221C_ovl2+0xf4>
    2cd8:	00000000 	nop
    2cdc:	c4b20000 	lwc1	$f18,0(a1)
    2ce0:	c4ca0000 	lwc1	$f10,0(a2)
    2ce4:	c4a60004 	lwc1	$f6,4(a1)
    2ce8:	46009207 	neg.s	$f8,$f18
    2cec:	44808000 	mtc1	zero,$f16
    2cf0:	460a4102 	mul.s	$f4,$f8,$f10
    2cf4:	c4c80004 	lwc1	$f8,4(a2)
    2cf8:	46003487 	neg.s	$f18,$f6
    2cfc:	46089282 	mul.s	$f10,$f18,$f8
    2d00:	c4b20008 	lwc1	$f18,8(a1)
    2d04:	46009207 	neg.s	$f8,$f18
    2d08:	460a2180 	add.s	$f6,$f4,$f10
    2d0c:	c4c40008 	lwc1	$f4,8(a2)
    2d10:	46044282 	mul.s	$f10,$f8,$f4
    2d14:	460a3480 	add.s	$f18,$f6,$f10
    2d18:	4612803c 	c.lt.s	$f16,$f18
    2d1c:	00000000 	nop
    2d20:	45000003 	bc1f	2d30 <func_8010221C_ovl2+0xf4>
    2d24:	00000000 	nop
    2d28:	03e00008 	jr	ra
    2d2c:	00001025 	move	v0,zero
    2d30:	03e00008 	jr	ra
    2d34:	24020001 	li	v0,1
    2d38:	00001025 	move	v0,zero
    2d3c:	03e00008 	jr	ra
    2d40:	00000000 	nop

00002d44 <func_80102324_ovl2>:
func_80102324_ovl2():
    2d44:	afa50004 	sw	a1,4(sp)
    2d48:	afa60008 	sw	a2,8(sp)
    2d4c:	afa7000c 	sw	a3,12(sp)
    2d50:	948e0012 	lhu	t6,18(a0)
    2d54:	24010004 	li	at,4
    2d58:	00001025 	move	v0,zero
    2d5c:	15c10007 	bne	t6,at,2d7c <func_80102324_ovl2+0x38>
    2d60:	00000000 	nop
    2d64:	948f0008 	lhu	t7,8(a0)
    2d68:	31f80003 	andi	t8,t7,0x3
    2d6c:	13000003 	beqz	t8,2d7c <func_80102324_ovl2+0x38>
    2d70:	00000000 	nop
    2d74:	03e00008 	jr	ra
    2d78:	24020001 	li	v0,1
    2d7c:	03e00008 	jr	ra
    2d80:	00000000 	nop

00002d84 <func_80102364_ovl2>:
func_80102364_ovl2():
    2d84:	44806000 	mtc1	zero,$f12
    2d88:	c4800004 	lwc1	$f0,4(a0)
    2d8c:	3c013f00 	lui	at,0x3f00
    2d90:	44812000 	mtc1	at,$f4
    2d94:	460c003c 	c.lt.s	$f0,$f12
    2d98:	3c0e0000 	lui	t6,0x0
    2d9c:	45020004 	bc1fl	2db0 <func_80102364_ovl2+0x2c>
    2da0:	46000086 	mov.s	$f2,$f0
    2da4:	10000002 	b	2db0 <func_80102364_ovl2+0x2c>
    2da8:	46000087 	neg.s	$f2,$f0
    2dac:	46000086 	mov.s	$f2,$f0
    2db0:	4604103e 	c.le.s	$f2,$f4
    2db4:	00000000 	nop
    2db8:	45030016 	bc1tl	2e14 <func_80102364_ovl2+0x90>
    2dbc:	00001025 	move	v0,zero
    2dc0:	8dce0000 	lw	t6,0(t6)
    2dc4:	8dc2002c 	lw	v0,44(t6)
    2dc8:	1040000f 	beqz	v0,2e08 <func_80102364_ovl2+0x84>
    2dcc:	00000000 	nop
    2dd0:	c4460004 	lwc1	$f6,4(v0)
    2dd4:	46003202 	mul.s	$f8,$f6,$f0
    2dd8:	4608603c 	c.lt.s	$f12,$f8
    2ddc:	00000000 	nop
    2de0:	45000005 	bc1f	2df8 <func_80102364_ovl2+0x74>
    2de4:	00000000 	nop
    2de8:	54a0000a 	bnezl	a1,2e14 <func_80102364_ovl2+0x90>
    2dec:	00001025 	move	v0,zero
    2df0:	03e00008 	jr	ra
    2df4:	24020001 	li	v0,1
    2df8:	50a00006 	beqzl	a1,2e14 <func_80102364_ovl2+0x90>
    2dfc:	00001025 	move	v0,zero
    2e00:	03e00008 	jr	ra
    2e04:	24020001 	li	v0,1
    2e08:	03e00008 	jr	ra
    2e0c:	24020001 	li	v0,1
    2e10:	00001025 	move	v0,zero
    2e14:	03e00008 	jr	ra
    2e18:	00000000 	nop

00002e1c <func_801023FC_ovl2>:
func_801023FC_ovl2():
    2e1c:	44806000 	mtc1	zero,$f12
    2e20:	c4800004 	lwc1	$f0,4(a0)
    2e24:	3c013f00 	lui	at,0x3f00
    2e28:	44812000 	mtc1	at,$f4
    2e2c:	460c003c 	c.lt.s	$f0,$f12
    2e30:	3c0e0000 	lui	t6,0x0
    2e34:	45020004 	bc1fl	2e48 <func_801023FC_ovl2+0x2c>
    2e38:	46000086 	mov.s	$f2,$f0
    2e3c:	10000002 	b	2e48 <func_801023FC_ovl2+0x2c>
    2e40:	46000087 	neg.s	$f2,$f0
    2e44:	46000086 	mov.s	$f2,$f0
    2e48:	4604103e 	c.le.s	$f2,$f4
    2e4c:	00000000 	nop
    2e50:	4502002b 	bc1fl	2f00 <func_801023FC_ovl2+0xe4>
    2e54:	00001025 	move	v0,zero
    2e58:	8dce0000 	lw	t6,0(t6)
    2e5c:	3c010000 	lui	at,0x0
    2e60:	8dc2002c 	lw	v0,44(t6)
    2e64:	10400023 	beqz	v0,2ef4 <func_801023FC_ovl2+0xd8>
    2e68:	00000000 	nop
    2e6c:	c4460000 	lwc1	$f6,0(v0)
    2e70:	c4880000 	lwc1	$f8,0(a0)
    2e74:	c4500008 	lwc1	$f16,8(v0)
    2e78:	c4920008 	lwc1	$f18,8(a0)
    2e7c:	46083282 	mul.s	$f10,$f6,$f8
    2e80:	00000000 	nop
    2e84:	46128102 	mul.s	$f4,$f16,$f18
    2e88:	46045000 	add.s	$f0,$f10,$f4
    2e8c:	460c003c 	c.lt.s	$f0,$f12
    2e90:	00000000 	nop
    2e94:	45000003 	bc1f	2ea4 <func_801023FC_ovl2+0x88>
    2e98:	00000000 	nop
    2e9c:	10000002 	b	2ea8 <func_801023FC_ovl2+0x8c>
    2ea0:	46000087 	neg.s	$f2,$f0
    2ea4:	46000086 	mov.s	$f2,$f0
    2ea8:	c4260000 	lwc1	$f6,0(at)
    2eac:	4606103c 	c.lt.s	$f2,$f6
    2eb0:	00000000 	nop
    2eb4:	45020004 	bc1fl	2ec8 <func_801023FC_ovl2+0xac>
    2eb8:	4600603c 	c.lt.s	$f12,$f0
    2ebc:	03e00008 	jr	ra
    2ec0:	00001025 	move	v0,zero
    2ec4:	4600603c 	c.lt.s	$f12,$f0
    2ec8:	00000000 	nop
    2ecc:	45000005 	bc1f	2ee4 <func_801023FC_ovl2+0xc8>
    2ed0:	00000000 	nop
    2ed4:	54a0000a 	bnezl	a1,2f00 <func_801023FC_ovl2+0xe4>
    2ed8:	00001025 	move	v0,zero
    2edc:	03e00008 	jr	ra
    2ee0:	24020001 	li	v0,1
    2ee4:	50a00006 	beqzl	a1,2f00 <func_801023FC_ovl2+0xe4>
    2ee8:	00001025 	move	v0,zero
    2eec:	03e00008 	jr	ra
    2ef0:	24020001 	li	v0,1
    2ef4:	03e00008 	jr	ra
    2ef8:	24020001 	li	v0,1
    2efc:	00001025 	move	v0,zero
    2f00:	03e00008 	jr	ra
    2f04:	00000000 	nop

00002f08 <func_801024E8_ovl2>:
func_801024E8_ovl2():
    2f08:	3c0e0000 	lui	t6,0x0
    2f0c:	8dce0000 	lw	t6,0(t6)
    2f10:	8dc2002c 	lw	v0,44(t6)
    2f14:	10400019 	beqz	v0,2f7c <func_801024E8_ovl2+0x74>
    2f18:	00000000 	nop
    2f1c:	c4460000 	lwc1	$f6,0(v0)
    2f20:	c4880000 	lwc1	$f8,0(a0)
    2f24:	c4500004 	lwc1	$f16,4(v0)
    2f28:	c4920004 	lwc1	$f18,4(a0)
    2f2c:	46083282 	mul.s	$f10,$f6,$f8
    2f30:	44802000 	mtc1	zero,$f4
    2f34:	46128182 	mul.s	$f6,$f16,$f18
    2f38:	c4920008 	lwc1	$f18,8(a0)
    2f3c:	c4500008 	lwc1	$f16,8(v0)
    2f40:	46065200 	add.s	$f8,$f10,$f6
    2f44:	46128282 	mul.s	$f10,$f16,$f18
    2f48:	460a4180 	add.s	$f6,$f8,$f10
    2f4c:	4606203c 	c.lt.s	$f4,$f6
    2f50:	00000000 	nop
    2f54:	45000005 	bc1f	2f6c <func_801024E8_ovl2+0x64>
    2f58:	00000000 	nop
    2f5c:	54a0000a 	bnezl	a1,2f88 <func_801024E8_ovl2+0x80>
    2f60:	00001025 	move	v0,zero
    2f64:	03e00008 	jr	ra
    2f68:	24020001 	li	v0,1
    2f6c:	50a00006 	beqzl	a1,2f88 <func_801024E8_ovl2+0x80>
    2f70:	00001025 	move	v0,zero
    2f74:	03e00008 	jr	ra
    2f78:	24020001 	li	v0,1
    2f7c:	03e00008 	jr	ra
    2f80:	24020001 	li	v0,1
    2f84:	00001025 	move	v0,zero
    2f88:	03e00008 	jr	ra
    2f8c:	00000000 	nop

00002f90 <func_80102570_ovl2>:
func_80102570_ovl2():
    2f90:	27bdfef0 	addiu	sp,sp,-272
    2f94:	afbf005c 	sw	ra,92(sp)
    2f98:	afbe0058 	sw	s8,88(sp)
    2f9c:	afb70054 	sw	s7,84(sp)
    2fa0:	afb60050 	sw	s6,80(sp)
    2fa4:	afb5004c 	sw	s5,76(sp)
    2fa8:	afb40048 	sw	s4,72(sp)
    2fac:	afb30044 	sw	s3,68(sp)
    2fb0:	afb20040 	sw	s2,64(sp)
    2fb4:	afb1003c 	sw	s1,60(sp)
    2fb8:	afb00038 	sw	s0,56(sp)
    2fbc:	f7be0030 	sdc1	$f30,48(sp)
    2fc0:	f7bc0028 	sdc1	$f28,40(sp)
    2fc4:	f7ba0020 	sdc1	$f26,32(sp)
    2fc8:	f7b80018 	sdc1	$f24,24(sp)
    2fcc:	f7b60010 	sdc1	$f22,16(sp)
    2fd0:	f7b40008 	sdc1	$f20,8(sp)
    2fd4:	afa50114 	sw	a1,276(sp)
    2fd8:	afa7011c 	sw	a3,284(sp)
    2fdc:	44807000 	mtc1	zero,$f14
    2fe0:	c4800000 	lwc1	$f0,0(a0)
    2fe4:	00c0b025 	move	s6,a2
    2fe8:	8cb70000 	lw	s7,0(a1)
    2fec:	460e003c 	c.lt.s	$f0,$f14
    2ff0:	00000000 	nop
    2ff4:	45020004 	bc1fl	3008 <func_80102570_ovl2+0x78>
    2ff8:	46000086 	mov.s	$f2,$f0
    2ffc:	10000002 	b	3008 <func_80102570_ovl2+0x78>
    3000:	46000087 	neg.s	$f2,$f0
    3004:	46000086 	mov.s	$f2,$f0
    3008:	c4800004 	lwc1	$f0,4(a0)
    300c:	460e003c 	c.lt.s	$f0,$f14
    3010:	00000000 	nop
    3014:	45020004 	bc1fl	3028 <func_80102570_ovl2+0x98>
    3018:	46000306 	mov.s	$f12,$f0
    301c:	10000002 	b	3028 <func_80102570_ovl2+0x98>
    3020:	46000307 	neg.s	$f12,$f0
    3024:	46000306 	mov.s	$f12,$f0
    3028:	c4800008 	lwc1	$f0,8(a0)
    302c:	460e003c 	c.lt.s	$f0,$f14
    3030:	00000000 	nop
    3034:	45020004 	bc1fl	3048 <func_80102570_ovl2+0xb8>
    3038:	46000386 	mov.s	$f14,$f0
    303c:	10000002 	b	3048 <func_80102570_ovl2+0xb8>
    3040:	46000387 	neg.s	$f14,$f0
    3044:	46000386 	mov.s	$f14,$f0
    3048:	4602603c 	c.lt.s	$f12,$f2
    304c:	3c0f0000 	lui	t7,0x0
    3050:	8def0000 	lw	t7,0(t7)
    3054:	450000b9 	bc1f	333c <func_80102570_ovl2+0x3ac>
    3058:	8df30030 	lw	s3,48(t7)
    305c:	4602703c 	c.lt.s	$f14,$f2
    3060:	0017a040 	sll	s4,s7,0x1
    3064:	3c01bf00 	lui	at,0xbf00
    3068:	241f0014 	li	ra,20
    306c:	450000b3 	bc1f	333c <func_80102570_ovl2+0x3ac>
    3070:	24110006 	li	s1,6
    3074:	8e78001c 	lw	t8,28(s3)
    3078:	4481d000 	mtc1	at,$f26
    307c:	3c013f00 	lui	at,0x3f00
    3080:	4481c000 	mtc1	at,$f24
    3084:	8e7e0004 	lw	s8,4(s3)
    3088:	2410000c 	li	s0,12
    308c:	03149021 	addu	s2,t8,s4
    3090:	964d0000 	lhu	t5,0(s2)
    3094:	8faf011c 	lw	t7,284(sp)
    3098:	26520002 	addiu	s2,s2,2
    309c:	31a27fff 	andi	v0,t5,0x7fff
    30a0:	005f0019 	multu	v0,ra
    30a4:	0000c812 	mflo	t9
    30a8:	03d97021 	addu	t6,s8,t9
    30ac:	afae0064 	sw	t6,100(sp)
    30b0:	11cf0099 	beq	t6,t7,3318 <func_80102570_ovl2+0x388>
    30b4:	01c01825 	move	v1,t6
    30b8:	8e780000 	lw	t8,0(s3)
    30bc:	8e62000c 	lw	v0,12(s3)
    30c0:	c6c20008 	lwc1	$f2,8(s6)
    30c4:	13000029 	beqz	t8,316c <func_80102570_ovl2+0x1dc>
    30c8:	c6c00004 	lwc1	$f0,4(s6)
    30cc:	95d90000 	lhu	t9,0(t6)
    30d0:	946f0002 	lhu	t7,2(v1)
    30d4:	03300019 	multu	t9,s0
    30d8:	94790004 	lhu	t9,4(v1)
    30dc:	00007012 	mflo	t6
    30e0:	004e2021 	addu	a0,v0,t6
    30e4:	c48c0004 	lwc1	$f12,4(a0)
    30e8:	01f00019 	multu	t7,s0
    30ec:	c48e0008 	lwc1	$f14,8(a0)
    30f0:	460c0281 	sub.s	$f10,$f0,$f12
    30f4:	460e1181 	sub.s	$f6,$f2,$f14
    30f8:	0000c012 	mflo	t8
    30fc:	00582821 	addu	a1,v0,t8
    3100:	c4bc0004 	lwc1	$f28,4(a1)
    3104:	03300019 	multu	t9,s0
    3108:	c4be0008 	lwc1	$f30,8(a1)
    310c:	460ce101 	sub.s	$f4,$f28,$f12
    3110:	46062202 	mul.s	$f8,$f4,$f6
    3114:	460ef101 	sub.s	$f4,$f30,$f14
    3118:	00007012 	mflo	t6
    311c:	46045182 	mul.s	$f6,$f10,$f4
    3120:	004e3021 	addu	a2,v0,t6
    3124:	c4d00004 	lwc1	$f16,4(a2)
    3128:	c4d20008 	lwc1	$f18,8(a2)
    312c:	461e1101 	sub.s	$f4,$f2,$f30
    3130:	461c8281 	sub.s	$f10,$f16,$f28
    3134:	46064501 	sub.s	$f20,$f8,$f6
    3138:	46045202 	mul.s	$f8,$f10,$f4
    313c:	461c0181 	sub.s	$f6,$f0,$f28
    3140:	461e9281 	sub.s	$f10,$f18,$f30
    3144:	460a3102 	mul.s	$f4,$f6,$f10
    3148:	46106181 	sub.s	$f6,$f12,$f16
    314c:	46121281 	sub.s	$f10,$f2,$f18
    3150:	46044581 	sub.s	$f22,$f8,$f4
    3154:	460a3202 	mul.s	$f8,$f6,$f10
    3158:	46100101 	sub.s	$f4,$f0,$f16
    315c:	46127181 	sub.s	$f6,$f14,$f18
    3160:	46062282 	mul.s	$f10,$f4,$f6
    3164:	10000045 	b	327c <func_80102570_ovl2+0x2ec>
    3168:	460a4701 	sub.s	$f28,$f8,$f10
    316c:	946f0000 	lhu	t7,0(v1)
    3170:	94790002 	lhu	t9,2(v1)
    3174:	01f10019 	multu	t7,s1
    3178:	946f0004 	lhu	t7,4(v1)
    317c:	0000c012 	mflo	t8
    3180:	00583021 	addu	a2,v0,t8
    3184:	84ca0004 	lh	t2,4(a2)
    3188:	03310019 	multu	t9,s1
    318c:	84c90002 	lh	t1,2(a2)
    3190:	448a4000 	mtc1	t2,$f8
    3194:	00000000 	nop
    3198:	468042a0 	cvt.s.w	$f10,$f8
    319c:	00007012 	mflo	t6
    31a0:	004e3821 	addu	a3,v0,t6
    31a4:	84e40002 	lh	a0,2(a3)
    31a8:	84e50004 	lh	a1,4(a3)
    31ac:	01f10019 	multu	t7,s1
    31b0:	0089c823 	subu	t9,a0,t1
    31b4:	44992000 	mtc1	t9,$f4
    31b8:	00aa7023 	subu	t6,a1,t2
    31bc:	468021a0 	cvt.s.w	$f6,$f4
    31c0:	460a1101 	sub.s	$f4,$f2,$f10
    31c4:	44895000 	mtc1	t1,$f10
    31c8:	0000c012 	mflo	t8
    31cc:	00584021 	addu	t0,v0,t8
    31d0:	46043202 	mul.s	$f8,$f6,$f4
    31d4:	850b0002 	lh	t3,2(t0)
    31d8:	850c0004 	lh	t4,4(t0)
    31dc:	01647823 	subu	t7,t3,a0
    31e0:	0185c023 	subu	t8,t4,a1
    31e4:	468051a0 	cvt.s.w	$f6,$f10
    31e8:	448e5000 	mtc1	t6,$f10
    31ec:	012bc823 	subu	t9,t1,t3
    31f0:	014c7023 	subu	t6,t2,t4
    31f4:	46060101 	sub.s	$f4,$f0,$f6
    31f8:	468051a0 	cvt.s.w	$f6,$f10
    31fc:	46062282 	mul.s	$f10,$f4,$f6
    3200:	448f2000 	mtc1	t7,$f4
    3204:	00000000 	nop
    3208:	468021a0 	cvt.s.w	$f6,$f4
    320c:	460a4501 	sub.s	$f20,$f8,$f10
    3210:	44854000 	mtc1	a1,$f8
    3214:	00000000 	nop
    3218:	468042a0 	cvt.s.w	$f10,$f8
    321c:	460a1101 	sub.s	$f4,$f2,$f10
    3220:	44845000 	mtc1	a0,$f10
    3224:	46043202 	mul.s	$f8,$f6,$f4
    3228:	468051a0 	cvt.s.w	$f6,$f10
    322c:	44985000 	mtc1	t8,$f10
    3230:	46060101 	sub.s	$f4,$f0,$f6
    3234:	468051a0 	cvt.s.w	$f6,$f10
    3238:	46062282 	mul.s	$f10,$f4,$f6
    323c:	44992000 	mtc1	t9,$f4
    3240:	00000000 	nop
    3244:	468021a0 	cvt.s.w	$f6,$f4
    3248:	460a4581 	sub.s	$f22,$f8,$f10
    324c:	448c4000 	mtc1	t4,$f8
    3250:	00000000 	nop
    3254:	468042a0 	cvt.s.w	$f10,$f8
    3258:	460a1101 	sub.s	$f4,$f2,$f10
    325c:	448b5000 	mtc1	t3,$f10
    3260:	46043202 	mul.s	$f8,$f6,$f4
    3264:	468051a0 	cvt.s.w	$f6,$f10
    3268:	448e5000 	mtc1	t6,$f10
    326c:	46060101 	sub.s	$f4,$f0,$f6
    3270:	468051a0 	cvt.s.w	$f6,$f10
    3274:	46062282 	mul.s	$f10,$f4,$f6
    3278:	460a4701 	sub.s	$f28,$f8,$f10
    327c:	4618a03e 	c.le.s	$f20,$f24
    3280:	00000000 	nop
    3284:	4502000a 	bc1fl	32b0 <func_80102570_ovl2+0x320>
    3288:	4614d03e 	c.le.s	$f26,$f20
    328c:	4618b03e 	c.le.s	$f22,$f24
    3290:	00000000 	nop
    3294:	45020006 	bc1fl	32b0 <func_80102570_ovl2+0x320>
    3298:	4614d03e 	c.le.s	$f26,$f20
    329c:	4618e03e 	c.le.s	$f28,$f24
    32a0:	00000000 	nop
    32a4:	4503000e 	bc1tl	32e0 <func_80102570_ovl2+0x350>
    32a8:	8faf0064 	lw	t7,100(sp)
    32ac:	4614d03e 	c.le.s	$f26,$f20
    32b0:	00000000 	nop
    32b4:	45020019 	bc1fl	331c <func_80102570_ovl2+0x38c>
    32b8:	31ae8000 	andi	t6,t5,0x8000
    32bc:	4616d03e 	c.le.s	$f26,$f22
    32c0:	00000000 	nop
    32c4:	45020015 	bc1fl	331c <func_80102570_ovl2+0x38c>
    32c8:	31ae8000 	andi	t6,t5,0x8000
    32cc:	461cd03e 	c.le.s	$f26,$f28
    32d0:	00000000 	nop
    32d4:	45020011 	bc1fl	331c <func_80102570_ovl2+0x38c>
    32d8:	31ae8000 	andi	t6,t5,0x8000
    32dc:	8faf0064 	lw	t7,100(sp)
    32e0:	8fb80120 	lw	t8,288(sp)
    32e4:	24020001 	li	v0,1
    32e8:	af0f0000 	sw	t7,0(t8)
    32ec:	8e79001c 	lw	t9,28(s3)
    32f0:	03347021 	addu	t6,t9,s4
    32f4:	95cf0000 	lhu	t7,0(t6)
    32f8:	8fb90114 	lw	t9,276(sp)
    32fc:	31f88000 	andi	t8,t7,0x8000
    3300:	13000003 	beqz	t8,3310 <func_80102570_ovl2+0x380>
    3304:	00000000 	nop
    3308:	100001b4 	b	39dc <func_80102570_ovl2+0xa4c>
    330c:	00001025 	move	v0,zero
    3310:	100001b2 	b	39dc <func_80102570_ovl2+0xa4c>
    3314:	af370000 	sw	s7,0(t9)
    3318:	31ae8000 	andi	t6,t5,0x8000
    331c:	11c00005 	beqz	t6,3334 <func_80102570_ovl2+0x3a4>
    3320:	26f70001 	addiu	s7,s7,1
    3324:	8faf0120 	lw	t7,288(sp)
    3328:	00001025 	move	v0,zero
    332c:	100001ab 	b	39dc <func_80102570_ovl2+0xa4c>
    3330:	ade00000 	sw	zero,0(t7)
    3334:	1000ff56 	b	3090 <func_80102570_ovl2+0x100>
    3338:	26940002 	addiu	s4,s4,2
    333c:	460c703c 	c.lt.s	$f14,$f12
    3340:	0017a040 	sll	s4,s7,0x1
    3344:	3c01bf00 	lui	at,0xbf00
    3348:	241f0014 	li	ra,20
    334c:	450000f1 	bc1f	3714 <func_80102570_ovl2+0x784>
    3350:	24110006 	li	s1,6
    3354:	3c01bf00 	lui	at,0xbf00
    3358:	8e78001c 	lw	t8,28(s3)
    335c:	4481d000 	mtc1	at,$f26
    3360:	3c013f00 	lui	at,0x3f00
    3364:	0017a040 	sll	s4,s7,0x1
    3368:	4481c000 	mtc1	at,$f24
    336c:	8e7e0004 	lw	s8,4(s3)
    3370:	241f0014 	li	ra,20
    3374:	24110006 	li	s1,6
    3378:	2410000c 	li	s0,12
    337c:	03149021 	addu	s2,t8,s4
    3380:	964d0000 	lhu	t5,0(s2)
    3384:	8fae011c 	lw	t6,284(sp)
    3388:	26520002 	addiu	s2,s2,2
    338c:	31a27fff 	andi	v0,t5,0x7fff
    3390:	005f0019 	multu	v0,ra
    3394:	0000c812 	mflo	t9
    3398:	03d9a821 	addu	s5,s8,t9
    339c:	12ae00d4 	beq	s5,t6,36f0 <func_80102570_ovl2+0x760>
    33a0:	02a01825 	move	v1,s5
    33a4:	8e6f0000 	lw	t7,0(s3)
    33a8:	8e62000c 	lw	v0,12(s3)
    33ac:	c6c20008 	lwc1	$f2,8(s6)
    33b0:	11e0004c 	beqz	t7,34e4 <func_80102570_ovl2+0x554>
    33b4:	c6cc0000 	lwc1	$f12,0(s6)
    33b8:	94780000 	lhu	t8,0(v1)
    33bc:	946e0002 	lhu	t6,2(v1)
    33c0:	03100019 	multu	t8,s0
    33c4:	94780004 	lhu	t8,4(v1)
    33c8:	0000c812 	mflo	t9
    33cc:	00592021 	addu	a0,v0,t9
    33d0:	c4800000 	lwc1	$f0,0(a0)
    33d4:	01d00019 	multu	t6,s0
    33d8:	c48e0008 	lwc1	$f14,8(a0)
    33dc:	46006281 	sub.s	$f10,$f12,$f0
    33e0:	460e1181 	sub.s	$f6,$f2,$f14
    33e4:	00007812 	mflo	t7
    33e8:	004f2821 	addu	a1,v0,t7
    33ec:	c4bc0000 	lwc1	$f28,0(a1)
    33f0:	03100019 	multu	t8,s0
    33f4:	c4be0008 	lwc1	$f30,8(a1)
    33f8:	4600e101 	sub.s	$f4,$f28,$f0
    33fc:	46062202 	mul.s	$f8,$f4,$f6
    3400:	460ef101 	sub.s	$f4,$f30,$f14
    3404:	0000c812 	mflo	t9
    3408:	46045182 	mul.s	$f6,$f10,$f4
    340c:	00593021 	addu	a2,v0,t9
    3410:	c4d00000 	lwc1	$f16,0(a2)
    3414:	c4d20008 	lwc1	$f18,8(a2)
    3418:	461e1101 	sub.s	$f4,$f2,$f30
    341c:	461c8281 	sub.s	$f10,$f16,$f28
    3420:	46064501 	sub.s	$f20,$f8,$f6
    3424:	46045202 	mul.s	$f8,$f10,$f4
    3428:	461c6181 	sub.s	$f6,$f12,$f28
    342c:	461e9281 	sub.s	$f10,$f18,$f30
    3430:	4618a03e 	c.le.s	$f20,$f24
    3434:	460a3102 	mul.s	$f4,$f6,$f10
    3438:	46100181 	sub.s	$f6,$f0,$f16
    343c:	46121281 	sub.s	$f10,$f2,$f18
    3440:	46044581 	sub.s	$f22,$f8,$f4
    3444:	460a3202 	mul.s	$f8,$f6,$f10
    3448:	46106101 	sub.s	$f4,$f12,$f16
    344c:	46127181 	sub.s	$f6,$f14,$f18
    3450:	46062282 	mul.s	$f10,$f4,$f6
    3454:	45000009 	bc1f	347c <func_80102570_ovl2+0x4ec>
    3458:	460a4701 	sub.s	$f28,$f8,$f10
    345c:	4618b03e 	c.le.s	$f22,$f24
    3460:	00000000 	nop
    3464:	45020006 	bc1fl	3480 <func_80102570_ovl2+0x4f0>
    3468:	4614d03e 	c.le.s	$f26,$f20
    346c:	4618e03e 	c.le.s	$f28,$f24
    3470:	00000000 	nop
    3474:	4503000e 	bc1tl	34b0 <func_80102570_ovl2+0x520>
    3478:	8fae0120 	lw	t6,288(sp)
    347c:	4614d03e 	c.le.s	$f26,$f20
    3480:	00000000 	nop
    3484:	4502009b 	bc1fl	36f4 <func_80102570_ovl2+0x764>
    3488:	31ae8000 	andi	t6,t5,0x8000
    348c:	4616d03e 	c.le.s	$f26,$f22
    3490:	00000000 	nop
    3494:	45020097 	bc1fl	36f4 <func_80102570_ovl2+0x764>
    3498:	31ae8000 	andi	t6,t5,0x8000
    349c:	461cd03e 	c.le.s	$f26,$f28
    34a0:	00000000 	nop
    34a4:	45020093 	bc1fl	36f4 <func_80102570_ovl2+0x764>
    34a8:	31ae8000 	andi	t6,t5,0x8000
    34ac:	8fae0120 	lw	t6,288(sp)
    34b0:	24020001 	li	v0,1
    34b4:	add50000 	sw	s5,0(t6)
    34b8:	8e6f001c 	lw	t7,28(s3)
    34bc:	01f4c021 	addu	t8,t7,s4
    34c0:	97190000 	lhu	t9,0(t8)
    34c4:	8faf0114 	lw	t7,276(sp)
    34c8:	332e8000 	andi	t6,t9,0x8000
    34cc:	11c00003 	beqz	t6,34dc <func_80102570_ovl2+0x54c>
    34d0:	00000000 	nop
    34d4:	10000141 	b	39dc <func_80102570_ovl2+0xa4c>
    34d8:	00001025 	move	v0,zero
    34dc:	1000013f 	b	39dc <func_80102570_ovl2+0xa4c>
    34e0:	adf70000 	sw	s7,0(t7)
    34e4:	94780000 	lhu	t8,0(v1)
    34e8:	946e0002 	lhu	t6,2(v1)
    34ec:	03110019 	multu	t8,s1
    34f0:	94780004 	lhu	t8,4(v1)
    34f4:	0000c812 	mflo	t9
    34f8:	00593021 	addu	a2,v0,t9
    34fc:	84cc0004 	lh	t4,4(a2)
    3500:	01d10019 	multu	t6,s1
    3504:	84cb0000 	lh	t3,0(a2)
    3508:	448c4000 	mtc1	t4,$f8
    350c:	00000000 	nop
    3510:	468042a0 	cvt.s.w	$f10,$f8
    3514:	00007812 	mflo	t7
    3518:	004f3821 	addu	a3,v0,t7
    351c:	84e40000 	lh	a0,0(a3)
    3520:	84e50004 	lh	a1,4(a3)
    3524:	03110019 	multu	t8,s1
    3528:	008b7023 	subu	t6,a0,t3
    352c:	448e2000 	mtc1	t6,$f4
    3530:	00ac7823 	subu	t7,a1,t4
    3534:	468021a0 	cvt.s.w	$f6,$f4
    3538:	460a1101 	sub.s	$f4,$f2,$f10
    353c:	448b5000 	mtc1	t3,$f10
    3540:	0000c812 	mflo	t9
    3544:	00594021 	addu	t0,v0,t9
    3548:	46043202 	mul.s	$f8,$f6,$f4
    354c:	85090000 	lh	t1,0(t0)
    3550:	850a0004 	lh	t2,4(t0)
    3554:	0124c023 	subu	t8,t1,a0
    3558:	0145c823 	subu	t9,t2,a1
    355c:	468051a0 	cvt.s.w	$f6,$f10
    3560:	448f5000 	mtc1	t7,$f10
    3564:	46066101 	sub.s	$f4,$f12,$f6
    3568:	468051a0 	cvt.s.w	$f6,$f10
    356c:	46062282 	mul.s	$f10,$f4,$f6
    3570:	44982000 	mtc1	t8,$f4
    3574:	00000000 	nop
    3578:	468021a0 	cvt.s.w	$f6,$f4
    357c:	460a4501 	sub.s	$f20,$f8,$f10
    3580:	44854000 	mtc1	a1,$f8
    3584:	00000000 	nop
    3588:	468042a0 	cvt.s.w	$f10,$f8
    358c:	4618a03e 	c.le.s	$f20,$f24
    3590:	460a1101 	sub.s	$f4,$f2,$f10
    3594:	44845000 	mtc1	a0,$f10
    3598:	46043202 	mul.s	$f8,$f6,$f4
    359c:	468051a0 	cvt.s.w	$f6,$f10
    35a0:	44995000 	mtc1	t9,$f10
    35a4:	46066101 	sub.s	$f4,$f12,$f6
    35a8:	468051a0 	cvt.s.w	$f6,$f10
    35ac:	46062282 	mul.s	$f10,$f4,$f6
    35b0:	45000026 	bc1f	364c <func_80102570_ovl2+0x6bc>
    35b4:	460a4581 	sub.s	$f22,$f8,$f10
    35b8:	4618b03e 	c.le.s	$f22,$f24
    35bc:	00000000 	nop
    35c0:	45020023 	bc1fl	3650 <func_80102570_ovl2+0x6c0>
    35c4:	4614d03e 	c.le.s	$f26,$f20
    35c8:	448a4000 	mtc1	t2,$f8
    35cc:	01697023 	subu	t6,t3,t1
    35d0:	448e2000 	mtc1	t6,$f4
    35d4:	468042a0 	cvt.s.w	$f10,$f8
    35d8:	018a7823 	subu	t7,t4,t2
    35dc:	468021a0 	cvt.s.w	$f6,$f4
    35e0:	460a1101 	sub.s	$f4,$f2,$f10
    35e4:	44895000 	mtc1	t1,$f10
    35e8:	46043202 	mul.s	$f8,$f6,$f4
    35ec:	468051a0 	cvt.s.w	$f6,$f10
    35f0:	448f5000 	mtc1	t7,$f10
    35f4:	46066101 	sub.s	$f4,$f12,$f6
    35f8:	468051a0 	cvt.s.w	$f6,$f10
    35fc:	46062282 	mul.s	$f10,$f4,$f6
    3600:	460a4701 	sub.s	$f28,$f8,$f10
    3604:	4618e03e 	c.le.s	$f28,$f24
    3608:	00000000 	nop
    360c:	45020039 	bc1fl	36f4 <func_80102570_ovl2+0x764>
    3610:	31ae8000 	andi	t6,t5,0x8000
    3614:	8fb80120 	lw	t8,288(sp)
    3618:	24020001 	li	v0,1
    361c:	af150000 	sw	s5,0(t8)
    3620:	8e79001c 	lw	t9,28(s3)
    3624:	03347021 	addu	t6,t9,s4
    3628:	95cf0000 	lhu	t7,0(t6)
    362c:	8fb90114 	lw	t9,276(sp)
    3630:	31f88000 	andi	t8,t7,0x8000
    3634:	13000003 	beqz	t8,3644 <func_80102570_ovl2+0x6b4>
    3638:	00000000 	nop
    363c:	100000e7 	b	39dc <func_80102570_ovl2+0xa4c>
    3640:	00001025 	move	v0,zero
    3644:	100000e5 	b	39dc <func_80102570_ovl2+0xa4c>
    3648:	af370000 	sw	s7,0(t9)
    364c:	4614d03e 	c.le.s	$f26,$f20
    3650:	00000000 	nop
    3654:	45020027 	bc1fl	36f4 <func_80102570_ovl2+0x764>
    3658:	31ae8000 	andi	t6,t5,0x8000
    365c:	4616d03e 	c.le.s	$f26,$f22
    3660:	00000000 	nop
    3664:	45020023 	bc1fl	36f4 <func_80102570_ovl2+0x764>
    3668:	31ae8000 	andi	t6,t5,0x8000
    366c:	448a4000 	mtc1	t2,$f8
    3670:	01697023 	subu	t6,t3,t1
    3674:	448e2000 	mtc1	t6,$f4
    3678:	468042a0 	cvt.s.w	$f10,$f8
    367c:	018a7823 	subu	t7,t4,t2
    3680:	468021a0 	cvt.s.w	$f6,$f4
    3684:	460a1101 	sub.s	$f4,$f2,$f10
    3688:	44895000 	mtc1	t1,$f10
    368c:	46043202 	mul.s	$f8,$f6,$f4
    3690:	468051a0 	cvt.s.w	$f6,$f10
    3694:	448f5000 	mtc1	t7,$f10
    3698:	46066101 	sub.s	$f4,$f12,$f6
    369c:	468051a0 	cvt.s.w	$f6,$f10
    36a0:	46062282 	mul.s	$f10,$f4,$f6
    36a4:	460a4701 	sub.s	$f28,$f8,$f10
    36a8:	461cd03e 	c.le.s	$f26,$f28
    36ac:	00000000 	nop
    36b0:	45020010 	bc1fl	36f4 <func_80102570_ovl2+0x764>
    36b4:	31ae8000 	andi	t6,t5,0x8000
    36b8:	8fb80120 	lw	t8,288(sp)
    36bc:	24020001 	li	v0,1
    36c0:	af150000 	sw	s5,0(t8)
    36c4:	8e79001c 	lw	t9,28(s3)
    36c8:	03347021 	addu	t6,t9,s4
    36cc:	95cf0000 	lhu	t7,0(t6)
    36d0:	8fb90114 	lw	t9,276(sp)
    36d4:	31f88000 	andi	t8,t7,0x8000
    36d8:	13000003 	beqz	t8,36e8 <func_80102570_ovl2+0x758>
    36dc:	00000000 	nop
    36e0:	100000be 	b	39dc <func_80102570_ovl2+0xa4c>
    36e4:	00001025 	move	v0,zero
    36e8:	100000bc 	b	39dc <func_80102570_ovl2+0xa4c>
    36ec:	af370000 	sw	s7,0(t9)
    36f0:	31ae8000 	andi	t6,t5,0x8000
    36f4:	11c00005 	beqz	t6,370c <func_80102570_ovl2+0x77c>
    36f8:	26f70001 	addiu	s7,s7,1
    36fc:	8faf0120 	lw	t7,288(sp)
    3700:	00001025 	move	v0,zero
    3704:	100000b5 	b	39dc <func_80102570_ovl2+0xa4c>
    3708:	ade00000 	sw	zero,0(t7)
    370c:	1000ff1c 	b	3380 <func_80102570_ovl2+0x3f0>
    3710:	26940002 	addiu	s4,s4,2
    3714:	8e78001c 	lw	t8,28(s3)
    3718:	4481d000 	mtc1	at,$f26
    371c:	3c013f00 	lui	at,0x3f00
    3720:	4481c000 	mtc1	at,$f24
    3724:	8e7e0004 	lw	s8,4(s3)
    3728:	2410000c 	li	s0,12
    372c:	03149021 	addu	s2,t8,s4
    3730:	964d0000 	lhu	t5,0(s2)
    3734:	8faf011c 	lw	t7,284(sp)
    3738:	26520002 	addiu	s2,s2,2
    373c:	31a27fff 	andi	v0,t5,0x7fff
    3740:	005f0019 	multu	v0,ra
    3744:	0000c812 	mflo	t9
    3748:	03d97021 	addu	t6,s8,t9
    374c:	afae0064 	sw	t6,100(sp)
    3750:	11cf0099 	beq	t6,t7,39b8 <func_80102570_ovl2+0xa28>
    3754:	01c01825 	move	v1,t6
    3758:	8e780000 	lw	t8,0(s3)
    375c:	8e62000c 	lw	v0,12(s3)
    3760:	c6c00004 	lwc1	$f0,4(s6)
    3764:	13000029 	beqz	t8,380c <func_80102570_ovl2+0x87c>
    3768:	c6cc0000 	lwc1	$f12,0(s6)
    376c:	95d90000 	lhu	t9,0(t6)
    3770:	946f0002 	lhu	t7,2(v1)
    3774:	03300019 	multu	t9,s0
    3778:	94790004 	lhu	t9,4(v1)
    377c:	00007012 	mflo	t6
    3780:	004e2021 	addu	a0,v0,t6
    3784:	c4820000 	lwc1	$f2,0(a0)
    3788:	01f00019 	multu	t7,s0
    378c:	c48e0004 	lwc1	$f14,4(a0)
    3790:	46026281 	sub.s	$f10,$f12,$f2
    3794:	460e0181 	sub.s	$f6,$f0,$f14
    3798:	0000c012 	mflo	t8
    379c:	00582821 	addu	a1,v0,t8
    37a0:	c4bc0000 	lwc1	$f28,0(a1)
    37a4:	03300019 	multu	t9,s0
    37a8:	c4be0004 	lwc1	$f30,4(a1)
    37ac:	4602e101 	sub.s	$f4,$f28,$f2
    37b0:	46062202 	mul.s	$f8,$f4,$f6
    37b4:	460ef101 	sub.s	$f4,$f30,$f14
    37b8:	00007012 	mflo	t6
    37bc:	46045182 	mul.s	$f6,$f10,$f4
    37c0:	004e3021 	addu	a2,v0,t6
    37c4:	c4d00000 	lwc1	$f16,0(a2)
    37c8:	c4d20004 	lwc1	$f18,4(a2)
    37cc:	461e0101 	sub.s	$f4,$f0,$f30
    37d0:	461c8281 	sub.s	$f10,$f16,$f28
    37d4:	46064501 	sub.s	$f20,$f8,$f6
    37d8:	46045202 	mul.s	$f8,$f10,$f4
    37dc:	461c6181 	sub.s	$f6,$f12,$f28
    37e0:	461e9281 	sub.s	$f10,$f18,$f30
    37e4:	460a3102 	mul.s	$f4,$f6,$f10
    37e8:	46101181 	sub.s	$f6,$f2,$f16
    37ec:	46120281 	sub.s	$f10,$f0,$f18
    37f0:	46044581 	sub.s	$f22,$f8,$f4
    37f4:	460a3202 	mul.s	$f8,$f6,$f10
    37f8:	46106101 	sub.s	$f4,$f12,$f16
    37fc:	46127181 	sub.s	$f6,$f14,$f18
    3800:	46062282 	mul.s	$f10,$f4,$f6
    3804:	10000045 	b	391c <func_80102570_ovl2+0x98c>
    3808:	460a4701 	sub.s	$f28,$f8,$f10
    380c:	946f0000 	lhu	t7,0(v1)
    3810:	94790002 	lhu	t9,2(v1)
    3814:	01f10019 	multu	t7,s1
    3818:	946f0004 	lhu	t7,4(v1)
    381c:	0000c012 	mflo	t8
    3820:	00583021 	addu	a2,v0,t8
    3824:	84ca0002 	lh	t2,2(a2)
    3828:	03310019 	multu	t9,s1
    382c:	84c90000 	lh	t1,0(a2)
    3830:	448a4000 	mtc1	t2,$f8
    3834:	00000000 	nop
    3838:	468042a0 	cvt.s.w	$f10,$f8
    383c:	00007012 	mflo	t6
    3840:	004e3821 	addu	a3,v0,t6
    3844:	84e40000 	lh	a0,0(a3)
    3848:	84e50002 	lh	a1,2(a3)
    384c:	01f10019 	multu	t7,s1
    3850:	0089c823 	subu	t9,a0,t1
    3854:	44992000 	mtc1	t9,$f4
    3858:	00aa7023 	subu	t6,a1,t2
    385c:	468021a0 	cvt.s.w	$f6,$f4
    3860:	460a0101 	sub.s	$f4,$f0,$f10
    3864:	44895000 	mtc1	t1,$f10
    3868:	0000c012 	mflo	t8
    386c:	00584021 	addu	t0,v0,t8
    3870:	46043202 	mul.s	$f8,$f6,$f4
    3874:	850b0000 	lh	t3,0(t0)
    3878:	850c0002 	lh	t4,2(t0)
    387c:	01647823 	subu	t7,t3,a0
    3880:	0185c023 	subu	t8,t4,a1
    3884:	468051a0 	cvt.s.w	$f6,$f10
    3888:	448e5000 	mtc1	t6,$f10
    388c:	012bc823 	subu	t9,t1,t3
    3890:	014c7023 	subu	t6,t2,t4
    3894:	46066101 	sub.s	$f4,$f12,$f6
    3898:	468051a0 	cvt.s.w	$f6,$f10
    389c:	46062282 	mul.s	$f10,$f4,$f6
    38a0:	448f2000 	mtc1	t7,$f4
    38a4:	00000000 	nop
    38a8:	468021a0 	cvt.s.w	$f6,$f4
    38ac:	460a4501 	sub.s	$f20,$f8,$f10
    38b0:	44854000 	mtc1	a1,$f8
    38b4:	00000000 	nop
    38b8:	468042a0 	cvt.s.w	$f10,$f8
    38bc:	460a0101 	sub.s	$f4,$f0,$f10
    38c0:	44845000 	mtc1	a0,$f10
    38c4:	46043202 	mul.s	$f8,$f6,$f4
    38c8:	468051a0 	cvt.s.w	$f6,$f10
    38cc:	44985000 	mtc1	t8,$f10
    38d0:	46066101 	sub.s	$f4,$f12,$f6
    38d4:	468051a0 	cvt.s.w	$f6,$f10
    38d8:	46062282 	mul.s	$f10,$f4,$f6
    38dc:	44992000 	mtc1	t9,$f4
    38e0:	00000000 	nop
    38e4:	468021a0 	cvt.s.w	$f6,$f4
    38e8:	460a4581 	sub.s	$f22,$f8,$f10
    38ec:	448c4000 	mtc1	t4,$f8
    38f0:	00000000 	nop
    38f4:	468042a0 	cvt.s.w	$f10,$f8
    38f8:	460a0101 	sub.s	$f4,$f0,$f10
    38fc:	448b5000 	mtc1	t3,$f10
    3900:	46043202 	mul.s	$f8,$f6,$f4
    3904:	468051a0 	cvt.s.w	$f6,$f10
    3908:	448e5000 	mtc1	t6,$f10
    390c:	46066101 	sub.s	$f4,$f12,$f6
    3910:	468051a0 	cvt.s.w	$f6,$f10
    3914:	46062282 	mul.s	$f10,$f4,$f6
    3918:	460a4701 	sub.s	$f28,$f8,$f10
    391c:	4618a03e 	c.le.s	$f20,$f24
    3920:	00000000 	nop
    3924:	4502000a 	bc1fl	3950 <func_80102570_ovl2+0x9c0>
    3928:	4614d03e 	c.le.s	$f26,$f20
    392c:	4618b03e 	c.le.s	$f22,$f24
    3930:	00000000 	nop
    3934:	45020006 	bc1fl	3950 <func_80102570_ovl2+0x9c0>
    3938:	4614d03e 	c.le.s	$f26,$f20
    393c:	4618e03e 	c.le.s	$f28,$f24
    3940:	00000000 	nop
    3944:	4503000e 	bc1tl	3980 <func_80102570_ovl2+0x9f0>
    3948:	8faf0064 	lw	t7,100(sp)
    394c:	4614d03e 	c.le.s	$f26,$f20
    3950:	00000000 	nop
    3954:	45020019 	bc1fl	39bc <func_80102570_ovl2+0xa2c>
    3958:	31ae8000 	andi	t6,t5,0x8000
    395c:	4616d03e 	c.le.s	$f26,$f22
    3960:	00000000 	nop
    3964:	45020015 	bc1fl	39bc <func_80102570_ovl2+0xa2c>
    3968:	31ae8000 	andi	t6,t5,0x8000
    396c:	461cd03e 	c.le.s	$f26,$f28
    3970:	00000000 	nop
    3974:	45020011 	bc1fl	39bc <func_80102570_ovl2+0xa2c>
    3978:	31ae8000 	andi	t6,t5,0x8000
    397c:	8faf0064 	lw	t7,100(sp)
    3980:	8fb80120 	lw	t8,288(sp)
    3984:	24020001 	li	v0,1
    3988:	af0f0000 	sw	t7,0(t8)
    398c:	8e79001c 	lw	t9,28(s3)
    3990:	03347021 	addu	t6,t9,s4
    3994:	95cf0000 	lhu	t7,0(t6)
    3998:	8fb90114 	lw	t9,276(sp)
    399c:	31f88000 	andi	t8,t7,0x8000
    39a0:	13000003 	beqz	t8,39b0 <func_80102570_ovl2+0xa20>
    39a4:	00000000 	nop
    39a8:	1000000c 	b	39dc <func_80102570_ovl2+0xa4c>
    39ac:	00001025 	move	v0,zero
    39b0:	1000000a 	b	39dc <func_80102570_ovl2+0xa4c>
    39b4:	af370000 	sw	s7,0(t9)
    39b8:	31ae8000 	andi	t6,t5,0x8000
    39bc:	11c00005 	beqz	t6,39d4 <func_80102570_ovl2+0xa44>
    39c0:	26f70001 	addiu	s7,s7,1
    39c4:	8faf0120 	lw	t7,288(sp)
    39c8:	00001025 	move	v0,zero
    39cc:	10000003 	b	39dc <func_80102570_ovl2+0xa4c>
    39d0:	ade00000 	sw	zero,0(t7)
    39d4:	1000ff56 	b	3730 <func_80102570_ovl2+0x7a0>
    39d8:	26940002 	addiu	s4,s4,2
    39dc:	8fbf005c 	lw	ra,92(sp)
    39e0:	d7b40008 	ldc1	$f20,8(sp)
    39e4:	d7b60010 	ldc1	$f22,16(sp)
    39e8:	d7b80018 	ldc1	$f24,24(sp)
    39ec:	d7ba0020 	ldc1	$f26,32(sp)
    39f0:	d7bc0028 	ldc1	$f28,40(sp)
    39f4:	d7be0030 	ldc1	$f30,48(sp)
    39f8:	8fb00038 	lw	s0,56(sp)
    39fc:	8fb1003c 	lw	s1,60(sp)
    3a00:	8fb20040 	lw	s2,64(sp)
    3a04:	8fb30044 	lw	s3,68(sp)
    3a08:	8fb40048 	lw	s4,72(sp)
    3a0c:	8fb5004c 	lw	s5,76(sp)
    3a10:	8fb60050 	lw	s6,80(sp)
    3a14:	8fb70054 	lw	s7,84(sp)
    3a18:	8fbe0058 	lw	s8,88(sp)
    3a1c:	03e00008 	jr	ra
    3a20:	27bd0110 	addiu	sp,sp,272

00003a24 <func_80103004>:
func_80103004():
    3a24:	27bdff38 	addiu	sp,sp,-200
    3a28:	afb50044 	sw	s5,68(sp)
    3a2c:	3c150000 	lui	s5,0x0
    3a30:	26b50000 	addiu	s5,s5,0
    3a34:	8eaf0000 	lw	t7,0(s5)
    3a38:	afbf0054 	sw	ra,84(sp)
    3a3c:	afbe0050 	sw	s8,80(sp)
    3a40:	afb7004c 	sw	s7,76(sp)
    3a44:	afb60048 	sw	s6,72(sp)
    3a48:	afb40040 	sw	s4,64(sp)
    3a4c:	afb3003c 	sw	s3,60(sp)
    3a50:	afb20038 	sw	s2,56(sp)
    3a54:	afb10034 	sw	s1,52(sp)
    3a58:	afb00030 	sw	s0,48(sp)
    3a5c:	f7b60028 	sdc1	$f22,40(sp)
    3a60:	f7b40020 	sdc1	$f20,32(sp)
    3a64:	afa400c8 	sw	a0,200(sp)
    3a68:	afa500cc 	sw	a1,204(sp)
    3a6c:	afa600d0 	sw	a2,208(sp)
    3a70:	afa700d4 	sw	a3,212(sp)
    3a74:	c4940000 	lwc1	$f20,0(a0)
    3a78:	ade00000 	sw	zero,0(t7)
    3a7c:	8eb90000 	lw	t9,0(s5)
    3a80:	27b800c0 	addiu	t8,sp,192
    3a84:	44800000 	mtc1	zero,$f0
    3a88:	af380004 	sw	t8,4(t9)
    3a8c:	8ea20000 	lw	v0,0(s5)
    3a90:	c4440014 	lwc1	$f4,20(v0)
    3a94:	c4460008 	lwc1	$f6,8(v0)
    3a98:	46062201 	sub.s	$f8,$f4,$f6
    3a9c:	e4480020 	swc1	$f8,32(v0)
    3aa0:	8ea20000 	lw	v0,0(s5)
    3aa4:	c44a0018 	lwc1	$f10,24(v0)
    3aa8:	c450000c 	lwc1	$f16,12(v0)
    3aac:	46105481 	sub.s	$f18,$f10,$f16
    3ab0:	e4520024 	swc1	$f18,36(v0)
    3ab4:	8ea20000 	lw	v0,0(s5)
    3ab8:	c444001c 	lwc1	$f4,28(v0)
    3abc:	c4460010 	lwc1	$f6,16(v0)
    3ac0:	46062201 	sub.s	$f8,$f4,$f6
    3ac4:	e4480028 	swc1	$f8,40(v0)
    3ac8:	8ea20000 	lw	v0,0(s5)
    3acc:	c44a0020 	lwc1	$f10,32(v0)
    3ad0:	460a0032 	c.eq.s	$f0,$f10
    3ad4:	00000000 	nop
    3ad8:	4502000e 	bc1fl	3b14 <func_80103004+0xf0>
    3adc:	8c480030 	lw	t0,48(v0)
    3ae0:	c4500024 	lwc1	$f16,36(v0)
    3ae4:	46100032 	c.eq.s	$f0,$f16
    3ae8:	00000000 	nop
    3aec:	45020009 	bc1fl	3b14 <func_80103004+0xf0>
    3af0:	8c480030 	lw	t0,48(v0)
    3af4:	c4520028 	lwc1	$f18,40(v0)
    3af8:	46120032 	c.eq.s	$f0,$f18
    3afc:	00000000 	nop
    3b00:	45020004 	bc1fl	3b14 <func_80103004+0xf0>
    3b04:	8c480030 	lw	t0,48(v0)
    3b08:	100000b5 	b	3de0 <func_80103004+0x3bc>
    3b0c:	00001025 	move	v0,zero
    3b10:	8c480030 	lw	t0,48(v0)
    3b14:	0c000000 	jal	0 <func_800FF5E0_ovl2>
    3b18:	8d04002c 	lw	a0,44(t0)
    3b1c:	8ea20000 	lw	v0,0(s5)
    3b20:	8c430000 	lw	v1,0(v0)
    3b24:	506000ae 	beqzl	v1,3de0 <func_80103004+0x3bc>
    3b28:	00001025 	move	v0,zero
    3b2c:	8c490030 	lw	t1,48(v0)
    3b30:	8d2a0024 	lw	t2,36(t1)
    3b34:	954b0000 	lhu	t3,0(t2)
    3b38:	10600072 	beqz	v1,3d04 <func_80103004+0x2e0>
    3b3c:	afab00b4 	sw	t3,180(sp)
    3b40:	10600070 	beqz	v1,3d04 <func_80103004+0x2e0>
    3b44:	0000a025 	move	s4,zero
    3b48:	00009025 	move	s2,zero
    3b4c:	c7b600b8 	lwc1	$f22,184(sp)
    3b50:	27be00a0 	addiu	s8,sp,160
    3b54:	27b700b0 	addiu	s7,sp,176
    3b58:	97b60082 	lhu	s6,130(sp)
    3b5c:	27b300ac 	addiu	s3,sp,172
    3b60:	8c4d0004 	lw	t5,4(v0)
    3b64:	8fac00b4 	lw	t4,180(sp)
    3b68:	01b27021 	addu	t6,t5,s2
    3b6c:	8dcf0000 	lw	t7,0(t6)
    3b70:	000fc040 	sll	t8,t7,0x1
    3b74:	0198c821 	addu	t9,t4,t8
    3b78:	97230000 	lhu	v1,0(t9)
    3b7c:	8c68000c 	lw	t0,12(v1)
    3b80:	afa800b0 	sw	t0,176(sp)
    3b84:	8c69000c 	lw	t1,12(v1)
    3b88:	51200057 	beqzl	t1,3ce8 <func_80103004+0x2c4>
    3b8c:	8ea20000 	lw	v0,0(s5)
    3b90:	8c4a0004 	lw	t2,4(v0)
    3b94:	3c014f80 	lui	at,0x4f80
    3b98:	01525821 	addu	t3,t2,s2
    3b9c:	956d0004 	lhu	t5,4(t3)
    3ba0:	448d2000 	mtc1	t5,$f4
    3ba4:	05a10004 	bgez	t5,3bb8 <func_80103004+0x194>
    3ba8:	46802020 	cvt.s.w	$f0,$f4
    3bac:	44813000 	mtc1	at,$f6
    3bb0:	00000000 	nop
    3bb4:	46060000 	add.s	$f0,$f0,$f6
    3bb8:	4614003c 	c.lt.s	$f0,$f20
    3bbc:	00000000 	nop
    3bc0:	45020049 	bc1fl	3ce8 <func_80103004+0x2c4>
    3bc4:	8ea20000 	lw	v0,0(s5)
    3bc8:	c4480020 	lwc1	$f8,32(v0)
    3bcc:	c4500008 	lwc1	$f16,8(v0)
    3bd0:	8c4c0030 	lw	t4,48(v0)
    3bd4:	46004282 	mul.s	$f10,$f8,$f0
    3bd8:	8c6e0000 	lw	t6,0(v1)
    3bdc:	8d980014 	lw	t8,20(t4)
    3be0:	02e02825 	move	a1,s7
    3be4:	000e7900 	sll	t7,t6,0x4
    3be8:	01f88021 	addu	s0,t7,t8
    3bec:	02002025 	move	a0,s0
    3bf0:	46105480 	add.s	$f18,$f10,$f16
    3bf4:	03c03025 	move	a2,s8
    3bf8:	e7b200a0 	swc1	$f18,160(sp)
    3bfc:	c4440024 	lwc1	$f4,36(v0)
    3c00:	c448000c 	lwc1	$f8,12(v0)
    3c04:	46002182 	mul.s	$f6,$f4,$f0
    3c08:	46083280 	add.s	$f10,$f6,$f8
    3c0c:	e7aa00a4 	swc1	$f10,164(sp)
    3c10:	c4500028 	lwc1	$f16,40(v0)
    3c14:	c4440010 	lwc1	$f4,16(v0)
    3c18:	46008482 	mul.s	$f18,$f16,$f0
    3c1c:	46049180 	add.s	$f6,$f18,$f4
    3c20:	e7a600a8 	swc1	$f6,168(sp)
    3c24:	8c47003c 	lw	a3,60(v0)
    3c28:	0c000000 	jal	0 <func_800FF5E0_ovl2>
    3c2c:	afb30010 	sw	s3,16(sp)
    3c30:	8fb900ac 	lw	t9,172(sp)
    3c34:	00408825 	move	s1,v0
    3c38:	5320002b 	beqzl	t9,3ce8 <func_80103004+0x2c4>
    3c3c:	8ea20000 	lw	v0,0(s5)
    3c40:	8ea20000 	lw	v0,0(s5)
    3c44:	02602025 	move	a0,s3
    3c48:	02002825 	move	a1,s0
    3c4c:	8c590040 	lw	t9,64(v0)
    3c50:	24460020 	addiu	a2,v0,32
    3c54:	8c47002c 	lw	a3,44(v0)
    3c58:	0320f809 	jalr	t9
    3c5c:	00000000 	nop
    3c60:	10400005 	beqz	v0,3c78 <func_80103004+0x254>
    3c64:	00000000 	nop
    3c68:	8fa800ac 	lw	t0,172(sp)
    3c6c:	afb600bc 	sw	s6,188(sp)
    3c70:	1000001c 	b	3ce4 <func_80103004+0x2c0>
    3c74:	c5160000 	lwc1	$f22,0(t0)
    3c78:	1220001a 	beqz	s1,3ce4 <func_80103004+0x2c0>
    3c7c:	8fa900b0 	lw	t1,176(sp)
    3c80:	8eab0000 	lw	t3,0(s5)
    3c84:	252a0001 	addiu	t2,t1,1
    3c88:	afaa00b0 	sw	t2,176(sp)
    3c8c:	8d67003c 	lw	a3,60(t3)
    3c90:	afb30010 	sw	s3,16(sp)
    3c94:	02002025 	move	a0,s0
    3c98:	02e02825 	move	a1,s7
    3c9c:	0c000000 	jal	0 <func_800FF5E0_ovl2>
    3ca0:	03c03025 	move	a2,s8
    3ca4:	8fad00ac 	lw	t5,172(sp)
    3ca8:	51a0000f 	beqzl	t5,3ce8 <func_80103004+0x2c4>
    3cac:	8ea20000 	lw	v0,0(s5)
    3cb0:	8ea20000 	lw	v0,0(s5)
    3cb4:	02602025 	move	a0,s3
    3cb8:	02002825 	move	a1,s0
    3cbc:	8c590040 	lw	t9,64(v0)
    3cc0:	24460020 	addiu	a2,v0,32
    3cc4:	8c47002c 	lw	a3,44(v0)
    3cc8:	0320f809 	jalr	t9
    3ccc:	00000000 	nop
    3cd0:	50400005 	beqzl	v0,3ce8 <func_80103004+0x2c4>
    3cd4:	8ea20000 	lw	v0,0(s5)
    3cd8:	8fae00ac 	lw	t6,172(sp)
    3cdc:	afb600bc 	sw	s6,188(sp)
    3ce0:	c5d60000 	lwc1	$f22,0(t6)
    3ce4:	8ea20000 	lw	v0,0(s5)
    3ce8:	26940001 	addiu	s4,s4,1
    3cec:	26520008 	addiu	s2,s2,8
    3cf0:	8c4c0000 	lw	t4,0(v0)
    3cf4:	028c082b 	sltu	at,s4,t4
    3cf8:	5420ff9a 	bnezl	at,3b64 <func_80103004+0x140>
    3cfc:	8c4d0004 	lw	t5,4(v0)
    3d00:	e7b600b8 	swc1	$f22,184(sp)
    3d04:	8fa400c8 	lw	a0,200(sp)
    3d08:	c7b600b8 	lwc1	$f22,184(sp)
    3d0c:	8fa300d0 	lw	v1,208(sp)
    3d10:	c4880000 	lwc1	$f8,0(a0)
    3d14:	4608a032 	c.eq.s	$f20,$f8
    3d18:	00000000 	nop
    3d1c:	45030030 	bc1tl	3de0 <func_80103004+0x3bc>
    3d20:	00001025 	move	v0,zero
    3d24:	10600011 	beqz	v1,3d6c <func_80103004+0x348>
    3d28:	8fa800bc 	lw	t0,188(sp)
    3d2c:	8faf00b4 	lw	t7,180(sp)
    3d30:	8c590030 	lw	t9,48(v0)
    3d34:	00084880 	sll	t1,t0,0x2
    3d38:	01e95021 	addu	t2,t7,t1
    3d3c:	954b0000 	lhu	t3,0(t2)
    3d40:	8f2e0014 	lw	t6,20(t9)
    3d44:	000b6900 	sll	t5,t3,0x4
    3d48:	01cd6021 	addu	t4,t6,t5
    3d4c:	8d880000 	lw	t0,0(t4)
    3d50:	ac680000 	sw	t0,0(v1)
    3d54:	8d980004 	lw	t8,4(t4)
    3d58:	ac780004 	sw	t8,4(v1)
    3d5c:	8d880008 	lw	t0,8(t4)
    3d60:	ac680008 	sw	t0,8(v1)
    3d64:	8d98000c 	lw	t8,12(t4)
    3d68:	ac78000c 	sw	t8,12(v1)
    3d6c:	8fa200d4 	lw	v0,212(sp)
    3d70:	50400003 	beqzl	v0,3d80 <func_80103004+0x35c>
    3d74:	8fa300cc 	lw	v1,204(sp)
    3d78:	e4560000 	swc1	$f22,0(v0)
    3d7c:	8fa300cc 	lw	v1,204(sp)
    3d80:	e4940000 	swc1	$f20,0(a0)
    3d84:	10600013 	beqz	v1,3dd4 <func_80103004+0x3b0>
    3d88:	00000000 	nop
    3d8c:	8ea20000 	lw	v0,0(s5)
    3d90:	c44a0020 	lwc1	$f10,32(v0)
    3d94:	c4520008 	lwc1	$f18,8(v0)
    3d98:	46145402 	mul.s	$f16,$f10,$f20
    3d9c:	46128100 	add.s	$f4,$f16,$f18
    3da0:	e4640000 	swc1	$f4,0(v1)
    3da4:	8ea20000 	lw	v0,0(s5)
    3da8:	c4460024 	lwc1	$f6,36(v0)
    3dac:	c44a000c 	lwc1	$f10,12(v0)
    3db0:	46143202 	mul.s	$f8,$f6,$f20
    3db4:	460a4400 	add.s	$f16,$f8,$f10
    3db8:	e4700004 	swc1	$f16,4(v1)
    3dbc:	8ea20000 	lw	v0,0(s5)
    3dc0:	c4520028 	lwc1	$f18,40(v0)
    3dc4:	c4460010 	lwc1	$f6,16(v0)
    3dc8:	46149102 	mul.s	$f4,$f18,$f20
    3dcc:	46062200 	add.s	$f8,$f4,$f6
    3dd0:	e4680008 	swc1	$f8,8(v1)
    3dd4:	10000002 	b	3de0 <func_80103004+0x3bc>
    3dd8:	24020001 	li	v0,1
    3ddc:	00001025 	move	v0,zero
    3de0:	8fbf0054 	lw	ra,84(sp)
    3de4:	d7b40020 	ldc1	$f20,32(sp)
    3de8:	d7b60028 	ldc1	$f22,40(sp)
    3dec:	8fb00030 	lw	s0,48(sp)
    3df0:	8fb10034 	lw	s1,52(sp)
    3df4:	8fb20038 	lw	s2,56(sp)
    3df8:	8fb3003c 	lw	s3,60(sp)
    3dfc:	8fb40040 	lw	s4,64(sp)
    3e00:	8fb50044 	lw	s5,68(sp)
    3e04:	8fb60048 	lw	s6,72(sp)
    3e08:	8fb7004c 	lw	s7,76(sp)
    3e0c:	8fbe0050 	lw	s8,80(sp)
    3e10:	03e00008 	jr	ra
    3e14:	27bd00c8 	addiu	sp,sp,200

00003e18 <func_801033A8>:
func_801033A8():
    3e18:	8cb80000 	lw	t8,0(a1)
    3e1c:	27bdffe0 	addiu	sp,sp,-32
    3e20:	27ae0014 	addiu	t6,sp,20
    3e24:	add80000 	sw	t8,0(t6)
    3e28:	8caf0004 	lw	t7,4(a1)
    3e2c:	27b90008 	addiu	t9,sp,8
    3e30:	adcf0004 	sw	t7,4(t6)
    3e34:	8cb80008 	lw	t8,8(a1)
    3e38:	add80008 	sw	t8,8(t6)
    3e3c:	8cc90000 	lw	t1,0(a2)
    3e40:	af290000 	sw	t1,0(t9)
    3e44:	8cc80004 	lw	t0,4(a2)
    3e48:	af280004 	sw	t0,4(t9)
    3e4c:	8cc90008 	lw	t1,8(a2)
    3e50:	af290008 	sw	t1,8(t9)
    3e54:	c7a40014 	lwc1	$f4,20(sp)
    3e58:	c48000a0 	lwc1	$f0,160(a0)
    3e5c:	c7a60008 	lwc1	$f6,8(sp)
    3e60:	c7a80014 	lwc1	$f8,20(sp)
    3e64:	4600203c 	c.lt.s	$f4,$f0
    3e68:	00000000 	nop
    3e6c:	45020008 	bc1fl	3e90 <func_801033A8+0x78>
    3e70:	c48000ac 	lwc1	$f0,172(a0)
    3e74:	4600303c 	c.lt.s	$f6,$f0
    3e78:	00000000 	nop
    3e7c:	45020004 	bc1fl	3e90 <func_801033A8+0x78>
    3e80:	c48000ac 	lwc1	$f0,172(a0)
    3e84:	10000042 	b	3f90 <func_801033A8+0x178>
    3e88:	00001025 	move	v0,zero
    3e8c:	c48000ac 	lwc1	$f0,172(a0)
    3e90:	c7aa0008 	lwc1	$f10,8(sp)
    3e94:	c7b00018 	lwc1	$f16,24(sp)
    3e98:	4608003c 	c.lt.s	$f0,$f8
    3e9c:	00000000 	nop
    3ea0:	45020008 	bc1fl	3ec4 <func_801033A8+0xac>
    3ea4:	c48000a4 	lwc1	$f0,164(a0)
    3ea8:	460a003c 	c.lt.s	$f0,$f10
    3eac:	00000000 	nop
    3eb0:	45020004 	bc1fl	3ec4 <func_801033A8+0xac>
    3eb4:	c48000a4 	lwc1	$f0,164(a0)
    3eb8:	10000035 	b	3f90 <func_801033A8+0x178>
    3ebc:	00001025 	move	v0,zero
    3ec0:	c48000a4 	lwc1	$f0,164(a0)
    3ec4:	c7b2000c 	lwc1	$f18,12(sp)
    3ec8:	c7a40018 	lwc1	$f4,24(sp)
    3ecc:	4600803c 	c.lt.s	$f16,$f0
    3ed0:	00000000 	nop
    3ed4:	45020008 	bc1fl	3ef8 <func_801033A8+0xe0>
    3ed8:	c48000b0 	lwc1	$f0,176(a0)
    3edc:	4600903c 	c.lt.s	$f18,$f0
    3ee0:	00000000 	nop
    3ee4:	45020004 	bc1fl	3ef8 <func_801033A8+0xe0>
    3ee8:	c48000b0 	lwc1	$f0,176(a0)
    3eec:	10000028 	b	3f90 <func_801033A8+0x178>
    3ef0:	00001025 	move	v0,zero
    3ef4:	c48000b0 	lwc1	$f0,176(a0)
    3ef8:	c7a6000c 	lwc1	$f6,12(sp)
    3efc:	c7a8001c 	lwc1	$f8,28(sp)
    3f00:	4604003c 	c.lt.s	$f0,$f4
    3f04:	00000000 	nop
    3f08:	45020008 	bc1fl	3f2c <func_801033A8+0x114>
    3f0c:	c48000a8 	lwc1	$f0,168(a0)
    3f10:	4606003c 	c.lt.s	$f0,$f6
    3f14:	00000000 	nop
    3f18:	45020004 	bc1fl	3f2c <func_801033A8+0x114>
    3f1c:	c48000a8 	lwc1	$f0,168(a0)
    3f20:	1000001b 	b	3f90 <func_801033A8+0x178>
    3f24:	00001025 	move	v0,zero
    3f28:	c48000a8 	lwc1	$f0,168(a0)
    3f2c:	c7aa0010 	lwc1	$f10,16(sp)
    3f30:	c7b0001c 	lwc1	$f16,28(sp)
    3f34:	4600403c 	c.lt.s	$f8,$f0
    3f38:	00000000 	nop
    3f3c:	45020008 	bc1fl	3f60 <func_801033A8+0x148>
    3f40:	c48000b4 	lwc1	$f0,180(a0)
    3f44:	4600503c 	c.lt.s	$f10,$f0
    3f48:	00000000 	nop
    3f4c:	45020004 	bc1fl	3f60 <func_801033A8+0x148>
    3f50:	c48000b4 	lwc1	$f0,180(a0)
    3f54:	1000000e 	b	3f90 <func_801033A8+0x178>
    3f58:	00001025 	move	v0,zero
    3f5c:	c48000b4 	lwc1	$f0,180(a0)
    3f60:	c7b20010 	lwc1	$f18,16(sp)
    3f64:	24020001 	li	v0,1
    3f68:	4610003c 	c.lt.s	$f0,$f16
    3f6c:	00000000 	nop
    3f70:	45000007 	bc1f	3f90 <func_801033A8+0x178>
    3f74:	00000000 	nop
    3f78:	4612003c 	c.lt.s	$f0,$f18
    3f7c:	00000000 	nop
    3f80:	45000003 	bc1f	3f90 <func_801033A8+0x178>
    3f84:	00000000 	nop
    3f88:	10000001 	b	3f90 <func_801033A8+0x178>
    3f8c:	00001025 	move	v0,zero
    3f90:	03e00008 	jr	ra
    3f94:	27bd0020 	addiu	sp,sp,32

00003f98 <func_80103528>:
func_80103528():
    3f98:	27bdff50 	addiu	sp,sp,-176
    3f9c:	3c020000 	lui	v0,0x0
    3fa0:	24420000 	addiu	v0,v0,0
    3fa4:	8c4e0040 	lw	t6,64(v0)
    3fa8:	8c4f0044 	lw	t7,68(v0)
    3fac:	afbe0038 	sw	s8,56(sp)
    3fb0:	afb70034 	sw	s7,52(sp)
    3fb4:	00c0b825 	move	s7,a2
    3fb8:	00e0f025 	move	s8,a3
    3fbc:	afbf003c 	sw	ra,60(sp)
    3fc0:	afb60030 	sw	s6,48(sp)
    3fc4:	afb5002c 	sw	s5,44(sp)
    3fc8:	afb40028 	sw	s4,40(sp)
    3fcc:	afb30024 	sw	s3,36(sp)
    3fd0:	afb20020 	sw	s2,32(sp)
    3fd4:	afb1001c 	sw	s1,28(sp)
    3fd8:	afb00018 	sw	s0,24(sp)
    3fdc:	afa400b0 	sw	a0,176(sp)
    3fe0:	11cf009f 	beq	t6,t7,4260 <func_80103528+0x2c8>
    3fe4:	afa500b4 	sw	a1,180(sp)
    3fe8:	3c120000 	lui	s2,0x0
    3fec:	26520000 	addiu	s2,s2,0
    3ff0:	8e420000 	lw	v0,0(s2)
    3ff4:	27b8009c 	addiu	t8,sp,156
    3ff8:	3c010000 	lui	at,0x0
    3ffc:	8c480008 	lw	t0,8(v0)
    4000:	3c090000 	lui	t1,0x0
    4004:	27b50090 	addiu	s5,sp,144
    4008:	af080000 	sw	t0,0(t8)
    400c:	8c59000c 	lw	t9,12(v0)
    4010:	02a02825 	move	a1,s5
    4014:	27a400ac 	addiu	a0,sp,172
    4018:	af190004 	sw	t9,4(t8)
    401c:	8c480010 	lw	t0,16(v0)
    4020:	af080008 	sw	t0,8(t8)
    4024:	c4240000 	lwc1	$f4,0(at)
    4028:	8d290000 	lw	t1,0(t1)
    402c:	e7a400ac 	swc1	$f4,172(sp)
    4030:	0c000000 	jal	0 <func_800FF5E0_ovl2>
    4034:	ac490030 	sw	t1,48(v0)
    4038:	1040000b 	beqz	v0,4068 <func_80103528+0xd0>
    403c:	3c160000 	lui	s6,0x0
    4040:	8e4a0000 	lw	t2,0(s2)
    4044:	8eac0000 	lw	t4,0(s5)
    4048:	240d0001 	li	t5,1
    404c:	ad4c0014 	sw	t4,20(t2)
    4050:	8eab0004 	lw	t3,4(s5)
    4054:	ad4b0018 	sw	t3,24(t2)
    4058:	8eac0008 	lw	t4,8(s5)
    405c:	ad4c001c 	sw	t4,28(t2)
    4060:	10000005 	b	4078 <func_80103528+0xe0>
    4064:	afad0084 	sw	t5,132(sp)
    4068:	3c013f80 	lui	at,0x3f80
    406c:	44813000 	mtc1	at,$f6
    4070:	afa00084 	sw	zero,132(sp)
    4074:	e7a600ac 	swc1	$f6,172(sp)
    4078:	26d60000 	addiu	s6,s6,0
    407c:	8ecf0000 	lw	t7,0(s6)
    4080:	240e0014 	li	t6,20
    4084:	afae0088 	sw	t6,136(sp)
    4088:	11e0005c 	beqz	t7,41fc <func_80103528+0x264>
    408c:	00009825 	move	s3,zero
    4090:	3c100000 	lui	s0,0x0
    4094:	26100000 	addiu	s0,s0,0
    4098:	27b40068 	addiu	s4,sp,104
    409c:	92180002 	lbu	t8,2(s0)
    40a0:	3c010000 	lui	at,0x0
    40a4:	33190001 	andi	t9,t8,0x1
    40a8:	5720004f 	bnezl	t9,41e8 <func_80103528+0x250>
    40ac:	8ec90000 	lw	t1,0(s6)
    40b0:	c4280000 	lwc1	$f8,0(at)
    40b4:	8e080004 	lw	t0,4(s0)
    40b8:	8e490000 	lw	t1,0(s2)
    40bc:	e7a800a8 	swc1	$f8,168(sp)
    40c0:	26040018 	addiu	a0,s0,24
    40c4:	ad280030 	sw	t0,48(t1)
    40c8:	920a0002 	lbu	t2,2(s0)
    40cc:	02802825 	move	a1,s4
    40d0:	27a6009c 	addiu	a2,sp,156
    40d4:	314b0002 	andi	t3,t2,0x2
    40d8:	51600012 	beqzl	t3,4124 <func_80103528+0x18c>
    40dc:	92030001 	lbu	v1,1(s0)
    40e0:	0c000000 	jal	0 <func_800FF5E0_ovl2>
    40e4:	26110058 	addiu	s1,s0,88
    40e8:	02202025 	move	a0,s1
    40ec:	27a5005c 	addiu	a1,sp,92
    40f0:	0c000000 	jal	0 <func_800FF5E0_ovl2>
    40f4:	02803025 	move	a2,s4
    40f8:	c7aa005c 	lwc1	$f10,92(sp)
    40fc:	c7b0009c 	lwc1	$f16,156(sp)
    4100:	c7b20060 	lwc1	$f18,96(sp)
    4104:	c7a400a0 	lwc1	$f4,160(sp)
    4108:	c7a60064 	lwc1	$f6,100(sp)
    410c:	c7a800a4 	lwc1	$f8,164(sp)
    4110:	46105001 	sub.s	$f0,$f10,$f16
    4114:	46049081 	sub.s	$f2,$f18,$f4
    4118:	1000000c 	b	414c <func_80103528+0x1b4>
    411c:	46083301 	sub.s	$f12,$f6,$f8
    4120:	92030001 	lbu	v1,1(s0)
    4124:	3c01800e 	lui	at,0x800e
    4128:	00031080 	sll	v0,v1,0x2
    412c:	00220821 	addu	at,at,v0
    4130:	c4203050 	lwc1	$f0,12368(at)
    4134:	3c01800e 	lui	at,0x800e
    4138:	00220821 	addu	at,at,v0
    413c:	c4223210 	lwc1	$f2,12816(at)
    4140:	3c01800e 	lui	at,0x800e
    4144:	00220821 	addu	at,at,v0
    4148:	c42c33d0 	lwc1	$f12,13264(at)
    414c:	c7aa009c 	lwc1	$f10,156(sp)
    4150:	8e4c0000 	lw	t4,0(s2)
    4154:	02002025 	move	a0,s0
    4158:	46005400 	add.s	$f16,$f10,$f0
    415c:	e5900008 	swc1	$f16,8(t4)
    4160:	c7b200a0 	lwc1	$f18,160(sp)
    4164:	8e4d0000 	lw	t5,0(s2)
    4168:	46029100 	add.s	$f4,$f18,$f2
    416c:	e5a4000c 	swc1	$f4,12(t5)
    4170:	c7a600a4 	lwc1	$f6,164(sp)
    4174:	8e4e0000 	lw	t6,0(s2)
    4178:	460c3200 	add.s	$f8,$f6,$f12
    417c:	e5c80010 	swc1	$f8,16(t6)
    4180:	8e420000 	lw	v0,0(s2)
    4184:	24450008 	addiu	a1,v0,8
    4188:	0c000000 	jal	0 <func_800FF5E0_ovl2>
    418c:	24460014 	addiu	a2,v0,20
    4190:	10400014 	beqz	v0,41e4 <func_80103528+0x24c>
    4194:	27a400a8 	addiu	a0,sp,168
    4198:	02a02825 	move	a1,s5
    419c:	02e03025 	move	a2,s7
    41a0:	0c000000 	jal	0 <func_800FF5E0_ovl2>
    41a4:	03c03825 	move	a3,s8
    41a8:	1040000e 	beqz	v0,41e4 <func_80103528+0x24c>
    41ac:	c7aa00ac 	lwc1	$f10,172(sp)
    41b0:	c7b000a8 	lwc1	$f16,168(sp)
    41b4:	afb30088 	sw	s3,136(sp)
    41b8:	8e4f0000 	lw	t7,0(s2)
    41bc:	46105482 	mul.s	$f18,$f10,$f16
    41c0:	24080001 	li	t0,1
    41c4:	e7b200ac 	swc1	$f18,172(sp)
    41c8:	8eb90000 	lw	t9,0(s5)
    41cc:	adf90014 	sw	t9,20(t7)
    41d0:	8eb80004 	lw	t8,4(s5)
    41d4:	adf80018 	sw	t8,24(t7)
    41d8:	8eb90008 	lw	t9,8(s5)
    41dc:	adf9001c 	sw	t9,28(t7)
    41e0:	afa80084 	sw	t0,132(sp)
    41e4:	8ec90000 	lw	t1,0(s6)
    41e8:	26730001 	addiu	s3,s3,1
    41ec:	261000b8 	addiu	s0,s0,184
    41f0:	0269082b 	sltu	at,s3,t1
    41f4:	5420ffaa 	bnezl	at,40a0 <func_80103528+0x108>
    41f8:	92180002 	lbu	t8,2(s0)
    41fc:	8faa0084 	lw	t2,132(sp)
    4200:	8fa200b0 	lw	v0,176(sp)
    4204:	11400014 	beqz	t2,4258 <func_80103528+0x2c0>
    4208:	00000000 	nop
    420c:	10400002 	beqz	v0,4218 <func_80103528+0x280>
    4210:	c7a400ac 	lwc1	$f4,172(sp)
    4214:	e4440000 	swc1	$f4,0(v0)
    4218:	8fa200b4 	lw	v0,180(sp)
    421c:	50400008 	beqzl	v0,4240 <func_80103528+0x2a8>
    4220:	8fa200c0 	lw	v0,192(sp)
    4224:	8eac0000 	lw	t4,0(s5)
    4228:	ac4c0000 	sw	t4,0(v0)
    422c:	8eab0004 	lw	t3,4(s5)
    4230:	ac4b0004 	sw	t3,4(v0)
    4234:	8eac0008 	lw	t4,8(s5)
    4238:	ac4c0008 	sw	t4,8(v0)
    423c:	8fa200c0 	lw	v0,192(sp)
    4240:	8fad0088 	lw	t5,136(sp)
    4244:	10400002 	beqz	v0,4250 <func_80103528+0x2b8>
    4248:	00000000 	nop
    424c:	ac4d0000 	sw	t5,0(v0)
    4250:	10000047 	b	4370 <func_80103528+0x3d8>
    4254:	24020001 	li	v0,1
    4258:	10000045 	b	4370 <func_80103528+0x3d8>
    425c:	00001025 	move	v0,zero
    4260:	3c120000 	lui	s2,0x0
    4264:	3c010000 	lui	at,0x0
    4268:	c4260000 	lwc1	$f6,0(at)
    426c:	26520000 	addiu	s2,s2,0
    4270:	3c0e0000 	lui	t6,0x0
    4274:	8dce0000 	lw	t6,0(t6)
    4278:	8e4f0000 	lw	t7,0(s2)
    427c:	e7a60054 	swc1	$f6,84(sp)
    4280:	27b30054 	addiu	s3,sp,84
    4284:	adee0030 	sw	t6,48(t7)
    4288:	8fa500b4 	lw	a1,180(sp)
    428c:	02602025 	move	a0,s3
    4290:	02e03025 	move	a2,s7
    4294:	0c000000 	jal	0 <func_800FF5E0_ovl2>
    4298:	03c03825 	move	a3,s8
    429c:	3c160000 	lui	s6,0x0
    42a0:	26d60000 	addiu	s6,s6,0
    42a4:	8ed80000 	lw	t8,0(s6)
    42a8:	24140014 	li	s4,20
    42ac:	00008825 	move	s1,zero
    42b0:	1300001d 	beqz	t8,4328 <func_80103528+0x390>
    42b4:	3c100000 	lui	s0,0x0
    42b8:	26100000 	addiu	s0,s0,0
    42bc:	92190002 	lbu	t9,2(s0)
    42c0:	33280001 	andi	t0,t9,0x1
    42c4:	55000013 	bnezl	t0,4314 <func_80103528+0x37c>
    42c8:	8ecb0000 	lw	t3,0(s6)
    42cc:	8e090004 	lw	t1,4(s0)
    42d0:	8e4a0000 	lw	t2,0(s2)
    42d4:	02002025 	move	a0,s0
    42d8:	ad490030 	sw	t1,48(t2)
    42dc:	8e420000 	lw	v0,0(s2)
    42e0:	24450008 	addiu	a1,v0,8
    42e4:	0c000000 	jal	0 <func_800FF5E0_ovl2>
    42e8:	24460014 	addiu	a2,v0,20
    42ec:	10400008 	beqz	v0,4310 <func_80103528+0x378>
    42f0:	02602025 	move	a0,s3
    42f4:	8fa500b4 	lw	a1,180(sp)
    42f8:	02e03025 	move	a2,s7
    42fc:	0c000000 	jal	0 <func_800FF5E0_ovl2>
    4300:	03c03825 	move	a3,s8
    4304:	50400003 	beqzl	v0,4314 <func_80103528+0x37c>
    4308:	8ecb0000 	lw	t3,0(s6)
    430c:	0220a025 	move	s4,s1
    4310:	8ecb0000 	lw	t3,0(s6)
    4314:	26310001 	addiu	s1,s1,1
    4318:	261000b8 	addiu	s0,s0,184
    431c:	022b082b 	sltu	at,s1,t3
    4320:	5420ffe7 	bnezl	at,42c0 <func_80103528+0x328>
    4324:	92190002 	lbu	t9,2(s0)
    4328:	3c010000 	lui	at,0x0
    432c:	c42a0000 	lwc1	$f10,0(at)
    4330:	c7a80054 	lwc1	$f8,84(sp)
    4334:	8fac00b0 	lw	t4,176(sp)
    4338:	00001025 	move	v0,zero
    433c:	460a4032 	c.eq.s	$f8,$f10
    4340:	00000000 	nop
    4344:	4501000a 	bc1t	4370 <func_80103528+0x3d8>
    4348:	00000000 	nop
    434c:	51800003 	beqzl	t4,435c <func_80103528+0x3c4>
    4350:	8fa200c0 	lw	v0,192(sp)
    4354:	e5880000 	swc1	$f8,0(t4)
    4358:	8fa200c0 	lw	v0,192(sp)
    435c:	10400002 	beqz	v0,4368 <func_80103528+0x3d0>
    4360:	00000000 	nop
    4364:	ac540000 	sw	s4,0(v0)
    4368:	10000001 	b	4370 <func_80103528+0x3d8>
    436c:	24020001 	li	v0,1
    4370:	8fbf003c 	lw	ra,60(sp)
    4374:	8fb00018 	lw	s0,24(sp)
    4378:	8fb1001c 	lw	s1,28(sp)
    437c:	8fb20020 	lw	s2,32(sp)
    4380:	8fb30024 	lw	s3,36(sp)
    4384:	8fb40028 	lw	s4,40(sp)
    4388:	8fb5002c 	lw	s5,44(sp)
    438c:	8fb60030 	lw	s6,48(sp)
    4390:	8fb70034 	lw	s7,52(sp)
    4394:	8fbe0038 	lw	s8,56(sp)
    4398:	03e00008 	jr	ra
    439c:	27bd00b0 	addiu	sp,sp,176

000043a0 <func_80103930>:
func_80103930():
    43a0:	27bdff90 	addiu	sp,sp,-112
    43a4:	27ae0020 	addiu	t6,sp,32
    43a8:	3c010000 	lui	at,0x0
    43ac:	afbf001c 	sw	ra,28(sp)
    43b0:	afa40070 	sw	a0,112(sp)
    43b4:	afa50074 	sw	a1,116(sp)
    43b8:	afa60078 	sw	a2,120(sp)
    43bc:	afa7007c 	sw	a3,124(sp)
    43c0:	ac2e0000 	sw	t6,0(at)
    43c4:	8c880000 	lw	t0,0(a0)
    43c8:	27af0028 	addiu	t7,sp,40
    43cc:	27a90034 	addiu	t1,sp,52
    43d0:	ade80000 	sw	t0,0(t7)
    43d4:	8c990004 	lw	t9,4(a0)
    43d8:	3c0e0000 	lui	t6,0x0
    43dc:	25ce0000 	addiu	t6,t6,0
    43e0:	adf90004 	sw	t9,4(t7)
    43e4:	8c880008 	lw	t0,8(a0)
    43e8:	ade80008 	sw	t0,8(t7)
    43ec:	8faa0074 	lw	t2,116(sp)
    43f0:	3c0f0000 	lui	t7,0x0
    43f4:	25ef0000 	addiu	t7,t7,0
    43f8:	8d4c0000 	lw	t4,0(t2)
    43fc:	ad2c0000 	sw	t4,0(t1)
    4400:	8d4b0004 	lw	t3,4(t2)
    4404:	ad2b0004 	sw	t3,4(t1)
    4408:	8d4c0008 	lw	t4,8(t2)
    440c:	ad2c0008 	sw	t4,8(t1)
    4410:	8fad0078 	lw	t5,120(sp)
    4414:	8fb8008c 	lw	t8,140(sp)
    4418:	afa0005c 	sw	zero,92(sp)
    441c:	afae0064 	sw	t6,100(sp)
    4420:	afaf0060 	sw	t7,96(sp)
    4424:	afa00054 	sw	zero,84(sp)
    4428:	afa00058 	sw	zero,88(sp)
    442c:	8fa70088 	lw	a3,136(sp)
    4430:	8fa60084 	lw	a2,132(sp)
    4434:	8fa50080 	lw	a1,128(sp)
    4438:	8fa4007c 	lw	a0,124(sp)
    443c:	afad004c 	sw	t5,76(sp)
    4440:	0c000000 	jal	0 <func_800FF5E0_ovl2>
    4444:	afb80010 	sw	t8,16(sp)
    4448:	8fbf001c 	lw	ra,28(sp)
    444c:	27bd0070 	addiu	sp,sp,112
    4450:	03e00008 	jr	ra
    4454:	00000000 	nop

00004458 <func_801039E8_ovl2>:
func_801039E8_ovl2():
    4458:	27bdff90 	addiu	sp,sp,-112
    445c:	27ae0020 	addiu	t6,sp,32
    4460:	3c010000 	lui	at,0x0
    4464:	afbf001c 	sw	ra,28(sp)
    4468:	afa40070 	sw	a0,112(sp)
    446c:	afa50074 	sw	a1,116(sp)
    4470:	afa60078 	sw	a2,120(sp)
    4474:	afa7007c 	sw	a3,124(sp)
    4478:	ac2e0000 	sw	t6,0(at)
    447c:	8c880000 	lw	t0,0(a0)
    4480:	27af0028 	addiu	t7,sp,40
    4484:	27a90034 	addiu	t1,sp,52
    4488:	ade80000 	sw	t0,0(t7)
    448c:	8c990004 	lw	t9,4(a0)
    4490:	3c0e0000 	lui	t6,0x0
    4494:	25ce0000 	addiu	t6,t6,0
    4498:	adf90004 	sw	t9,4(t7)
    449c:	8c880008 	lw	t0,8(a0)
    44a0:	ade80008 	sw	t0,8(t7)
    44a4:	8faa0074 	lw	t2,116(sp)
    44a8:	3c0f0000 	lui	t7,0x0
    44ac:	25ef0000 	addiu	t7,t7,0
    44b0:	8d4c0000 	lw	t4,0(t2)
    44b4:	ad2c0000 	sw	t4,0(t1)
    44b8:	8d4b0004 	lw	t3,4(t2)
    44bc:	ad2b0004 	sw	t3,4(t1)
    44c0:	8d4c0008 	lw	t4,8(t2)
    44c4:	ad2c0008 	sw	t4,8(t1)
    44c8:	8fad0078 	lw	t5,120(sp)
    44cc:	8fb8008c 	lw	t8,140(sp)
    44d0:	afa0005c 	sw	zero,92(sp)
    44d4:	afae0064 	sw	t6,100(sp)
    44d8:	afaf0060 	sw	t7,96(sp)
    44dc:	afa00054 	sw	zero,84(sp)
    44e0:	afa00058 	sw	zero,88(sp)
    44e4:	8fa70088 	lw	a3,136(sp)
    44e8:	8fa60084 	lw	a2,132(sp)
    44ec:	8fa50080 	lw	a1,128(sp)
    44f0:	8fa4007c 	lw	a0,124(sp)
    44f4:	afad004c 	sw	t5,76(sp)
    44f8:	0c000000 	jal	0 <func_800FF5E0_ovl2>
    44fc:	afb80010 	sw	t8,16(sp)
    4500:	8fbf001c 	lw	ra,28(sp)
    4504:	27bd0070 	addiu	sp,sp,112
    4508:	03e00008 	jr	ra
    450c:	00000000 	nop

00004510 <func_80103AA0_ovl2>:
func_80103AA0_ovl2():
    4510:	27bdff90 	addiu	sp,sp,-112
    4514:	27ae0020 	addiu	t6,sp,32
    4518:	3c010000 	lui	at,0x0
    451c:	afbf001c 	sw	ra,28(sp)
    4520:	afa40070 	sw	a0,112(sp)
    4524:	afa50074 	sw	a1,116(sp)
    4528:	afa60078 	sw	a2,120(sp)
    452c:	afa7007c 	sw	a3,124(sp)
    4530:	ac2e0000 	sw	t6,0(at)
    4534:	8c880000 	lw	t0,0(a0)
    4538:	27af0028 	addiu	t7,sp,40
    453c:	27a90034 	addiu	t1,sp,52
    4540:	ade80000 	sw	t0,0(t7)
    4544:	8c990004 	lw	t9,4(a0)
    4548:	3c0e0000 	lui	t6,0x0
    454c:	25ce0000 	addiu	t6,t6,0
    4550:	adf90004 	sw	t9,4(t7)
    4554:	8c880008 	lw	t0,8(a0)
    4558:	ade80008 	sw	t0,8(t7)
    455c:	8faa0074 	lw	t2,116(sp)
    4560:	3c0f0000 	lui	t7,0x0
    4564:	25ef0000 	addiu	t7,t7,0
    4568:	8d4c0000 	lw	t4,0(t2)
    456c:	ad2c0000 	sw	t4,0(t1)
    4570:	8d4b0004 	lw	t3,4(t2)
    4574:	ad2b0004 	sw	t3,4(t1)
    4578:	8d4c0008 	lw	t4,8(t2)
    457c:	ad2c0008 	sw	t4,8(t1)
    4580:	8fad0078 	lw	t5,120(sp)
    4584:	8fb8008c 	lw	t8,140(sp)
    4588:	afa0005c 	sw	zero,92(sp)
    458c:	afae0064 	sw	t6,100(sp)
    4590:	afaf0060 	sw	t7,96(sp)
    4594:	afa00054 	sw	zero,84(sp)
    4598:	afa00058 	sw	zero,88(sp)
    459c:	8fa70088 	lw	a3,136(sp)
    45a0:	8fa60084 	lw	a2,132(sp)
    45a4:	8fa50080 	lw	a1,128(sp)
    45a8:	8fa4007c 	lw	a0,124(sp)
    45ac:	afad004c 	sw	t5,76(sp)
    45b0:	0c000000 	jal	0 <func_800FF5E0_ovl2>
    45b4:	afb80010 	sw	t8,16(sp)
    45b8:	8fbf001c 	lw	ra,28(sp)
    45bc:	27bd0070 	addiu	sp,sp,112
    45c0:	03e00008 	jr	ra
    45c4:	00000000 	nop

000045c8 <func_80103B58_ovl2>:
func_80103B58_ovl2():
    45c8:	27bdffa8 	addiu	sp,sp,-88
    45cc:	afb20020 	sw	s2,32(sp)
    45d0:	3c010000 	lui	at,0x0
    45d4:	c4240000 	lwc1	$f4,0(at)
    45d8:	3c120000 	lui	s2,0x0
    45dc:	26520000 	addiu	s2,s2,0
    45e0:	3c0e0000 	lui	t6,0x0
    45e4:	8dce0000 	lw	t6,0(t6)
    45e8:	8e4f0000 	lw	t7,0(s2)
    45ec:	afb70034 	sw	s7,52(sp)
    45f0:	27b70054 	addiu	s7,sp,84
    45f4:	afbf003c 	sw	ra,60(sp)
    45f8:	afbe0038 	sw	s8,56(sp)
    45fc:	afb60030 	sw	s6,48(sp)
    4600:	afb5002c 	sw	s5,44(sp)
    4604:	afb40028 	sw	s4,40(sp)
    4608:	afb30024 	sw	s3,36(sp)
    460c:	afb1001c 	sw	s1,28(sp)
    4610:	afb00018 	sw	s0,24(sp)
    4614:	afa40058 	sw	a0,88(sp)
    4618:	e7a40054 	swc1	$f4,84(sp)
    461c:	00a0a025 	move	s4,a1
    4620:	00c0a825 	move	s5,a2
    4624:	00e0b025 	move	s6,a3
    4628:	02e02025 	move	a0,s7
    462c:	0c000000 	jal	0 <func_800FF5E0_ovl2>
    4630:	adee0030 	sw	t6,48(t7)
    4634:	3c130000 	lui	s3,0x0
    4638:	26730000 	addiu	s3,s3,0
    463c:	8e780000 	lw	t8,0(s3)
    4640:	241e0014 	li	s8,20
    4644:	00008825 	move	s1,zero
    4648:	1300001d 	beqz	t8,46c0 <func_80103B58_ovl2+0xf8>
    464c:	3c100000 	lui	s0,0x0
    4650:	26100000 	addiu	s0,s0,0
    4654:	92190002 	lbu	t9,2(s0)
    4658:	33280001 	andi	t0,t9,0x1
    465c:	55000013 	bnezl	t0,46ac <func_80103B58_ovl2+0xe4>
    4660:	8e6b0000 	lw	t3,0(s3)
    4664:	8e090004 	lw	t1,4(s0)
    4668:	8e4a0000 	lw	t2,0(s2)
    466c:	02002025 	move	a0,s0
    4670:	ad490030 	sw	t1,48(t2)
    4674:	8e420000 	lw	v0,0(s2)
    4678:	24450008 	addiu	a1,v0,8
    467c:	0c000000 	jal	0 <func_800FF5E0_ovl2>
    4680:	24460014 	addiu	a2,v0,20
    4684:	10400008 	beqz	v0,46a8 <func_80103B58_ovl2+0xe0>
    4688:	02e02025 	move	a0,s7
    468c:	02802825 	move	a1,s4
    4690:	02a03025 	move	a2,s5
    4694:	0c000000 	jal	0 <func_800FF5E0_ovl2>
    4698:	02c03825 	move	a3,s6
    469c:	50400003 	beqzl	v0,46ac <func_80103B58_ovl2+0xe4>
    46a0:	8e6b0000 	lw	t3,0(s3)
    46a4:	0220f025 	move	s8,s1
    46a8:	8e6b0000 	lw	t3,0(s3)
    46ac:	26310001 	addiu	s1,s1,1
    46b0:	261000b8 	addiu	s0,s0,184
    46b4:	022b082b 	sltu	at,s1,t3
    46b8:	5420ffe7 	bnezl	at,4658 <func_80103B58_ovl2+0x90>
    46bc:	92190002 	lbu	t9,2(s0)
    46c0:	3c010000 	lui	at,0x0
    46c4:	c4280000 	lwc1	$f8,0(at)
    46c8:	c7a60054 	lwc1	$f6,84(sp)
    46cc:	00001025 	move	v0,zero
    46d0:	46083032 	c.eq.s	$f6,$f8
    46d4:	00000000 	nop
    46d8:	4501000b 	bc1t	4708 <func_80103B58_ovl2+0x140>
    46dc:	00000000 	nop
    46e0:	8fa20058 	lw	v0,88(sp)
    46e4:	50400003 	beqzl	v0,46f4 <func_80103B58_ovl2+0x12c>
    46e8:	8fa20068 	lw	v0,104(sp)
    46ec:	e4460000 	swc1	$f6,0(v0)
    46f0:	8fa20068 	lw	v0,104(sp)
    46f4:	10400002 	beqz	v0,4700 <func_80103B58_ovl2+0x138>
    46f8:	00000000 	nop
    46fc:	ac5e0000 	sw	s8,0(v0)
    4700:	10000001 	b	4708 <func_80103B58_ovl2+0x140>
    4704:	24020001 	li	v0,1
    4708:	8fbf003c 	lw	ra,60(sp)
    470c:	8fb00018 	lw	s0,24(sp)
    4710:	8fb1001c 	lw	s1,28(sp)
    4714:	8fb20020 	lw	s2,32(sp)
    4718:	8fb30024 	lw	s3,36(sp)
    471c:	8fb40028 	lw	s4,40(sp)
    4720:	8fb5002c 	lw	s5,44(sp)
    4724:	8fb60030 	lw	s6,48(sp)
    4728:	8fb70034 	lw	s7,52(sp)
    472c:	8fbe0038 	lw	s8,56(sp)
    4730:	03e00008 	jr	ra
    4734:	27bd0058 	addiu	sp,sp,88

00004738 <func_80103CC8>:
func_80103CC8():
    4738:	27bdff90 	addiu	sp,sp,-112
    473c:	27ae0020 	addiu	t6,sp,32
    4740:	3c010000 	lui	at,0x0
    4744:	afbf001c 	sw	ra,28(sp)
    4748:	afa40070 	sw	a0,112(sp)
    474c:	afa50074 	sw	a1,116(sp)
    4750:	afa60078 	sw	a2,120(sp)
    4754:	afa7007c 	sw	a3,124(sp)
    4758:	ac2e0000 	sw	t6,0(at)
    475c:	8c880000 	lw	t0,0(a0)
    4760:	27af0028 	addiu	t7,sp,40
    4764:	27a90034 	addiu	t1,sp,52
    4768:	ade80000 	sw	t0,0(t7)
    476c:	8c990004 	lw	t9,4(a0)
    4770:	3c0e0000 	lui	t6,0x0
    4774:	25ce0000 	addiu	t6,t6,0
    4778:	adf90004 	sw	t9,4(t7)
    477c:	8c880008 	lw	t0,8(a0)
    4780:	ade80008 	sw	t0,8(t7)
    4784:	8faa0074 	lw	t2,116(sp)
    4788:	3c0f0000 	lui	t7,0x0
    478c:	25ef0000 	addiu	t7,t7,0
    4790:	8d4c0000 	lw	t4,0(t2)
    4794:	ad2c0000 	sw	t4,0(t1)
    4798:	8d4b0004 	lw	t3,4(t2)
    479c:	ad2b0004 	sw	t3,4(t1)
    47a0:	8d4c0008 	lw	t4,8(t2)
    47a4:	ad2c0008 	sw	t4,8(t1)
    47a8:	8fad0078 	lw	t5,120(sp)
    47ac:	8fb8008c 	lw	t8,140(sp)
    47b0:	afa0005c 	sw	zero,92(sp)
    47b4:	afae0064 	sw	t6,100(sp)
    47b8:	afaf0060 	sw	t7,96(sp)
    47bc:	afa00054 	sw	zero,84(sp)
    47c0:	afa00058 	sw	zero,88(sp)
    47c4:	8fa70088 	lw	a3,136(sp)
    47c8:	8fa60084 	lw	a2,132(sp)
    47cc:	8fa50080 	lw	a1,128(sp)
    47d0:	8fa4007c 	lw	a0,124(sp)
    47d4:	afad004c 	sw	t5,76(sp)
    47d8:	0c000000 	jal	0 <func_800FF5E0_ovl2>
    47dc:	afb80010 	sw	t8,16(sp)
    47e0:	8fbf001c 	lw	ra,28(sp)
    47e4:	27bd0070 	addiu	sp,sp,112
    47e8:	03e00008 	jr	ra
    47ec:	00000000 	nop

000047f0 <func_80103D80_ovl2>:
func_80103D80_ovl2():
    47f0:	3c010000 	lui	at,0x0
    47f4:	c4240000 	lwc1	$f4,0(at)
    47f8:	27bdffe0 	addiu	sp,sp,-32
    47fc:	3c0e0000 	lui	t6,0x0
    4800:	3c0f0000 	lui	t7,0x0
    4804:	8def0000 	lw	t7,0(t7)
    4808:	8dce0000 	lw	t6,0(t6)
    480c:	afbf0014 	sw	ra,20(sp)
    4810:	afa40020 	sw	a0,32(sp)
    4814:	e7a4001c 	swc1	$f4,28(sp)
    4818:	27a4001c 	addiu	a0,sp,28
    481c:	0c000000 	jal	0 <func_800FF5E0_ovl2>
    4820:	adee0030 	sw	t6,48(t7)
    4824:	10400006 	beqz	v0,4840 <func_80103D80_ovl2+0x50>
    4828:	8fa30020 	lw	v1,32(sp)
    482c:	10600002 	beqz	v1,4838 <func_80103D80_ovl2+0x48>
    4830:	c7a6001c 	lwc1	$f6,28(sp)
    4834:	e4660000 	swc1	$f6,0(v1)
    4838:	10000002 	b	4844 <func_80103D80_ovl2+0x54>
    483c:	24020001 	li	v0,1
    4840:	00001025 	move	v0,zero
    4844:	8fbf0014 	lw	ra,20(sp)
    4848:	27bd0020 	addiu	sp,sp,32
    484c:	03e00008 	jr	ra
    4850:	00000000 	nop

00004854 <func_80103DE4_ovl2>:
func_80103DE4_ovl2():
    4854:	27bdff90 	addiu	sp,sp,-112
    4858:	27ae0020 	addiu	t6,sp,32
    485c:	3c010000 	lui	at,0x0
    4860:	afbf001c 	sw	ra,28(sp)
    4864:	afa40070 	sw	a0,112(sp)
    4868:	afa50074 	sw	a1,116(sp)
    486c:	afa60078 	sw	a2,120(sp)
    4870:	afa7007c 	sw	a3,124(sp)
    4874:	ac2e0000 	sw	t6,0(at)
    4878:	8c880000 	lw	t0,0(a0)
    487c:	27af0028 	addiu	t7,sp,40
    4880:	27a90034 	addiu	t1,sp,52
    4884:	ade80000 	sw	t0,0(t7)
    4888:	8c990004 	lw	t9,4(a0)
    488c:	3c0d0000 	lui	t5,0x0
    4890:	3c0e0000 	lui	t6,0x0
    4894:	adf90004 	sw	t9,4(t7)
    4898:	8c880008 	lw	t0,8(a0)
    489c:	25ad0000 	addiu	t5,t5,0
    48a0:	25ce0000 	addiu	t6,t6,0
    48a4:	ade80008 	sw	t0,8(t7)
    48a8:	8faa0074 	lw	t2,116(sp)
    48ac:	8d4c0000 	lw	t4,0(t2)
    48b0:	ad2c0000 	sw	t4,0(t1)
    48b4:	8d4b0004 	lw	t3,4(t2)
    48b8:	ad2b0004 	sw	t3,4(t1)
    48bc:	8d4c0008 	lw	t4,8(t2)
    48c0:	ad2c0008 	sw	t4,8(t1)
    48c4:	8faf0078 	lw	t7,120(sp)
    48c8:	8fb8007c 	lw	t8,124(sp)
    48cc:	8fb90090 	lw	t9,144(sp)
    48d0:	afa0004c 	sw	zero,76(sp)
    48d4:	afa0005c 	sw	zero,92(sp)
    48d8:	afad0064 	sw	t5,100(sp)
    48dc:	afae0060 	sw	t6,96(sp)
    48e0:	8fa7008c 	lw	a3,140(sp)
    48e4:	8fa60088 	lw	a2,136(sp)
    48e8:	8fa50084 	lw	a1,132(sp)
    48ec:	8fa40080 	lw	a0,128(sp)
    48f0:	afaf0054 	sw	t7,84(sp)
    48f4:	afb80058 	sw	t8,88(sp)
    48f8:	0c000000 	jal	0 <func_800FF5E0_ovl2>
    48fc:	afb90010 	sw	t9,16(sp)
    4900:	8fbf001c 	lw	ra,28(sp)
    4904:	27bd0070 	addiu	sp,sp,112
    4908:	03e00008 	jr	ra
    490c:	00000000 	nop

00004910 <func_80103EA0_ovl2>:
func_80103EA0_ovl2():
    4910:	27bdff90 	addiu	sp,sp,-112
    4914:	27ae0020 	addiu	t6,sp,32
    4918:	3c010000 	lui	at,0x0
    491c:	afbf001c 	sw	ra,28(sp)
    4920:	afa40070 	sw	a0,112(sp)
    4924:	afa50074 	sw	a1,116(sp)
    4928:	afa60078 	sw	a2,120(sp)
    492c:	afa7007c 	sw	a3,124(sp)
    4930:	ac2e0000 	sw	t6,0(at)
    4934:	8c880000 	lw	t0,0(a0)
    4938:	27af0028 	addiu	t7,sp,40
    493c:	27a90034 	addiu	t1,sp,52
    4940:	ade80000 	sw	t0,0(t7)
    4944:	8c990004 	lw	t9,4(a0)
    4948:	3c0e0000 	lui	t6,0x0
    494c:	25ce0000 	addiu	t6,t6,0
    4950:	adf90004 	sw	t9,4(t7)
    4954:	8c880008 	lw	t0,8(a0)
    4958:	ade80008 	sw	t0,8(t7)
    495c:	8faa0074 	lw	t2,116(sp)
    4960:	3c0f0000 	lui	t7,0x0
    4964:	25ef0000 	addiu	t7,t7,0
    4968:	8d4c0000 	lw	t4,0(t2)
    496c:	ad2c0000 	sw	t4,0(t1)
    4970:	8d4b0004 	lw	t3,4(t2)
    4974:	ad2b0004 	sw	t3,4(t1)
    4978:	8d4c0008 	lw	t4,8(t2)
    497c:	ad2c0008 	sw	t4,8(t1)
    4980:	8fad0078 	lw	t5,120(sp)
    4984:	8fb8008c 	lw	t8,140(sp)
    4988:	afae0064 	sw	t6,100(sp)
    498c:	afaf0060 	sw	t7,96(sp)
    4990:	afa00054 	sw	zero,84(sp)
    4994:	afa00058 	sw	zero,88(sp)
    4998:	afa0005c 	sw	zero,92(sp)
    499c:	8fa70088 	lw	a3,136(sp)
    49a0:	8fa60084 	lw	a2,132(sp)
    49a4:	8fa50080 	lw	a1,128(sp)
    49a8:	8fa4007c 	lw	a0,124(sp)
    49ac:	afad004c 	sw	t5,76(sp)
    49b0:	0c000000 	jal	0 <func_800FF5E0_ovl2>
    49b4:	afb80010 	sw	t8,16(sp)
    49b8:	8fbf001c 	lw	ra,28(sp)
    49bc:	27bd0070 	addiu	sp,sp,112
    49c0:	03e00008 	jr	ra
    49c4:	00000000 	nop

000049c8 <func_80103F58_ovl2>:
func_80103F58_ovl2():
    49c8:	27bdff90 	addiu	sp,sp,-112
    49cc:	27ae0020 	addiu	t6,sp,32
    49d0:	3c010000 	lui	at,0x0
    49d4:	afbf001c 	sw	ra,28(sp)
    49d8:	afa40070 	sw	a0,112(sp)
    49dc:	afa50074 	sw	a1,116(sp)
    49e0:	afa60078 	sw	a2,120(sp)
    49e4:	afa7007c 	sw	a3,124(sp)
    49e8:	ac2e0000 	sw	t6,0(at)
    49ec:	8c880000 	lw	t0,0(a0)
    49f0:	27af0028 	addiu	t7,sp,40
    49f4:	27a90034 	addiu	t1,sp,52
    49f8:	ade80000 	sw	t0,0(t7)
    49fc:	8c990004 	lw	t9,4(a0)
    4a00:	3c0e0000 	lui	t6,0x0
    4a04:	25ce0000 	addiu	t6,t6,0
    4a08:	adf90004 	sw	t9,4(t7)
    4a0c:	8c880008 	lw	t0,8(a0)
    4a10:	ade80008 	sw	t0,8(t7)
    4a14:	8faa0074 	lw	t2,116(sp)
    4a18:	3c0f0000 	lui	t7,0x0
    4a1c:	25ef0000 	addiu	t7,t7,0
    4a20:	8d4c0000 	lw	t4,0(t2)
    4a24:	ad2c0000 	sw	t4,0(t1)
    4a28:	8d4b0004 	lw	t3,4(t2)
    4a2c:	ad2b0004 	sw	t3,4(t1)
    4a30:	8d4c0008 	lw	t4,8(t2)
    4a34:	ad2c0008 	sw	t4,8(t1)
    4a38:	8fad0078 	lw	t5,120(sp)
    4a3c:	8fb8008c 	lw	t8,140(sp)
    4a40:	afae0064 	sw	t6,100(sp)
    4a44:	afaf0060 	sw	t7,96(sp)
    4a48:	afa00054 	sw	zero,84(sp)
    4a4c:	afa00058 	sw	zero,88(sp)
    4a50:	afa0005c 	sw	zero,92(sp)
    4a54:	8fa70088 	lw	a3,136(sp)
    4a58:	8fa60084 	lw	a2,132(sp)
    4a5c:	8fa50080 	lw	a1,128(sp)
    4a60:	8fa4007c 	lw	a0,124(sp)
    4a64:	afad004c 	sw	t5,76(sp)
    4a68:	0c000000 	jal	0 <func_800FF5E0_ovl2>
    4a6c:	afb80010 	sw	t8,16(sp)
    4a70:	8fbf001c 	lw	ra,28(sp)
    4a74:	27bd0070 	addiu	sp,sp,112
    4a78:	03e00008 	jr	ra
    4a7c:	00000000 	nop

00004a80 <func_80104010_ovl2>:
func_80104010_ovl2():
    4a80:	27bdff90 	addiu	sp,sp,-112
    4a84:	27ae0020 	addiu	t6,sp,32
    4a88:	3c010000 	lui	at,0x0
    4a8c:	afbf001c 	sw	ra,28(sp)
    4a90:	afa40070 	sw	a0,112(sp)
    4a94:	afa50074 	sw	a1,116(sp)
    4a98:	afa60078 	sw	a2,120(sp)
    4a9c:	afa7007c 	sw	a3,124(sp)
    4aa0:	ac2e0000 	sw	t6,0(at)
    4aa4:	8c880000 	lw	t0,0(a0)
    4aa8:	27af0028 	addiu	t7,sp,40
    4aac:	27a90034 	addiu	t1,sp,52
    4ab0:	ade80000 	sw	t0,0(t7)
    4ab4:	8c990004 	lw	t9,4(a0)
    4ab8:	3c0e0000 	lui	t6,0x0
    4abc:	25ce0000 	addiu	t6,t6,0
    4ac0:	adf90004 	sw	t9,4(t7)
    4ac4:	8c880008 	lw	t0,8(a0)
    4ac8:	ade80008 	sw	t0,8(t7)
    4acc:	8faa0074 	lw	t2,116(sp)
    4ad0:	3c0f0000 	lui	t7,0x0
    4ad4:	25ef0000 	addiu	t7,t7,0
    4ad8:	8d4c0000 	lw	t4,0(t2)
    4adc:	ad2c0000 	sw	t4,0(t1)
    4ae0:	8d4b0004 	lw	t3,4(t2)
    4ae4:	ad2b0004 	sw	t3,4(t1)
    4ae8:	8d4c0008 	lw	t4,8(t2)
    4aec:	ad2c0008 	sw	t4,8(t1)
    4af0:	8fad0078 	lw	t5,120(sp)
    4af4:	8fb8007c 	lw	t8,124(sp)
    4af8:	8fb90090 	lw	t9,144(sp)
    4afc:	afae0064 	sw	t6,100(sp)
    4b00:	afaf0060 	sw	t7,96(sp)
    4b04:	afa00058 	sw	zero,88(sp)
    4b08:	afa0005c 	sw	zero,92(sp)
    4b0c:	8fa7008c 	lw	a3,140(sp)
    4b10:	8fa60088 	lw	a2,136(sp)
    4b14:	8fa50084 	lw	a1,132(sp)
    4b18:	8fa40080 	lw	a0,128(sp)
    4b1c:	afad004c 	sw	t5,76(sp)
    4b20:	afb80054 	sw	t8,84(sp)
    4b24:	0c000000 	jal	0 <func_800FF5E0_ovl2>
    4b28:	afb90010 	sw	t9,16(sp)
    4b2c:	8fbf001c 	lw	ra,28(sp)
    4b30:	27bd0070 	addiu	sp,sp,112
    4b34:	03e00008 	jr	ra
    4b38:	00000000 	nop

00004b3c <func_801040CC_ovl2>:
func_801040CC_ovl2():
    4b3c:	27bdff90 	addiu	sp,sp,-112
    4b40:	27ae0020 	addiu	t6,sp,32
    4b44:	3c010000 	lui	at,0x0
    4b48:	afbf001c 	sw	ra,28(sp)
    4b4c:	afa40070 	sw	a0,112(sp)
    4b50:	afa50074 	sw	a1,116(sp)
    4b54:	afa60078 	sw	a2,120(sp)
    4b58:	afa7007c 	sw	a3,124(sp)
    4b5c:	ac2e0000 	sw	t6,0(at)
    4b60:	8c880000 	lw	t0,0(a0)
    4b64:	27af0028 	addiu	t7,sp,40
    4b68:	27a90034 	addiu	t1,sp,52
    4b6c:	ade80000 	sw	t0,0(t7)
    4b70:	8c990004 	lw	t9,4(a0)
    4b74:	3c0d0000 	lui	t5,0x0
    4b78:	3c0e0000 	lui	t6,0x0
    4b7c:	adf90004 	sw	t9,4(t7)
    4b80:	8c880008 	lw	t0,8(a0)
    4b84:	25ad0000 	addiu	t5,t5,0
    4b88:	25ce0000 	addiu	t6,t6,0
    4b8c:	ade80008 	sw	t0,8(t7)
    4b90:	8faa0074 	lw	t2,116(sp)
    4b94:	8d4c0000 	lw	t4,0(t2)
    4b98:	ad2c0000 	sw	t4,0(t1)
    4b9c:	8d4b0004 	lw	t3,4(t2)
    4ba0:	ad2b0004 	sw	t3,4(t1)
    4ba4:	8d4c0008 	lw	t4,8(t2)
    4ba8:	ad2c0008 	sw	t4,8(t1)
    4bac:	8faf0078 	lw	t7,120(sp)
    4bb0:	8fb8008c 	lw	t8,140(sp)
    4bb4:	afa0004c 	sw	zero,76(sp)
    4bb8:	afad0064 	sw	t5,100(sp)
    4bbc:	afae0060 	sw	t6,96(sp)
    4bc0:	afa00054 	sw	zero,84(sp)
    4bc4:	afa00058 	sw	zero,88(sp)
    4bc8:	8fa70088 	lw	a3,136(sp)
    4bcc:	8fa60084 	lw	a2,132(sp)
    4bd0:	8fa50080 	lw	a1,128(sp)
    4bd4:	8fa4007c 	lw	a0,124(sp)
    4bd8:	afaf005c 	sw	t7,92(sp)
    4bdc:	0c000000 	jal	0 <func_800FF5E0_ovl2>
    4be0:	afb80010 	sw	t8,16(sp)
    4be4:	8fbf001c 	lw	ra,28(sp)
    4be8:	27bd0070 	addiu	sp,sp,112
    4bec:	03e00008 	jr	ra
    4bf0:	00000000 	nop

00004bf4 <func_80104184_ovl2>:
func_80104184_ovl2():
    4bf4:	27bdff90 	addiu	sp,sp,-112
    4bf8:	27ae0020 	addiu	t6,sp,32
    4bfc:	3c010000 	lui	at,0x0
    4c00:	afbf001c 	sw	ra,28(sp)
    4c04:	afa40070 	sw	a0,112(sp)
    4c08:	afa50074 	sw	a1,116(sp)
    4c0c:	afa60078 	sw	a2,120(sp)
    4c10:	afa7007c 	sw	a3,124(sp)
    4c14:	ac2e0000 	sw	t6,0(at)
    4c18:	8c880000 	lw	t0,0(a0)
    4c1c:	27af0028 	addiu	t7,sp,40
    4c20:	27a90034 	addiu	t1,sp,52
    4c24:	ade80000 	sw	t0,0(t7)
    4c28:	8c990004 	lw	t9,4(a0)
    4c2c:	3c0d0000 	lui	t5,0x0
    4c30:	3c0e0000 	lui	t6,0x0
    4c34:	adf90004 	sw	t9,4(t7)
    4c38:	8c880008 	lw	t0,8(a0)
    4c3c:	25ad0000 	addiu	t5,t5,0
    4c40:	25ce0000 	addiu	t6,t6,0
    4c44:	ade80008 	sw	t0,8(t7)
    4c48:	8faa0074 	lw	t2,116(sp)
    4c4c:	8d4c0000 	lw	t4,0(t2)
    4c50:	ad2c0000 	sw	t4,0(t1)
    4c54:	8d4b0004 	lw	t3,4(t2)
    4c58:	ad2b0004 	sw	t3,4(t1)
    4c5c:	8d4c0008 	lw	t4,8(t2)
    4c60:	ad2c0008 	sw	t4,8(t1)
    4c64:	8faf0078 	lw	t7,120(sp)
    4c68:	8fb8008c 	lw	t8,140(sp)
    4c6c:	afa0004c 	sw	zero,76(sp)
    4c70:	afad0064 	sw	t5,100(sp)
    4c74:	afae0060 	sw	t6,96(sp)
    4c78:	afa00054 	sw	zero,84(sp)
    4c7c:	afa00058 	sw	zero,88(sp)
    4c80:	8fa70088 	lw	a3,136(sp)
    4c84:	8fa60084 	lw	a2,132(sp)
    4c88:	8fa50080 	lw	a1,128(sp)
    4c8c:	8fa4007c 	lw	a0,124(sp)
    4c90:	afaf005c 	sw	t7,92(sp)
    4c94:	0c000000 	jal	0 <func_800FF5E0_ovl2>
    4c98:	afb80010 	sw	t8,16(sp)
    4c9c:	8fbf001c 	lw	ra,28(sp)
    4ca0:	27bd0070 	addiu	sp,sp,112
    4ca4:	03e00008 	jr	ra
    4ca8:	00000000 	nop

00004cac <func_8010423C_ovl2>:
func_8010423C_ovl2():
    4cac:	27bdff90 	addiu	sp,sp,-112
    4cb0:	27ae0020 	addiu	t6,sp,32
    4cb4:	3c010000 	lui	at,0x0
    4cb8:	afbf001c 	sw	ra,28(sp)
    4cbc:	afa40070 	sw	a0,112(sp)
    4cc0:	afa50074 	sw	a1,116(sp)
    4cc4:	afa60078 	sw	a2,120(sp)
    4cc8:	afa7007c 	sw	a3,124(sp)
    4ccc:	ac2e0000 	sw	t6,0(at)
    4cd0:	8c880000 	lw	t0,0(a0)
    4cd4:	27af0028 	addiu	t7,sp,40
    4cd8:	27a90034 	addiu	t1,sp,52
    4cdc:	ade80000 	sw	t0,0(t7)
    4ce0:	8c990004 	lw	t9,4(a0)
    4ce4:	3c0e0000 	lui	t6,0x0
    4ce8:	25ce0000 	addiu	t6,t6,0
    4cec:	adf90004 	sw	t9,4(t7)
    4cf0:	8c880008 	lw	t0,8(a0)
    4cf4:	ade80008 	sw	t0,8(t7)
    4cf8:	8faa0074 	lw	t2,116(sp)
    4cfc:	3c0f0000 	lui	t7,0x0
    4d00:	25ef0000 	addiu	t7,t7,0
    4d04:	8d4c0000 	lw	t4,0(t2)
    4d08:	ad2c0000 	sw	t4,0(t1)
    4d0c:	8d4b0004 	lw	t3,4(t2)
    4d10:	ad2b0004 	sw	t3,4(t1)
    4d14:	8d4c0008 	lw	t4,8(t2)
    4d18:	ad2c0008 	sw	t4,8(t1)
    4d1c:	8fad0078 	lw	t5,120(sp)
    4d20:	8fb8008c 	lw	t8,140(sp)
    4d24:	afae0064 	sw	t6,100(sp)
    4d28:	afaf0060 	sw	t7,96(sp)
    4d2c:	afa00054 	sw	zero,84(sp)
    4d30:	afa00058 	sw	zero,88(sp)
    4d34:	afa0005c 	sw	zero,92(sp)
    4d38:	8fa70088 	lw	a3,136(sp)
    4d3c:	8fa60084 	lw	a2,132(sp)
    4d40:	8fa50080 	lw	a1,128(sp)
    4d44:	8fa4007c 	lw	a0,124(sp)
    4d48:	afad004c 	sw	t5,76(sp)
    4d4c:	0c000000 	jal	0 <func_800FF5E0_ovl2>
    4d50:	afb80010 	sw	t8,16(sp)
    4d54:	8fbf001c 	lw	ra,28(sp)
    4d58:	27bd0070 	addiu	sp,sp,112
    4d5c:	03e00008 	jr	ra
    4d60:	00000000 	nop

00004d64 <func_801042F4_ovl2>:
func_801042F4_ovl2():
    4d64:	27bdff90 	addiu	sp,sp,-112
    4d68:	27ae0020 	addiu	t6,sp,32
    4d6c:	3c010000 	lui	at,0x0
    4d70:	afbf001c 	sw	ra,28(sp)
    4d74:	afa40070 	sw	a0,112(sp)
    4d78:	afa50074 	sw	a1,116(sp)
    4d7c:	afa60078 	sw	a2,120(sp)
    4d80:	afa7007c 	sw	a3,124(sp)
    4d84:	ac2e0000 	sw	t6,0(at)
    4d88:	8c880000 	lw	t0,0(a0)
    4d8c:	27af0028 	addiu	t7,sp,40
    4d90:	27a90034 	addiu	t1,sp,52
    4d94:	ade80000 	sw	t0,0(t7)
    4d98:	8c990004 	lw	t9,4(a0)
    4d9c:	3c0e0000 	lui	t6,0x0
    4da0:	25ce0000 	addiu	t6,t6,0
    4da4:	adf90004 	sw	t9,4(t7)
    4da8:	8c880008 	lw	t0,8(a0)
    4dac:	ade80008 	sw	t0,8(t7)
    4db0:	8faa0074 	lw	t2,116(sp)
    4db4:	3c0f0000 	lui	t7,0x0
    4db8:	25ef0000 	addiu	t7,t7,0
    4dbc:	8d4c0000 	lw	t4,0(t2)
    4dc0:	ad2c0000 	sw	t4,0(t1)
    4dc4:	8d4b0004 	lw	t3,4(t2)
    4dc8:	ad2b0004 	sw	t3,4(t1)
    4dcc:	8d4c0008 	lw	t4,8(t2)
    4dd0:	ad2c0008 	sw	t4,8(t1)
    4dd4:	8fad0078 	lw	t5,120(sp)
    4dd8:	8fb8007c 	lw	t8,124(sp)
    4ddc:	8fb90090 	lw	t9,144(sp)
    4de0:	afae0064 	sw	t6,100(sp)
    4de4:	afaf0060 	sw	t7,96(sp)
    4de8:	afa00054 	sw	zero,84(sp)
    4dec:	afa0005c 	sw	zero,92(sp)
    4df0:	8fa7008c 	lw	a3,140(sp)
    4df4:	8fa60088 	lw	a2,136(sp)
    4df8:	8fa50084 	lw	a1,132(sp)
    4dfc:	8fa40080 	lw	a0,128(sp)
    4e00:	afad004c 	sw	t5,76(sp)
    4e04:	afb80058 	sw	t8,88(sp)
    4e08:	0c000000 	jal	0 <func_800FF5E0_ovl2>
    4e0c:	afb90010 	sw	t9,16(sp)
    4e10:	8fbf001c 	lw	ra,28(sp)
    4e14:	27bd0070 	addiu	sp,sp,112
    4e18:	03e00008 	jr	ra
    4e1c:	00000000 	nop

00004e20 <func_801043B0_ovl2>:
func_801043B0_ovl2():
    4e20:	27bdff90 	addiu	sp,sp,-112
    4e24:	27ae0020 	addiu	t6,sp,32
    4e28:	3c010000 	lui	at,0x0
    4e2c:	afbf001c 	sw	ra,28(sp)
    4e30:	afa40070 	sw	a0,112(sp)
    4e34:	afa50074 	sw	a1,116(sp)
    4e38:	afa60078 	sw	a2,120(sp)
    4e3c:	afa7007c 	sw	a3,124(sp)
    4e40:	ac2e0000 	sw	t6,0(at)
    4e44:	8c880000 	lw	t0,0(a0)
    4e48:	27af0028 	addiu	t7,sp,40
    4e4c:	27a90034 	addiu	t1,sp,52
    4e50:	ade80000 	sw	t0,0(t7)
    4e54:	8c990004 	lw	t9,4(a0)
    4e58:	3c0d0000 	lui	t5,0x0
    4e5c:	3c0e0000 	lui	t6,0x0
    4e60:	adf90004 	sw	t9,4(t7)
    4e64:	8c880008 	lw	t0,8(a0)
    4e68:	25ad0000 	addiu	t5,t5,0
    4e6c:	25ce0000 	addiu	t6,t6,0
    4e70:	ade80008 	sw	t0,8(t7)
    4e74:	8faa0074 	lw	t2,116(sp)
    4e78:	8d4c0000 	lw	t4,0(t2)
    4e7c:	ad2c0000 	sw	t4,0(t1)
    4e80:	8d4b0004 	lw	t3,4(t2)
    4e84:	ad2b0004 	sw	t3,4(t1)
    4e88:	8d4c0008 	lw	t4,8(t2)
    4e8c:	ad2c0008 	sw	t4,8(t1)
    4e90:	8faf0078 	lw	t7,120(sp)
    4e94:	8fb8008c 	lw	t8,140(sp)
    4e98:	afa0004c 	sw	zero,76(sp)
    4e9c:	afad0064 	sw	t5,100(sp)
    4ea0:	afae0060 	sw	t6,96(sp)
    4ea4:	afa00054 	sw	zero,84(sp)
    4ea8:	afa00058 	sw	zero,88(sp)
    4eac:	8fa70088 	lw	a3,136(sp)
    4eb0:	8fa60084 	lw	a2,132(sp)
    4eb4:	8fa50080 	lw	a1,128(sp)
    4eb8:	8fa4007c 	lw	a0,124(sp)
    4ebc:	afaf005c 	sw	t7,92(sp)
    4ec0:	0c000000 	jal	0 <func_800FF5E0_ovl2>
    4ec4:	afb80010 	sw	t8,16(sp)
    4ec8:	8fbf001c 	lw	ra,28(sp)
    4ecc:	27bd0070 	addiu	sp,sp,112
    4ed0:	03e00008 	jr	ra
    4ed4:	00000000 	nop

00004ed8 <func_80104468_ovl2>:
func_80104468_ovl2():
    4ed8:	27bdff90 	addiu	sp,sp,-112
    4edc:	27ae0020 	addiu	t6,sp,32
    4ee0:	3c010000 	lui	at,0x0
    4ee4:	afbf001c 	sw	ra,28(sp)
    4ee8:	afa40070 	sw	a0,112(sp)
    4eec:	afa50074 	sw	a1,116(sp)
    4ef0:	afa60078 	sw	a2,120(sp)
    4ef4:	afa7007c 	sw	a3,124(sp)
    4ef8:	ac2e0000 	sw	t6,0(at)
    4efc:	8c880000 	lw	t0,0(a0)
    4f00:	27af0028 	addiu	t7,sp,40
    4f04:	27a90034 	addiu	t1,sp,52
    4f08:	ade80000 	sw	t0,0(t7)
    4f0c:	8c990004 	lw	t9,4(a0)
    4f10:	3c0d0000 	lui	t5,0x0
    4f14:	3c0e0000 	lui	t6,0x0
    4f18:	adf90004 	sw	t9,4(t7)
    4f1c:	8c880008 	lw	t0,8(a0)
    4f20:	25ad0000 	addiu	t5,t5,0
    4f24:	25ce0000 	addiu	t6,t6,0
    4f28:	ade80008 	sw	t0,8(t7)
    4f2c:	8faa0074 	lw	t2,116(sp)
    4f30:	8d4c0000 	lw	t4,0(t2)
    4f34:	ad2c0000 	sw	t4,0(t1)
    4f38:	8d4b0004 	lw	t3,4(t2)
    4f3c:	ad2b0004 	sw	t3,4(t1)
    4f40:	8d4c0008 	lw	t4,8(t2)
    4f44:	ad2c0008 	sw	t4,8(t1)
    4f48:	8faf0078 	lw	t7,120(sp)
    4f4c:	8fb8008c 	lw	t8,140(sp)
    4f50:	afa0004c 	sw	zero,76(sp)
    4f54:	afad0064 	sw	t5,100(sp)
    4f58:	afae0060 	sw	t6,96(sp)
    4f5c:	afa00058 	sw	zero,88(sp)
    4f60:	afa0005c 	sw	zero,92(sp)
    4f64:	8fa70088 	lw	a3,136(sp)
    4f68:	8fa60084 	lw	a2,132(sp)
    4f6c:	8fa50080 	lw	a1,128(sp)
    4f70:	8fa4007c 	lw	a0,124(sp)
    4f74:	afaf0054 	sw	t7,84(sp)
    4f78:	0c000000 	jal	0 <func_800FF5E0_ovl2>
    4f7c:	afb80010 	sw	t8,16(sp)
    4f80:	8fbf001c 	lw	ra,28(sp)
    4f84:	27bd0070 	addiu	sp,sp,112
    4f88:	03e00008 	jr	ra
    4f8c:	00000000 	nop

00004f90 <func_80104520_ovl2>:
func_80104520_ovl2():
    4f90:	27bdff90 	addiu	sp,sp,-112
    4f94:	27ae0020 	addiu	t6,sp,32
    4f98:	3c010000 	lui	at,0x0
    4f9c:	afbf001c 	sw	ra,28(sp)
    4fa0:	afa40070 	sw	a0,112(sp)
    4fa4:	afa50074 	sw	a1,116(sp)
    4fa8:	afa60078 	sw	a2,120(sp)
    4fac:	afa7007c 	sw	a3,124(sp)
    4fb0:	ac2e0000 	sw	t6,0(at)
    4fb4:	8c880000 	lw	t0,0(a0)
    4fb8:	27af0028 	addiu	t7,sp,40
    4fbc:	27a90034 	addiu	t1,sp,52
    4fc0:	ade80000 	sw	t0,0(t7)
    4fc4:	8c990004 	lw	t9,4(a0)
    4fc8:	3c0d0000 	lui	t5,0x0
    4fcc:	3c0e0000 	lui	t6,0x0
    4fd0:	adf90004 	sw	t9,4(t7)
    4fd4:	8c880008 	lw	t0,8(a0)
    4fd8:	25ad0000 	addiu	t5,t5,0
    4fdc:	25ce0000 	addiu	t6,t6,0
    4fe0:	ade80008 	sw	t0,8(t7)
    4fe4:	8faa0074 	lw	t2,116(sp)
    4fe8:	8d4c0000 	lw	t4,0(t2)
    4fec:	ad2c0000 	sw	t4,0(t1)
    4ff0:	8d4b0004 	lw	t3,4(t2)
    4ff4:	ad2b0004 	sw	t3,4(t1)
    4ff8:	8d4c0008 	lw	t4,8(t2)
    4ffc:	ad2c0008 	sw	t4,8(t1)
    5000:	8faf0078 	lw	t7,120(sp)
    5004:	8fb8007c 	lw	t8,124(sp)
    5008:	8fb90090 	lw	t9,144(sp)
    500c:	afa0004c 	sw	zero,76(sp)
    5010:	afad0064 	sw	t5,100(sp)
    5014:	afae0060 	sw	t6,96(sp)
    5018:	afa0005c 	sw	zero,92(sp)
    501c:	8fa7008c 	lw	a3,140(sp)
    5020:	8fa60088 	lw	a2,136(sp)
    5024:	8fa50084 	lw	a1,132(sp)
    5028:	8fa40080 	lw	a0,128(sp)
    502c:	afaf0054 	sw	t7,84(sp)
    5030:	afb80058 	sw	t8,88(sp)
    5034:	0c000000 	jal	0 <func_800FF5E0_ovl2>
    5038:	afb90010 	sw	t9,16(sp)
    503c:	8fbf001c 	lw	ra,28(sp)
    5040:	27bd0070 	addiu	sp,sp,112
    5044:	03e00008 	jr	ra
    5048:	00000000 	nop

0000504c <func_801045DC_ovl2>:
func_801045DC_ovl2():
    504c:	27bdff90 	addiu	sp,sp,-112
    5050:	27ae0020 	addiu	t6,sp,32
    5054:	3c010000 	lui	at,0x0
    5058:	afbf001c 	sw	ra,28(sp)
    505c:	afa40070 	sw	a0,112(sp)
    5060:	afa50074 	sw	a1,116(sp)
    5064:	afa60078 	sw	a2,120(sp)
    5068:	afa7007c 	sw	a3,124(sp)
    506c:	ac2e0000 	sw	t6,0(at)
    5070:	8c880000 	lw	t0,0(a0)
    5074:	27af0028 	addiu	t7,sp,40
    5078:	27a90034 	addiu	t1,sp,52
    507c:	ade80000 	sw	t0,0(t7)
    5080:	8c990004 	lw	t9,4(a0)
    5084:	3c0d0000 	lui	t5,0x0
    5088:	3c0e0000 	lui	t6,0x0
    508c:	adf90004 	sw	t9,4(t7)
    5090:	8c880008 	lw	t0,8(a0)
    5094:	25ad0000 	addiu	t5,t5,0
    5098:	25ce0000 	addiu	t6,t6,0
    509c:	ade80008 	sw	t0,8(t7)
    50a0:	8faa0074 	lw	t2,116(sp)
    50a4:	8d4c0000 	lw	t4,0(t2)
    50a8:	ad2c0000 	sw	t4,0(t1)
    50ac:	8d4b0004 	lw	t3,4(t2)
    50b0:	ad2b0004 	sw	t3,4(t1)
    50b4:	8d4c0008 	lw	t4,8(t2)
    50b8:	ad2c0008 	sw	t4,8(t1)
    50bc:	97af007a 	lhu	t7,122(sp)
    50c0:	97b8007e 	lhu	t8,126(sp)
    50c4:	8fb90090 	lw	t9,144(sp)
    50c8:	afa0004c 	sw	zero,76(sp)
    50cc:	afad0064 	sw	t5,100(sp)
    50d0:	afae0060 	sw	t6,96(sp)
    50d4:	afa00054 	sw	zero,84(sp)
    50d8:	afa00058 	sw	zero,88(sp)
    50dc:	afa0005c 	sw	zero,92(sp)
    50e0:	8fa7008c 	lw	a3,140(sp)
    50e4:	8fa60088 	lw	a2,136(sp)
    50e8:	8fa50084 	lw	a1,132(sp)
    50ec:	8fa40080 	lw	a0,128(sp)
    50f0:	a7af006a 	sh	t7,106(sp)
    50f4:	a7b8006c 	sh	t8,108(sp)
    50f8:	0c000000 	jal	0 <func_800FF5E0_ovl2>
    50fc:	afb90010 	sw	t9,16(sp)
    5100:	8fbf001c 	lw	ra,28(sp)
    5104:	27bd0070 	addiu	sp,sp,112
    5108:	03e00008 	jr	ra
    510c:	00000000 	nop

00005110 <func_801046A0_ovl2>:
func_801046A0_ovl2():
    5110:	27bdff98 	addiu	sp,sp,-104
    5114:	27ae0018 	addiu	t6,sp,24
    5118:	3c010000 	lui	at,0x0
    511c:	afbf0014 	sw	ra,20(sp)
    5120:	afa40068 	sw	a0,104(sp)
    5124:	afa5006c 	sw	a1,108(sp)
    5128:	afa60070 	sw	a2,112(sp)
    512c:	afa70074 	sw	a3,116(sp)
    5130:	ac2e0000 	sw	t6,0(at)
    5134:	8c880000 	lw	t0,0(a0)
    5138:	27af0020 	addiu	t7,sp,32
    513c:	27a9002c 	addiu	t1,sp,44
    5140:	ade80000 	sw	t0,0(t7)
    5144:	8c990004 	lw	t9,4(a0)
    5148:	3c0d0000 	lui	t5,0x0
    514c:	3c0e0000 	lui	t6,0x0
    5150:	adf90004 	sw	t9,4(t7)
    5154:	8c880008 	lw	t0,8(a0)
    5158:	25ad0000 	addiu	t5,t5,0
    515c:	25ce0000 	addiu	t6,t6,0
    5160:	ade80008 	sw	t0,8(t7)
    5164:	8faa006c 	lw	t2,108(sp)
    5168:	8d4c0000 	lw	t4,0(t2)
    516c:	ad2c0000 	sw	t4,0(t1)
    5170:	8d4b0004 	lw	t3,4(t2)
    5174:	ad2b0004 	sw	t3,4(t1)
    5178:	8d4c0008 	lw	t4,8(t2)
    517c:	ad2c0008 	sw	t4,8(t1)
    5180:	afa00044 	sw	zero,68(sp)
    5184:	afa00054 	sw	zero,84(sp)
    5188:	afad005c 	sw	t5,92(sp)
    518c:	afae0058 	sw	t6,88(sp)
    5190:	afa0004c 	sw	zero,76(sp)
    5194:	afa00050 	sw	zero,80(sp)
    5198:	8fa7007c 	lw	a3,124(sp)
    519c:	8fa60078 	lw	a2,120(sp)
    51a0:	8fa50074 	lw	a1,116(sp)
    51a4:	0c000000 	jal	0 <func_800FF5E0_ovl2>
    51a8:	8fa40070 	lw	a0,112(sp)
    51ac:	8fbf0014 	lw	ra,20(sp)
    51b0:	27bd0068 	addiu	sp,sp,104
    51b4:	03e00008 	jr	ra
    51b8:	00000000 	nop

000051bc <func_8010474C_ovl2>:
func_8010474C_ovl2():
    51bc:	27bdff98 	addiu	sp,sp,-104
    51c0:	27ae0018 	addiu	t6,sp,24
    51c4:	3c010000 	lui	at,0x0
    51c8:	afbf0014 	sw	ra,20(sp)
    51cc:	afa40068 	sw	a0,104(sp)
    51d0:	afa5006c 	sw	a1,108(sp)
    51d4:	ac2e0000 	sw	t6,0(at)
    51d8:	8c880000 	lw	t0,0(a0)
    51dc:	27af0020 	addiu	t7,sp,32
    51e0:	27a9002c 	addiu	t1,sp,44
    51e4:	ade80000 	sw	t0,0(t7)
    51e8:	8c990004 	lw	t9,4(a0)
    51ec:	3c0d0000 	lui	t5,0x0
    51f0:	3c0e0000 	lui	t6,0x0
    51f4:	adf90004 	sw	t9,4(t7)
    51f8:	8c880008 	lw	t0,8(a0)
    51fc:	25ad0000 	addiu	t5,t5,0
    5200:	25ce0000 	addiu	t6,t6,0
    5204:	ade80008 	sw	t0,8(t7)
    5208:	8faa006c 	lw	t2,108(sp)
    520c:	00002025 	move	a0,zero
    5210:	00002825 	move	a1,zero
    5214:	8d4c0000 	lw	t4,0(t2)
    5218:	00003025 	move	a2,zero
    521c:	00003825 	move	a3,zero
    5220:	ad2c0000 	sw	t4,0(t1)
    5224:	8d4b0004 	lw	t3,4(t2)
    5228:	ad2b0004 	sw	t3,4(t1)
    522c:	8d4c0008 	lw	t4,8(t2)
    5230:	ad2c0008 	sw	t4,8(t1)
    5234:	afa00044 	sw	zero,68(sp)
    5238:	afa00054 	sw	zero,84(sp)
    523c:	afad005c 	sw	t5,92(sp)
    5240:	afae0058 	sw	t6,88(sp)
    5244:	afa0004c 	sw	zero,76(sp)
    5248:	0c000000 	jal	0 <func_800FF5E0_ovl2>
    524c:	afa00050 	sw	zero,80(sp)
    5250:	8fbf0014 	lw	ra,20(sp)
    5254:	27bd0068 	addiu	sp,sp,104
    5258:	03e00008 	jr	ra
    525c:	00000000 	nop

00005260 <func_801047F0_ovl2>:
func_801047F0_ovl2():
    5260:	27bdff90 	addiu	sp,sp,-112
    5264:	27ae0020 	addiu	t6,sp,32
    5268:	3c010000 	lui	at,0x0
    526c:	afbf001c 	sw	ra,28(sp)
    5270:	afa40070 	sw	a0,112(sp)
    5274:	afa50074 	sw	a1,116(sp)
    5278:	afa60078 	sw	a2,120(sp)
    527c:	afa7007c 	sw	a3,124(sp)
    5280:	ac2e0000 	sw	t6,0(at)
    5284:	8c880000 	lw	t0,0(a0)
    5288:	27af0028 	addiu	t7,sp,40
    528c:	27a90034 	addiu	t1,sp,52
    5290:	ade80000 	sw	t0,0(t7)
    5294:	8c990004 	lw	t9,4(a0)
    5298:	3c0d0000 	lui	t5,0x0
    529c:	3c0e0000 	lui	t6,0x0
    52a0:	adf90004 	sw	t9,4(t7)
    52a4:	8c880008 	lw	t0,8(a0)
    52a8:	25ad0000 	addiu	t5,t5,0
    52ac:	25ce0000 	addiu	t6,t6,0
    52b0:	ade80008 	sw	t0,8(t7)
    52b4:	8faa0074 	lw	t2,116(sp)
    52b8:	8d4c0000 	lw	t4,0(t2)
    52bc:	ad2c0000 	sw	t4,0(t1)
    52c0:	8d4b0004 	lw	t3,4(t2)
    52c4:	ad2b0004 	sw	t3,4(t1)
    52c8:	8d4c0008 	lw	t4,8(t2)
    52cc:	ad2c0008 	sw	t4,8(t1)
    52d0:	8faf0088 	lw	t7,136(sp)
    52d4:	afa0004c 	sw	zero,76(sp)
    52d8:	afad0064 	sw	t5,100(sp)
    52dc:	afae0060 	sw	t6,96(sp)
    52e0:	afa00054 	sw	zero,84(sp)
    52e4:	afa00058 	sw	zero,88(sp)
    52e8:	afa0005c 	sw	zero,92(sp)
    52ec:	8fa70084 	lw	a3,132(sp)
    52f0:	8fa60080 	lw	a2,128(sp)
    52f4:	8fa5007c 	lw	a1,124(sp)
    52f8:	8fa40078 	lw	a0,120(sp)
    52fc:	0c000000 	jal	0 <func_800FF5E0_ovl2>
    5300:	afaf0010 	sw	t7,16(sp)
    5304:	8fbf001c 	lw	ra,28(sp)
    5308:	27bd0070 	addiu	sp,sp,112
    530c:	03e00008 	jr	ra
    5310:	00000000 	nop

00005314 <func_801048A4_ovl2>:
func_801048A4_ovl2():
    5314:	27bdff90 	addiu	sp,sp,-112
    5318:	27ae0020 	addiu	t6,sp,32
    531c:	3c010000 	lui	at,0x0
    5320:	afbf001c 	sw	ra,28(sp)
    5324:	afa40070 	sw	a0,112(sp)
    5328:	afa50074 	sw	a1,116(sp)
    532c:	afa60078 	sw	a2,120(sp)
    5330:	afa7007c 	sw	a3,124(sp)
    5334:	ac2e0000 	sw	t6,0(at)
    5338:	8c880000 	lw	t0,0(a0)
    533c:	27af0028 	addiu	t7,sp,40
    5340:	27a90034 	addiu	t1,sp,52
    5344:	ade80000 	sw	t0,0(t7)
    5348:	8c990004 	lw	t9,4(a0)
    534c:	3c0d0000 	lui	t5,0x0
    5350:	3c0e0000 	lui	t6,0x0
    5354:	adf90004 	sw	t9,4(t7)
    5358:	8c880008 	lw	t0,8(a0)
    535c:	25ad0000 	addiu	t5,t5,0
    5360:	25ce0000 	addiu	t6,t6,0
    5364:	ade80008 	sw	t0,8(t7)
    5368:	8faa0074 	lw	t2,116(sp)
    536c:	8d4c0000 	lw	t4,0(t2)
    5370:	ad2c0000 	sw	t4,0(t1)
    5374:	8d4b0004 	lw	t3,4(t2)
    5378:	ad2b0004 	sw	t3,4(t1)
    537c:	8d4c0008 	lw	t4,8(t2)
    5380:	ad2c0008 	sw	t4,8(t1)
    5384:	8faf0088 	lw	t7,136(sp)
    5388:	afa0004c 	sw	zero,76(sp)
    538c:	afad0064 	sw	t5,100(sp)
    5390:	afae0060 	sw	t6,96(sp)
    5394:	afa00054 	sw	zero,84(sp)
    5398:	afa00058 	sw	zero,88(sp)
    539c:	afa0005c 	sw	zero,92(sp)
    53a0:	8fa70084 	lw	a3,132(sp)
    53a4:	8fa60080 	lw	a2,128(sp)
    53a8:	8fa5007c 	lw	a1,124(sp)
    53ac:	8fa40078 	lw	a0,120(sp)
    53b0:	0c000000 	jal	0 <func_800FF5E0_ovl2>
    53b4:	afaf0010 	sw	t7,16(sp)
    53b8:	8fbf001c 	lw	ra,28(sp)
    53bc:	27bd0070 	addiu	sp,sp,112
    53c0:	03e00008 	jr	ra
    53c4:	00000000 	nop

000053c8 <func_80104958_ovl2>:
func_80104958_ovl2():
    53c8:	27bdff90 	addiu	sp,sp,-112
    53cc:	27ae0020 	addiu	t6,sp,32
    53d0:	3c010000 	lui	at,0x0
    53d4:	afbf001c 	sw	ra,28(sp)
    53d8:	afa40070 	sw	a0,112(sp)
    53dc:	afa50074 	sw	a1,116(sp)
    53e0:	afa60078 	sw	a2,120(sp)
    53e4:	afa7007c 	sw	a3,124(sp)
    53e8:	ac2e0000 	sw	t6,0(at)
    53ec:	8c880000 	lw	t0,0(a0)
    53f0:	27af0028 	addiu	t7,sp,40
    53f4:	27a90034 	addiu	t1,sp,52
    53f8:	ade80000 	sw	t0,0(t7)
    53fc:	8c990004 	lw	t9,4(a0)
    5400:	3c0d0000 	lui	t5,0x0
    5404:	3c0e0000 	lui	t6,0x0
    5408:	adf90004 	sw	t9,4(t7)
    540c:	8c880008 	lw	t0,8(a0)
    5410:	25ad0000 	addiu	t5,t5,0
    5414:	25ce0000 	addiu	t6,t6,0
    5418:	ade80008 	sw	t0,8(t7)
    541c:	8faa0074 	lw	t2,116(sp)
    5420:	00002025 	move	a0,zero
    5424:	8d4c0000 	lw	t4,0(t2)
    5428:	ad2c0000 	sw	t4,0(t1)
    542c:	8d4b0004 	lw	t3,4(t2)
    5430:	ad2b0004 	sw	t3,4(t1)
    5434:	8d4c0008 	lw	t4,8(t2)
    5438:	ad2c0008 	sw	t4,8(t1)
    543c:	afa0004c 	sw	zero,76(sp)
    5440:	afad0064 	sw	t5,100(sp)
    5444:	afae0060 	sw	t6,96(sp)
    5448:	afa00054 	sw	zero,84(sp)
    544c:	afa00058 	sw	zero,88(sp)
    5450:	afa0005c 	sw	zero,92(sp)
    5454:	afa00010 	sw	zero,16(sp)
    5458:	8fa70080 	lw	a3,128(sp)
    545c:	8fa6007c 	lw	a2,124(sp)
    5460:	0c000000 	jal	0 <func_800FF5E0_ovl2>
    5464:	8fa50078 	lw	a1,120(sp)
    5468:	8fbf001c 	lw	ra,28(sp)
    546c:	27bd0070 	addiu	sp,sp,112
    5470:	03e00008 	jr	ra
    5474:	00000000 	nop

00005478 <func_80104A08_ovl2>:
func_80104A08_ovl2():
    5478:	27bdff98 	addiu	sp,sp,-104
    547c:	27ae0018 	addiu	t6,sp,24
    5480:	3c010000 	lui	at,0x0
    5484:	afbf0014 	sw	ra,20(sp)
    5488:	afa40068 	sw	a0,104(sp)
    548c:	afa5006c 	sw	a1,108(sp)
    5490:	afa60070 	sw	a2,112(sp)
    5494:	afa70074 	sw	a3,116(sp)
    5498:	ac2e0000 	sw	t6,0(at)
    549c:	8c880000 	lw	t0,0(a0)
    54a0:	27af0020 	addiu	t7,sp,32
    54a4:	27a9002c 	addiu	t1,sp,44
    54a8:	ade80000 	sw	t0,0(t7)
    54ac:	8c990004 	lw	t9,4(a0)
    54b0:	3c0d0000 	lui	t5,0x0
    54b4:	3c0e0000 	lui	t6,0x0
    54b8:	adf90004 	sw	t9,4(t7)
    54bc:	8c880008 	lw	t0,8(a0)
    54c0:	25ad0000 	addiu	t5,t5,0
    54c4:	25ce0000 	addiu	t6,t6,0
    54c8:	ade80008 	sw	t0,8(t7)
    54cc:	8faa006c 	lw	t2,108(sp)
    54d0:	00002025 	move	a0,zero
    54d4:	8d4c0000 	lw	t4,0(t2)
    54d8:	ad2c0000 	sw	t4,0(t1)
    54dc:	8d4b0004 	lw	t3,4(t2)
    54e0:	ad2b0004 	sw	t3,4(t1)
    54e4:	8d4c0008 	lw	t4,8(t2)
    54e8:	ad2c0008 	sw	t4,8(t1)
    54ec:	afa00044 	sw	zero,68(sp)
    54f0:	afad005c 	sw	t5,92(sp)
    54f4:	afae0058 	sw	t6,88(sp)
    54f8:	afa0004c 	sw	zero,76(sp)
    54fc:	afa00050 	sw	zero,80(sp)
    5500:	afa00054 	sw	zero,84(sp)
    5504:	8fa70078 	lw	a3,120(sp)
    5508:	8fa60074 	lw	a2,116(sp)
    550c:	0c000000 	jal	0 <func_800FF5E0_ovl2>
    5510:	8fa50070 	lw	a1,112(sp)
    5514:	8fbf0014 	lw	ra,20(sp)
    5518:	27bd0068 	addiu	sp,sp,104
    551c:	03e00008 	jr	ra
    5520:	00000000 	nop

00005524 <func_80104AB4_ovl2>:
func_80104AB4_ovl2():
    5524:	27bdff98 	addiu	sp,sp,-104
    5528:	27ae0018 	addiu	t6,sp,24
    552c:	3c010000 	lui	at,0x0
    5530:	afbf0014 	sw	ra,20(sp)
    5534:	afa40068 	sw	a0,104(sp)
    5538:	afa5006c 	sw	a1,108(sp)
    553c:	afa60070 	sw	a2,112(sp)
    5540:	afa70074 	sw	a3,116(sp)
    5544:	ac2e0000 	sw	t6,0(at)
    5548:	8c880000 	lw	t0,0(a0)
    554c:	27af0020 	addiu	t7,sp,32
    5550:	27a9002c 	addiu	t1,sp,44
    5554:	ade80000 	sw	t0,0(t7)
    5558:	8c990004 	lw	t9,4(a0)
    555c:	3c0d0000 	lui	t5,0x0
    5560:	3c0e0000 	lui	t6,0x0
    5564:	adf90004 	sw	t9,4(t7)
    5568:	8c880008 	lw	t0,8(a0)
    556c:	25ad0000 	addiu	t5,t5,0
    5570:	25ce0000 	addiu	t6,t6,0
    5574:	ade80008 	sw	t0,8(t7)
    5578:	8faa006c 	lw	t2,108(sp)
    557c:	00002025 	move	a0,zero
    5580:	00003025 	move	a2,zero
    5584:	8d4c0000 	lw	t4,0(t2)
    5588:	00002825 	move	a1,zero
    558c:	ad2c0000 	sw	t4,0(t1)
    5590:	8d4b0004 	lw	t3,4(t2)
    5594:	ad2b0004 	sw	t3,4(t1)
    5598:	8d4c0008 	lw	t4,8(t2)
    559c:	ad2c0008 	sw	t4,8(t1)
    55a0:	97af0072 	lhu	t7,114(sp)
    55a4:	97b80076 	lhu	t8,118(sp)
    55a8:	afa00044 	sw	zero,68(sp)
    55ac:	afa00054 	sw	zero,84(sp)
    55b0:	afad005c 	sw	t5,92(sp)
    55b4:	afae0058 	sw	t6,88(sp)
    55b8:	afa0004c 	sw	zero,76(sp)
    55bc:	afa00050 	sw	zero,80(sp)
    55c0:	8fa70078 	lw	a3,120(sp)
    55c4:	a7af0060 	sh	t7,96(sp)
    55c8:	0c000000 	jal	0 <func_800FF5E0_ovl2>
    55cc:	a7b80062 	sh	t8,98(sp)
    55d0:	8fbf0014 	lw	ra,20(sp)
    55d4:	27bd0068 	addiu	sp,sp,104
    55d8:	03e00008 	jr	ra
    55dc:	00000000 	nop

000055e0 <func_80104B70_ovl2>:
func_80104B70_ovl2():
    55e0:	27bdff90 	addiu	sp,sp,-112
    55e4:	27ae0020 	addiu	t6,sp,32
    55e8:	3c010000 	lui	at,0x0
    55ec:	afbf001c 	sw	ra,28(sp)
    55f0:	afa40070 	sw	a0,112(sp)
    55f4:	afa50074 	sw	a1,116(sp)
    55f8:	afa60078 	sw	a2,120(sp)
    55fc:	afa7007c 	sw	a3,124(sp)
    5600:	ac2e0000 	sw	t6,0(at)
    5604:	8c880000 	lw	t0,0(a0)
    5608:	27af0028 	addiu	t7,sp,40
    560c:	27a90034 	addiu	t1,sp,52
    5610:	ade80000 	sw	t0,0(t7)
    5614:	8c990004 	lw	t9,4(a0)
    5618:	3c0d0000 	lui	t5,0x0
    561c:	3c0e0000 	lui	t6,0x0
    5620:	adf90004 	sw	t9,4(t7)
    5624:	8c880008 	lw	t0,8(a0)
    5628:	25ad0000 	addiu	t5,t5,0
    562c:	25ce0000 	addiu	t6,t6,0
    5630:	ade80008 	sw	t0,8(t7)
    5634:	8faa0074 	lw	t2,116(sp)
    5638:	8d4c0000 	lw	t4,0(t2)
    563c:	ad2c0000 	sw	t4,0(t1)
    5640:	8d4b0004 	lw	t3,4(t2)
    5644:	ad2b0004 	sw	t3,4(t1)
    5648:	8d4c0008 	lw	t4,8(t2)
    564c:	ad2c0008 	sw	t4,8(t1)
    5650:	8faf0088 	lw	t7,136(sp)
    5654:	afa0004c 	sw	zero,76(sp)
    5658:	afad0064 	sw	t5,100(sp)
    565c:	afae0060 	sw	t6,96(sp)
    5660:	afa00054 	sw	zero,84(sp)
    5664:	afa00058 	sw	zero,88(sp)
    5668:	afa0005c 	sw	zero,92(sp)
    566c:	8fa70084 	lw	a3,132(sp)
    5670:	8fa60080 	lw	a2,128(sp)
    5674:	8fa5007c 	lw	a1,124(sp)
    5678:	8fa40078 	lw	a0,120(sp)
    567c:	0c000000 	jal	0 <func_800FF5E0_ovl2>
    5680:	afaf0010 	sw	t7,16(sp)
    5684:	8fbf001c 	lw	ra,28(sp)
    5688:	27bd0070 	addiu	sp,sp,112
    568c:	03e00008 	jr	ra
    5690:	00000000 	nop

00005694 <func_80104C24_ovl2>:
func_80104C24_ovl2():
    5694:	27bdff80 	addiu	sp,sp,-128
    5698:	27ae0028 	addiu	t6,sp,40
    569c:	3c010000 	lui	at,0x0
    56a0:	afbf0014 	sw	ra,20(sp)
    56a4:	afa40080 	sw	a0,128(sp)
    56a8:	afa50084 	sw	a1,132(sp)
    56ac:	ac2e0000 	sw	t6,0(at)
    56b0:	8c890000 	lw	t1,0(a0)
    56b4:	27af0030 	addiu	t7,sp,48
    56b8:	27aa003c 	addiu	t2,sp,60
    56bc:	ade90000 	sw	t1,0(t7)
    56c0:	8c990004 	lw	t9,4(a0)
    56c4:	3c0e0000 	lui	t6,0x0
    56c8:	25ce0000 	addiu	t6,t6,0
    56cc:	adf90004 	sw	t9,4(t7)
    56d0:	8c890008 	lw	t1,8(a0)
    56d4:	00002025 	move	a0,zero
    56d8:	00002825 	move	a1,zero
    56dc:	ade90008 	sw	t1,8(t7)
    56e0:	8fab0084 	lw	t3,132(sp)
    56e4:	3c0f0000 	lui	t7,0x0
    56e8:	25ef0000 	addiu	t7,t7,0
    56ec:	8d6d0000 	lw	t5,0(t3)
    56f0:	27a6007c 	addiu	a2,sp,124
    56f4:	27a70078 	addiu	a3,sp,120
    56f8:	ad4d0000 	sw	t5,0(t2)
    56fc:	8d6c0004 	lw	t4,4(t3)
    5700:	ad4c0004 	sw	t4,4(t2)
    5704:	8d6d0008 	lw	t5,8(t3)
    5708:	ad4d0008 	sw	t5,8(t2)
    570c:	afa00054 	sw	zero,84(sp)
    5710:	afa00064 	sw	zero,100(sp)
    5714:	afae006c 	sw	t6,108(sp)
    5718:	afaf0068 	sw	t7,104(sp)
    571c:	afa0005c 	sw	zero,92(sp)
    5720:	0c000000 	jal	0 <func_800FF5E0_ovl2>
    5724:	afa00060 	sw	zero,96(sp)
    5728:	8fa30080 	lw	v1,128(sp)
    572c:	10400016 	beqz	v0,5788 <func_80104C24_ovl2+0xf4>
    5730:	8fa80084 	lw	t0,132(sp)
    5734:	c5040000 	lwc1	$f4,0(t0)
    5738:	c4660000 	lwc1	$f6,0(v1)
    573c:	8fa40078 	lw	a0,120(sp)
    5740:	8fa5007c 	lw	a1,124(sp)
    5744:	46062201 	sub.s	$f8,$f4,$f6
    5748:	27a6001c 	addiu	a2,sp,28
    574c:	00003825 	move	a3,zero
    5750:	e7a8001c 	swc1	$f8,28(sp)
    5754:	c4700004 	lwc1	$f16,4(v1)
    5758:	c50a0004 	lwc1	$f10,4(t0)
    575c:	46105481 	sub.s	$f18,$f10,$f16
    5760:	e7b20020 	swc1	$f18,32(sp)
    5764:	c4660008 	lwc1	$f6,8(v1)
    5768:	c5040008 	lwc1	$f4,8(t0)
    576c:	46062201 	sub.s	$f8,$f4,$f6
    5770:	0c000000 	jal	0 <func_800FF5E0_ovl2>
    5774:	e7a80024 	swc1	$f8,36(sp)
    5778:	54400004 	bnezl	v0,578c <func_80104C24_ovl2+0xf8>
    577c:	00001025 	move	v0,zero
    5780:	10000002 	b	578c <func_80104C24_ovl2+0xf8>
    5784:	24020001 	li	v0,1
    5788:	00001025 	move	v0,zero
    578c:	8fbf0014 	lw	ra,20(sp)
    5790:	27bd0080 	addiu	sp,sp,128
    5794:	03e00008 	jr	ra
    5798:	00000000 	nop

0000579c <func_80104D2C_ovl2>:
func_80104D2C_ovl2():
    579c:	27bdff88 	addiu	sp,sp,-120
    57a0:	8fb90094 	lw	t9,148(sp)
    57a4:	afbf0034 	sw	ra,52(sp)
    57a8:	afb00030 	sw	s0,48(sp)
    57ac:	27ae006c 	addiu	t6,sp,108
    57b0:	27af0068 	addiu	t7,sp,104
    57b4:	27b80064 	addiu	t8,sp,100
    57b8:	00808025 	move	s0,a0
    57bc:	afa5007c 	sw	a1,124(sp)
    57c0:	afb80018 	sw	t8,24(sp)
    57c4:	afaf0014 	sw	t7,20(sp)
    57c8:	afae0010 	sw	t6,16(sp)
    57cc:	0c000000 	jal	0 <func_800FF5E0_ovl2>
    57d0:	afb9001c 	sw	t9,28(sp)
    57d4:	1040008e 	beqz	v0,5a10 <func_80104D2C_ovl2+0x274>
    57d8:	c7a4006c 	lwc1	$f4,108(sp)
    57dc:	c6060000 	lwc1	$f6,0(s0)
    57e0:	c7aa0070 	lwc1	$f10,112(sp)
    57e4:	46062201 	sub.s	$f8,$f4,$f6
    57e8:	c7a60074 	lwc1	$f6,116(sp)
    57ec:	e7a80058 	swc1	$f8,88(sp)
    57f0:	c6120004 	lwc1	$f18,4(s0)
    57f4:	46125101 	sub.s	$f4,$f10,$f18
    57f8:	e7a4005c 	swc1	$f4,92(sp)
    57fc:	c60a0008 	lwc1	$f10,8(s0)
    5800:	460a3481 	sub.s	$f18,$f6,$f10
    5804:	46084182 	mul.s	$f6,$f8,$f8
    5808:	00000000 	nop
    580c:	46042282 	mul.s	$f10,$f4,$f4
    5810:	e7b20060 	swc1	$f18,96(sp)
    5814:	46129102 	mul.s	$f4,$f18,$f18
    5818:	460a3200 	add.s	$f8,$f6,$f10
    581c:	0c000000 	jal	0 <func_800FF5E0_ovl2>
    5820:	46044300 	add.s	$f12,$f8,$f4
    5824:	3c010000 	lui	at,0x0
    5828:	c4260000 	lwc1	$f6,0(at)
    582c:	8fa80094 	lw	t0,148(sp)
    5830:	02002825 	move	a1,s0
    5834:	4606003c 	c.lt.s	$f0,$f6
    5838:	27a60044 	addiu	a2,sp,68
    583c:	45020017 	bc1fl	589c <func_80104D2C_ovl2+0x100>
    5840:	c7a00058 	lwc1	$f0,88(sp)
    5844:	0c000000 	jal	0 <func_800FF5E0_ovl2>
    5848:	8d040000 	lw	a0,0(t0)
    584c:	c60a0000 	lwc1	$f10,0(s0)
    5850:	c7b20044 	lwc1	$f18,68(sp)
    5854:	8fa2007c 	lw	v0,124(sp)
    5858:	46125200 	add.s	$f8,$f10,$f18
    585c:	c4440000 	lwc1	$f4,0(v0)
    5860:	c7b20048 	lwc1	$f18,72(sp)
    5864:	46082181 	sub.s	$f6,$f4,$f8
    5868:	e7a60058 	swc1	$f6,88(sp)
    586c:	c60a0004 	lwc1	$f10,4(s0)
    5870:	c4480004 	lwc1	$f8,4(v0)
    5874:	46125100 	add.s	$f4,$f10,$f18
    5878:	c7b2004c 	lwc1	$f18,76(sp)
    587c:	46044181 	sub.s	$f6,$f8,$f4
    5880:	e7a6005c 	swc1	$f6,92(sp)
    5884:	c60a0008 	lwc1	$f10,8(s0)
    5888:	c4440008 	lwc1	$f4,8(v0)
    588c:	46125200 	add.s	$f8,$f10,$f18
    5890:	46082181 	sub.s	$f6,$f4,$f8
    5894:	e7a60060 	swc1	$f6,96(sp)
    5898:	c7a00058 	lwc1	$f0,88(sp)
    589c:	c7ae005c 	lwc1	$f14,92(sp)
    58a0:	c7b00060 	lwc1	$f16,96(sp)
    58a4:	46000282 	mul.s	$f10,$f0,$f0
    58a8:	00000000 	nop
    58ac:	460e7482 	mul.s	$f18,$f14,$f14
    58b0:	46125100 	add.s	$f4,$f10,$f18
    58b4:	46108202 	mul.s	$f8,$f16,$f16
    58b8:	0c000000 	jal	0 <func_800FF5E0_ovl2>
    58bc:	46082300 	add.s	$f12,$f4,$f8
    58c0:	3c018013 	lui	at,0x8013
    58c4:	c4260000 	lwc1	$f6,0(at)
    58c8:	3c013f80 	lui	at,0x3f80
    58cc:	c7ae005c 	lwc1	$f14,92(sp)
    58d0:	4606003c 	c.lt.s	$f0,$f6
    58d4:	c7b00060 	lwc1	$f16,96(sp)
    58d8:	45020005 	bc1fl	58f0 <func_80104D2C_ovl2+0x154>
    58dc:	44815000 	mtc1	at,$f10
    58e0:	44801000 	mtc1	zero,$f2
    58e4:	10000005 	b	58fc <func_80104D2C_ovl2+0x160>
    58e8:	c7a00058 	lwc1	$f0,88(sp)
    58ec:	44815000 	mtc1	at,$f10
    58f0:	00000000 	nop
    58f4:	46005083 	div.s	$f2,$f10,$f0
    58f8:	c7a00058 	lwc1	$f0,88(sp)
    58fc:	c7a4006c 	lwc1	$f4,108(sp)
    5900:	c7a60070 	lwc1	$f6,112(sp)
    5904:	46020482 	mul.s	$f18,$f0,$f2
    5908:	02002025 	move	a0,s0
    590c:	27a50058 	addiu	a1,sp,88
    5910:	46027202 	mul.s	$f8,$f14,$f2
    5914:	8fa60064 	lw	a2,100(sp)
    5918:	00003825 	move	a3,zero
    591c:	46028282 	mul.s	$f10,$f16,$f2
    5920:	afa00010 	sw	zero,16(sp)
    5924:	46049000 	add.s	$f0,$f18,$f4
    5928:	c7b20074 	lwc1	$f18,116(sp)
    592c:	afa00014 	sw	zero,20(sp)
    5930:	46064380 	add.s	$f14,$f8,$f6
    5934:	e7a00058 	swc1	$f0,88(sp)
    5938:	afa00018 	sw	zero,24(sp)
    593c:	46125400 	add.s	$f16,$f10,$f18
    5940:	e7ae005c 	swc1	$f14,92(sp)
    5944:	afa0001c 	sw	zero,28(sp)
    5948:	0c000000 	jal	0 <func_800FF5E0_ovl2>
    594c:	e7b00060 	swc1	$f16,96(sp)
    5950:	10400019 	beqz	v0,59b8 <func_80104D2C_ovl2+0x21c>
    5954:	02002025 	move	a0,s0
    5958:	27a9003c 	addiu	t1,sp,60
    595c:	afa9001c 	sw	t1,28(sp)
    5960:	27a50058 	addiu	a1,sp,88
    5964:	00003025 	move	a2,zero
    5968:	8fa70068 	lw	a3,104(sp)
    596c:	afa00010 	sw	zero,16(sp)
    5970:	afa00014 	sw	zero,20(sp)
    5974:	afa00018 	sw	zero,24(sp)
    5978:	0c000000 	jal	0 <func_800FF5E0_ovl2>
    597c:	afa00020 	sw	zero,32(sp)
    5980:	1040000d 	beqz	v0,59b8 <func_80104D2C_ovl2+0x21c>
    5984:	02002025 	move	a0,s0
    5988:	27a50058 	addiu	a1,sp,88
    598c:	8fa6003c 	lw	a2,60(sp)
    5990:	00003825 	move	a3,zero
    5994:	afa00010 	sw	zero,16(sp)
    5998:	afa00014 	sw	zero,20(sp)
    599c:	afa00018 	sw	zero,24(sp)
    59a0:	0c000000 	jal	0 <func_800FF5E0_ovl2>
    59a4:	afa0001c 	sw	zero,28(sp)
    59a8:	54400004 	bnezl	v0,59bc <func_80104D2C_ovl2+0x220>
    59ac:	8fa20088 	lw	v0,136(sp)
    59b0:	10000018 	b	5a14 <func_80104D2C_ovl2+0x278>
    59b4:	00001025 	move	v0,zero
    59b8:	8fa20088 	lw	v0,136(sp)
    59bc:	27aa006c 	addiu	t2,sp,108
    59c0:	50400008 	beqzl	v0,59e4 <func_80104D2C_ovl2+0x248>
    59c4:	8fa2008c 	lw	v0,140(sp)
    59c8:	8d4c0000 	lw	t4,0(t2)
    59cc:	ac4c0000 	sw	t4,0(v0)
    59d0:	8d4b0004 	lw	t3,4(t2)
    59d4:	ac4b0004 	sw	t3,4(v0)
    59d8:	8d4c0008 	lw	t4,8(t2)
    59dc:	ac4c0008 	sw	t4,8(v0)
    59e0:	8fa2008c 	lw	v0,140(sp)
    59e4:	8fad0068 	lw	t5,104(sp)
    59e8:	50400003 	beqzl	v0,59f8 <func_80104D2C_ovl2+0x25c>
    59ec:	8fa20090 	lw	v0,144(sp)
    59f0:	ac4d0000 	sw	t5,0(v0)
    59f4:	8fa20090 	lw	v0,144(sp)
    59f8:	8fae0064 	lw	t6,100(sp)
    59fc:	10400002 	beqz	v0,5a08 <func_80104D2C_ovl2+0x26c>
    5a00:	00000000 	nop
    5a04:	ac4e0000 	sw	t6,0(v0)
    5a08:	10000002 	b	5a14 <func_80104D2C_ovl2+0x278>
    5a0c:	24020001 	li	v0,1
    5a10:	00001025 	move	v0,zero
    5a14:	8fbf0034 	lw	ra,52(sp)
    5a18:	8fb00030 	lw	s0,48(sp)
    5a1c:	27bd0078 	addiu	sp,sp,120
    5a20:	03e00008 	jr	ra
    5a24:	00000000 	nop

00005a28 <func_80104FB8_ovl2>:
func_80104FB8_ovl2():
    5a28:	27bdffd8 	addiu	sp,sp,-40
    5a2c:	afbf0014 	sw	ra,20(sp)
    5a30:	afa40028 	sw	a0,40(sp)
    5a34:	0c000000 	jal	0 <func_800FF5E0_ovl2>
    5a38:	c48c0024 	lwc1	$f12,36(a0)
    5a3c:	8faf0028 	lw	t7,40(sp)
    5a40:	c5ec0024 	lwc1	$f12,36(t7)
    5a44:	0c000000 	jal	0 <func_800FF5E0_ovl2>
    5a48:	e7a0001c 	swc1	$f0,28(sp)
    5a4c:	8fa20028 	lw	v0,40(sp)
    5a50:	3c010000 	lui	at,0x0
    5a54:	c7a2001c 	lwc1	$f2,28(sp)
    5a58:	c444001c 	lwc1	$f4,28(v0)
    5a5c:	24420010 	addiu	v0,v0,16
    5a60:	46002182 	mul.s	$f6,$f4,$f0
    5a64:	e4260000 	swc1	$f6,0(at)
    5a68:	c448000c 	lwc1	$f8,12(v0)
    5a6c:	3c010000 	lui	at,0x0
    5a70:	46024282 	mul.s	$f10,$f8,$f2
    5a74:	44804000 	mtc1	zero,$f8
    5a78:	e42a0000 	swc1	$f10,0(at)
    5a7c:	c4500010 	lwc1	$f16,16(v0)
    5a80:	46008482 	mul.s	$f18,$f16,$f0
    5a84:	e4320000 	swc1	$f18,0(at)
    5a88:	c4440010 	lwc1	$f4,16(v0)
    5a8c:	3c010000 	lui	at,0x0
    5a90:	46022182 	mul.s	$f6,$f4,$f2
    5a94:	e4260000 	swc1	$f6,0(at)
    5a98:	c44a000c 	lwc1	$f10,12(v0)
    5a9c:	3c020000 	lui	v0,0x0
    5aa0:	24420000 	addiu	v0,v0,0
    5aa4:	460a403c 	c.lt.s	$f8,$f10
    5aa8:	3c018013 	lui	at,0x8013
    5aac:	45020008 	bc1fl	5ad0 <func_80104FB8_ovl2+0xa8>
    5ab0:	46000407 	neg.s	$f16,$f0
    5ab4:	3c020000 	lui	v0,0x0
    5ab8:	3c010000 	lui	at,0x0
    5abc:	24420000 	addiu	v0,v0,0
    5ac0:	e4200000 	swc1	$f0,0(at)
    5ac4:	10000005 	b	5adc <func_80104FB8_ovl2+0xb4>
    5ac8:	e4420018 	swc1	$f2,24(v0)
    5acc:	46000407 	neg.s	$f16,$f0
    5ad0:	46001487 	neg.s	$f18,$f2
    5ad4:	e4300000 	swc1	$f16,0(at)
    5ad8:	e4520018 	swc1	$f18,24(v0)
    5adc:	3c010000 	lui	at,0x0
    5ae0:	c42c0000 	lwc1	$f12,0(at)
    5ae4:	c4400014 	lwc1	$f0,20(v0)
    5ae8:	c4420018 	lwc1	$f2,24(v0)
    5aec:	c44a0004 	lwc1	$f10,4(v0)
    5af0:	460c0202 	mul.s	$f8,$f0,$f12
    5af4:	46000107 	neg.s	$f4,$f0
    5af8:	46001187 	neg.s	$f6,$f2
    5afc:	460c1482 	mul.s	$f18,$f2,$f12
    5b00:	e444001c 	swc1	$f4,28(v0)
    5b04:	c4440008 	lwc1	$f4,8(v0)
    5b08:	e4460020 	swc1	$f6,32(v0)
    5b0c:	8fbf0014 	lw	ra,20(sp)
    5b10:	460a4400 	add.s	$f16,$f8,$f10
    5b14:	c448001c 	lwc1	$f8,28(v0)
    5b18:	46049180 	add.s	$f6,$f18,$f4
    5b1c:	460c4282 	mul.s	$f10,$f8,$f12
    5b20:	c4440020 	lwc1	$f4,32(v0)
    5b24:	e4500024 	swc1	$f16,36(v0)
    5b28:	e4460028 	swc1	$f6,40(v0)
    5b2c:	460c2182 	mul.s	$f6,$f4,$f12
    5b30:	c450000c 	lwc1	$f16,12(v0)
    5b34:	c4480010 	lwc1	$f8,16(v0)
    5b38:	27bd0028 	addiu	sp,sp,40
    5b3c:	46105480 	add.s	$f18,$f10,$f16
    5b40:	46083280 	add.s	$f10,$f6,$f8
    5b44:	e452002c 	swc1	$f18,44(v0)
    5b48:	03e00008 	jr	ra
    5b4c:	e44a0030 	swc1	$f10,48(v0)

00005b50 <func_801050E0>:
func_801050E0():
    5b50:	27bdffe8 	addiu	sp,sp,-24
    5b54:	afbf0014 	sw	ra,20(sp)
    5b58:	c4840004 	lwc1	$f4,4(a0)
    5b5c:	c4800008 	lwc1	$f0,8(a0)
    5b60:	c4860010 	lwc1	$f6,16(a0)
    5b64:	e4840028 	swc1	$f4,40(a0)
    5b68:	c4900014 	lwc1	$f16,20(a0)
    5b6c:	c4840018 	lwc1	$f4,24(a0)
    5b70:	46060200 	add.s	$f8,$f0,$f6
    5b74:	c48a000c 	lwc1	$f10,12(a0)
    5b78:	46100480 	add.s	$f18,$f0,$f16
    5b7c:	e488002c 	swc1	$f8,44(a0)
    5b80:	e48a0030 	swc1	$f10,48(a0)
    5b84:	46040180 	add.s	$f6,$f0,$f4
    5b88:	e4920044 	swc1	$f18,68(a0)
    5b8c:	e4860048 	swc1	$f6,72(a0)
    5b90:	0c000000 	jal	0 <func_800FF5E0_ovl2>
    5b94:	afa40018 	sw	a0,24(sp)
    5b98:	8fa40018 	lw	a0,24(sp)
    5b9c:	3c030000 	lui	v1,0x0
    5ba0:	24630000 	addiu	v1,v1,0
    5ba4:	24820028 	addiu	v0,a0,40
    5ba8:	c4400000 	lwc1	$f0,0(v0)
    5bac:	c4680004 	lwc1	$f8,4(v1)
    5bb0:	c4420008 	lwc1	$f2,8(v0)
    5bb4:	46080280 	add.s	$f10,$f0,$f8
    5bb8:	e44a000c 	swc1	$f10,12(v0)
    5bbc:	c4700008 	lwc1	$f16,8(v1)
    5bc0:	46101480 	add.s	$f18,$f2,$f16
    5bc4:	e4520010 	swc1	$f18,16(v0)
    5bc8:	c464000c 	lwc1	$f4,12(v1)
    5bcc:	46040180 	add.s	$f6,$f0,$f4
    5bd0:	e4460014 	swc1	$f6,20(v0)
    5bd4:	c4680010 	lwc1	$f8,16(v1)
    5bd8:	46081280 	add.s	$f10,$f2,$f8
    5bdc:	e44a0018 	swc1	$f10,24(v0)
    5be0:	8fbf0014 	lw	ra,20(sp)
    5be4:	27bd0018 	addiu	sp,sp,24
    5be8:	03e00008 	jr	ra
    5bec:	00000000 	nop

00005bf0 <func_80105180_ovl2>:
func_80105180_ovl2():
    5bf0:	24020014 	li	v0,20
    5bf4:	ac80004c 	sw	zero,76(a0)
    5bf8:	a0820054 	sb	v0,84(a0)
    5bfc:	a0820050 	sb	v0,80(a0)
    5c00:	a0820051 	sb	v0,81(a0)
    5c04:	a0820053 	sb	v0,83(a0)
    5c08:	a0820052 	sb	v0,82(a0)
    5c0c:	3c0f0000 	lui	t7,0x0
    5c10:	8def0000 	lw	t7,0(t7)
    5c14:	03e00008 	jr	ra
    5c18:	ac8f0058 	sw	t7,88(a0)

00005c1c <func_801051AC>:
func_801051AC():
    5c1c:	27bdffe8 	addiu	sp,sp,-24
    5c20:	afbf0014 	sw	ra,20(sp)
    5c24:	0c000000 	jal	0 <func_800FF5E0_ovl2>
    5c28:	afa40018 	sw	a0,24(sp)
    5c2c:	3c0e0000 	lui	t6,0x0
    5c30:	8dce0000 	lw	t6,0(t6)
    5c34:	8faf0018 	lw	t7,24(sp)
    5c38:	adee0058 	sw	t6,88(t7)
    5c3c:	8fbf0014 	lw	ra,20(sp)
    5c40:	27bd0018 	addiu	sp,sp,24
    5c44:	03e00008 	jr	ra
    5c48:	00000000 	nop

00005c4c <func_801051DC_ovl2>:
func_801051DC_ovl2():
    5c4c:	c4920008 	lwc1	$f18,8(a0)
    5c50:	c4900010 	lwc1	$f16,16(a0)
    5c54:	c48e0004 	lwc1	$f14,4(a0)
    5c58:	c48c000c 	lwc1	$f12,12(a0)
    5c5c:	46109400 	add.s	$f16,$f18,$f16
    5c60:	e48e003c 	swc1	$f14,60(a0)
    5c64:	e48e0034 	swc1	$f14,52(a0)
    5c68:	e48e0028 	swc1	$f14,40(a0)
    5c6c:	e4900048 	swc1	$f16,72(a0)
    5c70:	e4900044 	swc1	$f16,68(a0)
    5c74:	e490002c 	swc1	$f16,44(a0)
    5c78:	e48c0040 	swc1	$f12,64(a0)
    5c7c:	e48c0038 	swc1	$f12,56(a0)
    5c80:	03e00008 	jr	ra
    5c84:	e48c0030 	swc1	$f12,48(a0)

00005c88 <func_80105218>:
func_80105218():
    5c88:	24020014 	li	v0,20
    5c8c:	ac800000 	sw	zero,0(a0)
    5c90:	ac820034 	sw	v0,52(a0)
    5c94:	ac820004 	sw	v0,4(a0)
    5c98:	ac820010 	sw	v0,16(a0)
    5c9c:	ac820028 	sw	v0,40(a0)
    5ca0:	03e00008 	jr	ra
    5ca4:	ac82001c 	sw	v0,28(a0)

00005ca8 <func_80105238>:
func_80105238():
    5ca8:	27bdffe8 	addiu	sp,sp,-24
    5cac:	afbf0014 	sw	ra,20(sp)
    5cb0:	8cae0000 	lw	t6,0(a1)
    5cb4:	ac8e004c 	sw	t6,76(a0)
    5cb8:	8caf001c 	lw	t7,28(a1)
    5cbc:	a08f0052 	sb	t7,82(a0)
    5cc0:	8cb80028 	lw	t8,40(a1)
    5cc4:	a0980053 	sb	t8,83(a0)
    5cc8:	8cb90010 	lw	t9,16(a1)
    5ccc:	a0990051 	sb	t9,81(a0)
    5cd0:	8ca80004 	lw	t0,4(a1)
    5cd4:	a0880050 	sb	t0,80(a0)
    5cd8:	8ca90034 	lw	t1,52(a1)
    5cdc:	0c000000 	jal	0 <func_800FF5E0_ovl2>
    5ce0:	a0890054 	sb	t1,84(a0)
    5ce4:	8fbf0014 	lw	ra,20(sp)
    5ce8:	27bd0018 	addiu	sp,sp,24
    5cec:	03e00008 	jr	ra
    5cf0:	00000000 	nop

00005cf4 <func_80105284_ovl2>:
func_80105284_ovl2():
    5cf4:	27bdff80 	addiu	sp,sp,-128
    5cf8:	3c020000 	lui	v0,0x0
    5cfc:	24420000 	addiu	v0,v0,0
    5d00:	3c010000 	lui	at,0x0
    5d04:	c4240000 	lwc1	$f4,0(at)
    5d08:	c4460014 	lwc1	$f6,20(v0)
    5d0c:	44804000 	mtc1	zero,$f8
    5d10:	c44a0018 	lwc1	$f10,24(v0)
    5d14:	afbf002c 	sw	ra,44(sp)
    5d18:	afb10028 	sw	s1,40(sp)
    5d1c:	afb00024 	sw	s0,36(sp)
    5d20:	e7a40078 	swc1	$f4,120(sp)
    5d24:	e7a60054 	swc1	$f6,84(sp)
    5d28:	e7a80058 	swc1	$f8,88(sp)
    5d2c:	e7aa005c 	swc1	$f10,92(sp)
    5d30:	c4900034 	lwc1	$f16,52(a0)
    5d34:	c4480004 	lwc1	$f8,4(v0)
    5d38:	00a08825 	move	s1,a1
    5d3c:	e7b0006c 	swc1	$f16,108(sp)
    5d40:	c492002c 	lwc1	$f18,44(a0)
    5d44:	3c0e0000 	lui	t6,0x0
    5d48:	00808025 	move	s0,a0
    5d4c:	e7b20070 	swc1	$f18,112(sp)
    5d50:	c4840038 	lwc1	$f4,56(a0)
    5d54:	25ce0000 	addiu	t6,t6,0
    5d58:	262f0024 	addiu	t7,s1,36
    5d5c:	e7a40074 	swc1	$f4,116(sp)
    5d60:	c4860004 	lwc1	$f6,4(a0)
    5d64:	26380020 	addiu	t8,s1,32
    5d68:	2639001c 	addiu	t9,s1,28
    5d6c:	46083280 	add.s	$f10,$f6,$f8
    5d70:	c4480008 	lwc1	$f8,8(v0)
    5d74:	27a50060 	addiu	a1,sp,96
    5d78:	27a60054 	addiu	a2,sp,84
    5d7c:	e7aa0060 	swc1	$f10,96(sp)
    5d80:	c4920010 	lwc1	$f18,16(a0)
    5d84:	c4900008 	lwc1	$f16,8(a0)
    5d88:	27a70078 	addiu	a3,sp,120
    5d8c:	46128100 	add.s	$f4,$f16,$f18
    5d90:	e7a40064 	swc1	$f4,100(sp)
    5d94:	c486000c 	lwc1	$f6,12(a0)
    5d98:	afa00050 	sw	zero,80(sp)
    5d9c:	afb9001c 	sw	t9,28(sp)
    5da0:	46083280 	add.s	$f10,$f6,$f8
    5da4:	afb80018 	sw	t8,24(sp)
    5da8:	afaf0014 	sw	t7,20(sp)
    5dac:	afae0010 	sw	t6,16(sp)
    5db0:	e7aa0068 	swc1	$f10,104(sp)
    5db4:	0c000000 	jal	0 <func_800FF5E0_ovl2>
    5db8:	27a4006c 	addiu	a0,sp,108
    5dbc:	10400002 	beqz	v0,5dc8 <func_80105284_ovl2+0xd4>
    5dc0:	8fa30050 	lw	v1,80(sp)
    5dc4:	24030001 	li	v1,1
    5dc8:	c6100048 	lwc1	$f16,72(s0)
    5dcc:	26080010 	addiu	t0,s0,16
    5dd0:	27a90040 	addiu	t1,sp,64
    5dd4:	e7b00070 	swc1	$f16,112(sp)
    5dd8:	c5040008 	lwc1	$f4,8(t0)
    5ddc:	c6120008 	lwc1	$f18,8(s0)
    5de0:	27aa003c 	addiu	t2,sp,60
    5de4:	27ab0038 	addiu	t3,sp,56
    5de8:	46049180 	add.s	$f6,$f18,$f4
    5dec:	27ac0034 	addiu	t4,sp,52
    5df0:	afac001c 	sw	t4,28(sp)
    5df4:	afab0018 	sw	t3,24(sp)
    5df8:	e7a60064 	swc1	$f6,100(sp)
    5dfc:	afaa0014 	sw	t2,20(sp)
    5e00:	afa80030 	sw	t0,48(sp)
    5e04:	afa30050 	sw	v1,80(sp)
    5e08:	afa90010 	sw	t1,16(sp)
    5e0c:	27a4006c 	addiu	a0,sp,108
    5e10:	27a50060 	addiu	a1,sp,96
    5e14:	27a60054 	addiu	a2,sp,84
    5e18:	0c000000 	jal	0 <func_800FF5E0_ovl2>
    5e1c:	27a7004c 	addiu	a3,sp,76
    5e20:	8fa30050 	lw	v1,80(sp)
    5e24:	1040001d 	beqz	v0,5e9c <func_80105284_ovl2+0x1a8>
    5e28:	8fa80030 	lw	t0,48(sp)
    5e2c:	10600009 	beqz	v1,5e54 <func_80105284_ovl2+0x160>
    5e30:	8fad003c 	lw	t5,60(sp)
    5e34:	8e2e0024 	lw	t6,36(s1)
    5e38:	c7a8004c 	lwc1	$f8,76(sp)
    5e3c:	c7aa0078 	lwc1	$f10,120(sp)
    5e40:	51ae0017 	beql	t5,t6,5ea0 <func_80105284_ovl2+0x1ac>
    5e44:	c6120044 	lwc1	$f18,68(s0)
    5e48:	460a403c 	c.lt.s	$f8,$f10
    5e4c:	00000000 	nop
    5e50:	45000012 	bc1f	5e9c <func_80105284_ovl2+0x1a8>
    5e54:	27b80040 	addiu	t8,sp,64
    5e58:	8f090000 	lw	t1,0(t8)
    5e5c:	3c0f0000 	lui	t7,0x0
    5e60:	25ef0000 	addiu	t7,t7,0
    5e64:	ade90000 	sw	t1,0(t7)
    5e68:	8f090008 	lw	t1,8(t8)
    5e6c:	8f190004 	lw	t9,4(t8)
    5e70:	24030004 	li	v1,4
    5e74:	ade90008 	sw	t1,8(t7)
    5e78:	adf90004 	sw	t9,4(t7)
    5e7c:	8faa003c 	lw	t2,60(sp)
    5e80:	ae2a0024 	sw	t2,36(s1)
    5e84:	8fab0038 	lw	t3,56(sp)
    5e88:	ae2b0020 	sw	t3,32(s1)
    5e8c:	8fac0034 	lw	t4,52(sp)
    5e90:	ae2c001c 	sw	t4,28(s1)
    5e94:	c7b0004c 	lwc1	$f16,76(sp)
    5e98:	e7b00078 	swc1	$f16,120(sp)
    5e9c:	c6120044 	lwc1	$f18,68(s0)
    5ea0:	27ad0040 	addiu	t5,sp,64
    5ea4:	27ae003c 	addiu	t6,sp,60
    5ea8:	e7b20070 	swc1	$f18,112(sp)
    5eac:	c5060004 	lwc1	$f6,4(t0)
    5eb0:	c6040008 	lwc1	$f4,8(s0)
    5eb4:	27af0038 	addiu	t7,sp,56
    5eb8:	27b80034 	addiu	t8,sp,52
    5ebc:	46062200 	add.s	$f8,$f4,$f6
    5ec0:	afb8001c 	sw	t8,28(sp)
    5ec4:	afaf0018 	sw	t7,24(sp)
    5ec8:	afa30050 	sw	v1,80(sp)
    5ecc:	e7a80064 	swc1	$f8,100(sp)
    5ed0:	afae0014 	sw	t6,20(sp)
    5ed4:	afad0010 	sw	t5,16(sp)
    5ed8:	27a4006c 	addiu	a0,sp,108
    5edc:	27a50060 	addiu	a1,sp,96
    5ee0:	27a60054 	addiu	a2,sp,84
    5ee4:	0c000000 	jal	0 <func_800FF5E0_ovl2>
    5ee8:	27a7004c 	addiu	a3,sp,76
    5eec:	1040001b 	beqz	v0,5f5c <func_80105284_ovl2+0x268>
    5ef0:	8fa30050 	lw	v1,80(sp)
    5ef4:	10600009 	beqz	v1,5f1c <func_80105284_ovl2+0x228>
    5ef8:	8fb9003c 	lw	t9,60(sp)
    5efc:	8e290024 	lw	t1,36(s1)
    5f00:	c7aa004c 	lwc1	$f10,76(sp)
    5f04:	c7b00078 	lwc1	$f16,120(sp)
    5f08:	13290014 	beq	t9,t1,5f5c <func_80105284_ovl2+0x268>
    5f0c:	00000000 	nop
    5f10:	4610503c 	c.lt.s	$f10,$f16
    5f14:	00000000 	nop
    5f18:	45000010 	bc1f	5f5c <func_80105284_ovl2+0x268>
    5f1c:	27ab0040 	addiu	t3,sp,64
    5f20:	8d6d0000 	lw	t5,0(t3)
    5f24:	3c0a0000 	lui	t2,0x0
    5f28:	254a0000 	addiu	t2,t2,0
    5f2c:	ad4d0000 	sw	t5,0(t2)
    5f30:	8d6d0008 	lw	t5,8(t3)
    5f34:	8d6c0004 	lw	t4,4(t3)
    5f38:	24030002 	li	v1,2
    5f3c:	ad4d0008 	sw	t5,8(t2)
    5f40:	ad4c0004 	sw	t4,4(t2)
    5f44:	8fae003c 	lw	t6,60(sp)
    5f48:	ae2e0024 	sw	t6,36(s1)
    5f4c:	8faf0038 	lw	t7,56(sp)
    5f50:	ae2f0020 	sw	t7,32(s1)
    5f54:	8fb80034 	lw	t8,52(sp)
    5f58:	ae38001c 	sw	t8,28(s1)
    5f5c:	1060000b 	beqz	v1,5f8c <func_80105284_ovl2+0x298>
    5f60:	00001025 	move	v0,zero
    5f64:	8e390000 	lw	t9,0(s1)
    5f68:	962d0000 	lhu	t5,0(s1)
    5f6c:	24020001 	li	v0,1
    5f70:	00194cc2 	srl	t1,t9,0x13
    5f74:	01235025 	or	t2,t1,v1
    5f78:	000a60c0 	sll	t4,t2,0x3
    5f7c:	31ae0007 	andi	t6,t5,0x7
    5f80:	018e7825 	or	t7,t4,t6
    5f84:	10000001 	b	5f8c <func_80105284_ovl2+0x298>
    5f88:	a62f0000 	sh	t7,0(s1)
    5f8c:	8fbf002c 	lw	ra,44(sp)
    5f90:	8fb00024 	lw	s0,36(sp)
    5f94:	8fb10028 	lw	s1,40(sp)
    5f98:	03e00008 	jr	ra
    5f9c:	27bd0080 	addiu	sp,sp,128

00005fa0 <func_80105530>:
func_80105530():
    5fa0:	27bdffa0 	addiu	sp,sp,-96
    5fa4:	afbf002c 	sw	ra,44(sp)
    5fa8:	afb10028 	sw	s1,40(sp)
    5fac:	afb00024 	sw	s0,36(sp)
    5fb0:	8cae0000 	lw	t6,0(a1)
    5fb4:	00808025 	move	s0,a0
    5fb8:	00a08825 	move	s1,a1
    5fbc:	000e7cc2 	srl	t7,t6,0x13
    5fc0:	31f80007 	andi	t8,t7,0x7
    5fc4:	17000056 	bnez	t8,6120 <func_80105530+0x180>
    5fc8:	3c030000 	lui	v1,0x0
    5fcc:	24630000 	addiu	v1,v1,0
    5fd0:	c4640014 	lwc1	$f4,20(v1)
    5fd4:	44803000 	mtc1	zero,$f6
    5fd8:	c4680018 	lwc1	$f8,24(v1)
    5fdc:	e7a4003c 	swc1	$f4,60(sp)
    5fe0:	e7a60040 	swc1	$f6,64(sp)
    5fe4:	e7a80044 	swc1	$f8,68(sp)
    5fe8:	c48a0004 	lwc1	$f10,4(a0)
    5fec:	c470000c 	lwc1	$f16,12(v1)
    5ff0:	3c190000 	lui	t9,0x0
    5ff4:	27390000 	addiu	t9,t9,0
    5ff8:	46105480 	add.s	$f18,$f10,$f16
    5ffc:	c4700010 	lwc1	$f16,16(v1)
    6000:	26280024 	addiu	t0,s1,36
    6004:	26290020 	addiu	t1,s1,32
    6008:	e7b20054 	swc1	$f18,84(sp)
    600c:	c4860010 	lwc1	$f6,16(a0)
    6010:	c4840008 	lwc1	$f4,8(a0)
    6014:	262a001c 	addiu	t2,s1,28
    6018:	27a50048 	addiu	a1,sp,72
    601c:	46062200 	add.s	$f8,$f4,$f6
    6020:	c4660004 	lwc1	$f6,4(v1)
    6024:	27a6003c 	addiu	a2,sp,60
    6028:	00003825 	move	a3,zero
    602c:	e7a80058 	swc1	$f8,88(sp)
    6030:	c48a000c 	lwc1	$f10,12(a0)
    6034:	46105480 	add.s	$f18,$f10,$f16
    6038:	c7aa0058 	lwc1	$f10,88(sp)
    603c:	e7b2005c 	swc1	$f18,92(sp)
    6040:	c4840004 	lwc1	$f4,4(a0)
    6044:	e7aa004c 	swc1	$f10,76(sp)
    6048:	c4720008 	lwc1	$f18,8(v1)
    604c:	46062200 	add.s	$f8,$f4,$f6
    6050:	e7a80048 	swc1	$f8,72(sp)
    6054:	c490000c 	lwc1	$f16,12(a0)
    6058:	afaa0030 	sw	t2,48(sp)
    605c:	afa90034 	sw	t1,52(sp)
    6060:	46128100 	add.s	$f4,$f16,$f18
    6064:	afa80038 	sw	t0,56(sp)
    6068:	afaa001c 	sw	t2,28(sp)
    606c:	afa90018 	sw	t1,24(sp)
    6070:	e7a40050 	swc1	$f4,80(sp)
    6074:	afa80014 	sw	t0,20(sp)
    6078:	afb90010 	sw	t9,16(sp)
    607c:	0c000000 	jal	0 <func_800FF5E0_ovl2>
    6080:	27a40054 	addiu	a0,sp,84
    6084:	3c030000 	lui	v1,0x0
    6088:	24630000 	addiu	v1,v1,0
    608c:	8fa80038 	lw	t0,56(sp)
    6090:	8fa90034 	lw	t1,52(sp)
    6094:	1040000b 	beqz	v0,60c4 <func_80105530+0x124>
    6098:	8faa0030 	lw	t2,48(sp)
    609c:	8e2b0000 	lw	t3,0(s1)
    60a0:	96380000 	lhu	t8,0(s1)
    60a4:	24020001 	li	v0,1
    60a8:	000b64c2 	srl	t4,t3,0x13
    60ac:	358d0001 	ori	t5,t4,0x1
    60b0:	000d78c0 	sll	t7,t5,0x3
    60b4:	33190007 	andi	t9,t8,0x7
    60b8:	01f95825 	or	t3,t7,t9
    60bc:	10000019 	b	6124 <func_80105530+0x184>
    60c0:	a62b0000 	sh	t3,0(s1)
    60c4:	c6060004 	lwc1	$f6,4(s0)
    60c8:	c4680024 	lwc1	$f8,36(v1)
    60cc:	c4720028 	lwc1	$f18,40(v1)
    60d0:	3c0c0000 	lui	t4,0x0
    60d4:	46083280 	add.s	$f10,$f6,$f8
    60d8:	258c0000 	addiu	t4,t4,0
    60dc:	27a40054 	addiu	a0,sp,84
    60e0:	27a50048 	addiu	a1,sp,72
    60e4:	e7aa0048 	swc1	$f10,72(sp)
    60e8:	c610000c 	lwc1	$f16,12(s0)
    60ec:	afaa001c 	sw	t2,28(sp)
    60f0:	afa90018 	sw	t1,24(sp)
    60f4:	46128100 	add.s	$f4,$f16,$f18
    60f8:	afa80014 	sw	t0,20(sp)
    60fc:	afac0010 	sw	t4,16(sp)
    6100:	27a6003c 	addiu	a2,sp,60
    6104:	e7a40050 	swc1	$f4,80(sp)
    6108:	0c000000 	jal	0 <func_800FF5E0_ovl2>
    610c:	00003825 	move	a3,zero
    6110:	50400004 	beqzl	v0,6124 <func_80105530+0x184>
    6114:	00001025 	move	v0,zero
    6118:	10000002 	b	6124 <func_80105530+0x184>
    611c:	24020001 	li	v0,1
    6120:	00001025 	move	v0,zero
    6124:	8fbf002c 	lw	ra,44(sp)
    6128:	8fb00024 	lw	s0,36(sp)
    612c:	8fb10028 	lw	s1,40(sp)
    6130:	03e00008 	jr	ra
    6134:	27bd0060 	addiu	sp,sp,96

00006138 <func_801056C8>:
func_801056C8():
    6138:	27bdffa8 	addiu	sp,sp,-88
    613c:	afbf002c 	sw	ra,44(sp)
    6140:	afb10028 	sw	s1,40(sp)
    6144:	afb00024 	sw	s0,36(sp)
    6148:	c4840034 	lwc1	$f4,52(a0)
    614c:	3c020000 	lui	v0,0x0
    6150:	24420000 	addiu	v0,v0,0
    6154:	e7a40048 	swc1	$f4,72(sp)
    6158:	c486002c 	lwc1	$f6,44(a0)
    615c:	c4500004 	lwc1	$f16,4(v0)
    6160:	00a08825 	move	s1,a1
    6164:	e7a6004c 	swc1	$f6,76(sp)
    6168:	c4880038 	lwc1	$f8,56(a0)
    616c:	3c0e0000 	lui	t6,0x0
    6170:	25ce0000 	addiu	t6,t6,0
    6174:	e7a80050 	swc1	$f8,80(sp)
    6178:	c48a0004 	lwc1	$f10,4(a0)
    617c:	262f0024 	addiu	t7,s1,36
    6180:	26380020 	addiu	t8,s1,32
    6184:	46105480 	add.s	$f18,$f10,$f16
    6188:	c4500008 	lwc1	$f16,8(v0)
    618c:	2639001c 	addiu	t9,s1,28
    6190:	27a5003c 	addiu	a1,sp,60
    6194:	e7b2003c 	swc1	$f18,60(sp)
    6198:	c4860010 	lwc1	$f6,16(a0)
    619c:	c4840008 	lwc1	$f4,8(a0)
    61a0:	27a60030 	addiu	a2,sp,48
    61a4:	00003825 	move	a3,zero
    61a8:	46062200 	add.s	$f8,$f4,$f6
    61ac:	c4440014 	lwc1	$f4,20(v0)
    61b0:	44803000 	mtc1	zero,$f6
    61b4:	e7a80040 	swc1	$f8,64(sp)
    61b8:	c48a000c 	lwc1	$f10,12(a0)
    61bc:	c4480018 	lwc1	$f8,24(v0)
    61c0:	afb9001c 	sw	t9,28(sp)
    61c4:	46105480 	add.s	$f18,$f10,$f16
    61c8:	afb80018 	sw	t8,24(sp)
    61cc:	afaf0014 	sw	t7,20(sp)
    61d0:	afae0010 	sw	t6,16(sp)
    61d4:	e7b20044 	swc1	$f18,68(sp)
    61d8:	27a40048 	addiu	a0,sp,72
    61dc:	e7a40030 	swc1	$f4,48(sp)
    61e0:	e7a60034 	swc1	$f6,52(sp)
    61e4:	0c000000 	jal	0 <func_800FF5E0_ovl2>
    61e8:	e7a80038 	swc1	$f8,56(sp)
    61ec:	5040000c 	beqzl	v0,6220 <func_801056C8+0xe8>
    61f0:	00001025 	move	v0,zero
    61f4:	8e280000 	lw	t0,0(s1)
    61f8:	962d0000 	lhu	t5,0(s1)
    61fc:	24020001 	li	v0,1
    6200:	00084cc2 	srl	t1,t0,0x13
    6204:	352a0001 	ori	t2,t1,0x1
    6208:	000a60c0 	sll	t4,t2,0x3
    620c:	31ae0007 	andi	t6,t5,0x7
    6210:	018e7825 	or	t7,t4,t6
    6214:	10000002 	b	6220 <func_801056C8+0xe8>
    6218:	a62f0000 	sh	t7,0(s1)
    621c:	00001025 	move	v0,zero
    6220:	8fbf002c 	lw	ra,44(sp)
    6224:	8fb00024 	lw	s0,36(sp)
    6228:	8fb10028 	lw	s1,40(sp)
    622c:	03e00008 	jr	ra
    6230:	27bd0058 	addiu	sp,sp,88

00006234 <func_801057C4>:
func_801057C4():
    6234:	c4a20000 	lwc1	$f2,0(a1)
    6238:	c4c40000 	lwc1	$f4,0(a2)
    623c:	c48a0000 	lwc1	$f10,0(a0)
    6240:	c4b20008 	lwc1	$f18,8(a1)
    6244:	c4c80008 	lwc1	$f8,8(a2)
    6248:	c4ae0004 	lwc1	$f14,4(a1)
    624c:	c4c60004 	lwc1	$f6,4(a2)
    6250:	27bdffd0 	addiu	sp,sp,-48
    6254:	46022001 	sub.s	$f0,$f4,$f2
    6258:	e7aa000c 	swc1	$f10,12(sp)
    625c:	c4840004 	lwc1	$f4,4(a0)
    6260:	46124401 	sub.s	$f16,$f8,$f18
    6264:	c7a8000c 	lwc1	$f8,12(sp)
    6268:	e7a40008 	swc1	$f4,8(sp)
    626c:	460e3301 	sub.s	$f12,$f6,$f14
    6270:	c4860008 	lwc1	$f6,8(a0)
    6274:	46004282 	mul.s	$f10,$f8,$f0
    6278:	c7a40008 	lwc1	$f4,8(sp)
    627c:	e7a60004 	swc1	$f6,4(sp)
    6280:	460c2182 	mul.s	$f6,$f4,$f12
    6284:	c7a40004 	lwc1	$f4,4(sp)
    6288:	46065200 	add.s	$f8,$f10,$f6
    628c:	46102282 	mul.s	$f10,$f4,$f16
    6290:	44802000 	mtc1	zero,$f4
    6294:	460a4180 	add.s	$f6,$f8,$f10
    6298:	c7a8000c 	lwc1	$f8,12(sp)
    629c:	46043032 	c.eq.s	$f6,$f4
    62a0:	e7a6001c 	swc1	$f6,28(sp)
    62a4:	c7a60008 	lwc1	$f6,8(sp)
    62a8:	45000003 	bc1f	62b8 <func_801057C4+0x84>
    62ac:	00000000 	nop
    62b0:	1000001b 	b	6320 <func_801057C4+0xec>
    62b4:	00001025 	move	v0,zero
    62b8:	46024282 	mul.s	$f10,$f8,$f2
    62bc:	24020001 	li	v0,1
    62c0:	460e3102 	mul.s	$f4,$f6,$f14
    62c4:	c7a60004 	lwc1	$f6,4(sp)
    62c8:	46045200 	add.s	$f8,$f10,$f4
    62cc:	46123282 	mul.s	$f10,$f6,$f18
    62d0:	c486000c 	lwc1	$f6,12(a0)
    62d4:	460a4100 	add.s	$f4,$f8,$f10
    62d8:	c7aa001c 	lwc1	$f10,28(sp)
    62dc:	46062200 	add.s	$f8,$f4,$f6
    62e0:	460a4103 	div.s	$f4,$f8,$f10
    62e4:	46002187 	neg.s	$f6,$f4
    62e8:	46060202 	mul.s	$f8,$f0,$f6
    62ec:	e7a60020 	swc1	$f6,32(sp)
    62f0:	46081280 	add.s	$f10,$f2,$f8
    62f4:	e4ea0000 	swc1	$f10,0(a3)
    62f8:	c7a60020 	lwc1	$f6,32(sp)
    62fc:	c4a40004 	lwc1	$f4,4(a1)
    6300:	46066202 	mul.s	$f8,$f12,$f6
    6304:	46082280 	add.s	$f10,$f4,$f8
    6308:	e4ea0004 	swc1	$f10,4(a3)
    630c:	c7a40020 	lwc1	$f4,32(sp)
    6310:	c4a60008 	lwc1	$f6,8(a1)
    6314:	46048202 	mul.s	$f8,$f16,$f4
    6318:	46083280 	add.s	$f10,$f6,$f8
    631c:	e4ea0008 	swc1	$f10,8(a3)
    6320:	03e00008 	jr	ra
    6324:	27bd0030 	addiu	sp,sp,48

00006328 <func_801058B8>:
func_801058B8():
    6328:	27bdfe98 	addiu	sp,sp,-360
    632c:	afbf007c 	sw	ra,124(sp)
    6330:	afb70078 	sw	s7,120(sp)
    6334:	afb60074 	sw	s6,116(sp)
    6338:	afb50070 	sw	s5,112(sp)
    633c:	afb4006c 	sw	s4,108(sp)
    6340:	afb30068 	sw	s3,104(sp)
    6344:	afb20064 	sw	s2,100(sp)
    6348:	afb10060 	sw	s1,96(sp)
    634c:	afb0005c 	sw	s0,92(sp)
    6350:	f7be0050 	sdc1	$f30,80(sp)
    6354:	f7bc0048 	sdc1	$f28,72(sp)
    6358:	f7ba0040 	sdc1	$f26,64(sp)
    635c:	f7b80038 	sdc1	$f24,56(sp)
    6360:	f7b60030 	sdc1	$f22,48(sp)
    6364:	f7b40028 	sdc1	$f20,40(sp)
    6368:	afa70174 	sw	a3,372(sp)
    636c:	c4860000 	lwc1	$f6,0(a0)
    6370:	c4a40000 	lwc1	$f4,0(a1)
    6374:	c48a0004 	lwc1	$f10,4(a0)
    6378:	c4a80004 	lwc1	$f8,4(a1)
    637c:	46062001 	sub.s	$f0,$f4,$f6
    6380:	c4860008 	lwc1	$f6,8(a0)
    6384:	c4a40008 	lwc1	$f4,8(a1)
    6388:	460a4081 	sub.s	$f2,$f8,$f10
    638c:	46000202 	mul.s	$f8,$f0,$f0
    6390:	00809025 	move	s2,a0
    6394:	46062381 	sub.s	$f14,$f4,$f6
    6398:	46021282 	mul.s	$f10,$f2,$f2
    639c:	00a0a025 	move	s4,a1
    63a0:	00c0a825 	move	s5,a2
    63a4:	460e7182 	mul.s	$f6,$f14,$f14
    63a8:	460a4100 	add.s	$f4,$f8,$f10
    63ac:	0c000000 	jal	0 <func_800FF5E0_ovl2>
    63b0:	46062300 	add.s	$f12,$f4,$f6
    63b4:	4480d000 	mtc1	zero,$f26
    63b8:	46000706 	mov.s	$f28,$f0
    63bc:	8fa30178 	lw	v1,376(sp)
    63c0:	461a0032 	c.eq.s	$f0,$f26
    63c4:	00000000 	nop
    63c8:	4502000a 	bc1fl	63f4 <func_801058B8+0xcc>
    63cc:	8e590000 	lw	t9,0(s2)
    63d0:	8e4f0000 	lw	t7,0(s2)
    63d4:	00001025 	move	v0,zero
    63d8:	ac6f0000 	sw	t7,0(v1)
    63dc:	8e4e0004 	lw	t6,4(s2)
    63e0:	ac6e0004 	sw	t6,4(v1)
    63e4:	8e4f0008 	lw	t7,8(s2)
    63e8:	100001c1 	b	6af0 <func_801058B8+0x7c8>
    63ec:	ac6f0008 	sw	t7,8(v1)
    63f0:	8e590000 	lw	t9,0(s2)
    63f4:	27b7014c 	addiu	s7,sp,332
    63f8:	27b60140 	addiu	s6,sp,320
    63fc:	aef90000 	sw	t9,0(s7)
    6400:	8e580004 	lw	t8,4(s2)
    6404:	3c013f80 	lui	at,0x3f80
    6408:	02a08025 	move	s0,s5
    640c:	aef80004 	sw	t8,4(s7)
    6410:	8e590008 	lw	t9,8(s2)
    6414:	02a09825 	move	s3,s5
    6418:	02a08825 	move	s1,s5
    641c:	aef90008 	sw	t9,8(s7)
    6420:	8e890000 	lw	t1,0(s4)
    6424:	3c120000 	lui	s2,0x0
    6428:	4481f000 	mtc1	at,$f30
    642c:	aec90000 	sw	t1,0(s6)
    6430:	8e880004 	lw	t0,4(s4)
    6434:	26520000 	addiu	s2,s2,0
    6438:	27b500ec 	addiu	s5,sp,236
    643c:	aec80004 	sw	t0,4(s6)
    6440:	8e890008 	lw	t1,8(s4)
    6444:	27b40134 	addiu	s4,sp,308
    6448:	aec90008 	sw	t1,8(s6)
    644c:	afa00110 	sw	zero,272(sp)
    6450:	c7a80140 	lwc1	$f8,320(sp)
    6454:	c64a0014 	lwc1	$f10,20(s2)
    6458:	c7a60144 	lwc1	$f6,324(sp)
    645c:	02202025 	move	a0,s1
    6460:	460a4100 	add.s	$f4,$f8,$f10
    6464:	c64a0018 	lwc1	$f10,24(s2)
    6468:	c7a80148 	lwc1	$f8,328(sp)
    646c:	27a50104 	addiu	a1,sp,260
    6470:	e7a40104 	swc1	$f4,260(sp)
    6474:	460a4100 	add.s	$f4,$f8,$f10
    6478:	02c03025 	move	a2,s6
    647c:	02803825 	move	a3,s4
    6480:	e7a60108 	swc1	$f6,264(sp)
    6484:	0c000000 	jal	0 <func_800FF5E0_ovl2>
    6488:	e7a4010c 	swc1	$f4,268(sp)
    648c:	10400005 	beqz	v0,64a4 <func_801058B8+0x17c>
    6490:	02e02025 	move	a0,s7
    6494:	c7b0013c 	lwc1	$f16,316(sp)
    6498:	c7b20134 	lwc1	$f18,308(sp)
    649c:	e7b00148 	swc1	$f16,328(sp)
    64a0:	e7b20140 	swc1	$f18,320(sp)
    64a4:	27aa0130 	addiu	t2,sp,304
    64a8:	27ab0120 	addiu	t3,sp,288
    64ac:	27ac0118 	addiu	t4,sp,280
    64b0:	afac0020 	sw	t4,32(sp)
    64b4:	afab001c 	sw	t3,28(sp)
    64b8:	afaa0018 	sw	t2,24(sp)
    64bc:	02c02825 	move	a1,s6
    64c0:	02003025 	move	a2,s0
    64c4:	02603825 	move	a3,s3
    64c8:	afa00010 	sw	zero,16(sp)
    64cc:	0c000000 	jal	0 <func_800FF5E0_ovl2>
    64d0:	afb40014 	sw	s4,20(sp)
    64d4:	10400151 	beqz	v0,6a1c <func_801058B8+0x6f4>
    64d8:	c7b20134 	lwc1	$f18,308(sp)
    64dc:	c7a6014c 	lwc1	$f6,332(sp)
    64e0:	c7a80138 	lwc1	$f8,312(sp)
    64e4:	c7aa0150 	lwc1	$f10,336(sp)
    64e8:	46069001 	sub.s	$f0,$f18,$f6
    64ec:	c7b0013c 	lwc1	$f16,316(sp)
    64f0:	c7a40154 	lwc1	$f4,340(sp)
    64f4:	460a4601 	sub.s	$f24,$f8,$f10
    64f8:	46000182 	mul.s	$f6,$f0,$f0
    64fc:	46000506 	mov.s	$f20,$f0
    6500:	46048581 	sub.s	$f22,$f16,$f4
    6504:	4618c202 	mul.s	$f8,$f24,$f24
    6508:	46083280 	add.s	$f10,$f6,$f8
    650c:	4616b102 	mul.s	$f4,$f22,$f22
    6510:	0c000000 	jal	0 <func_800FF5E0_ovl2>
    6514:	46045300 	add.s	$f12,$f10,$f4
    6518:	4600e03e 	c.le.s	$f28,$f0
    651c:	e7a000f4 	swc1	$f0,244(sp)
    6520:	8fa90130 	lw	t1,304(sp)
    6524:	3c013f00 	lui	at,0x3f00
    6528:	4500001c 	bc1f	659c <func_801058B8+0x274>
    652c:	240e0001 	li	t6,1
    6530:	4600e083 	div.s	$f2,$f28,$f0
    6534:	c7a8014c 	lwc1	$f8,332(sp)
    6538:	8fa30178 	lw	v1,376(sp)
    653c:	4602a182 	mul.s	$f6,$f20,$f2
    6540:	46083280 	add.s	$f10,$f6,$f8
    6544:	4602c102 	mul.s	$f4,$f24,$f2
    6548:	e46a0000 	swc1	$f10,0(v1)
    654c:	c7a60150 	lwc1	$f6,336(sp)
    6550:	4602b282 	mul.s	$f10,$f22,$f2
    6554:	46062200 	add.s	$f8,$f4,$f6
    6558:	e4680004 	swc1	$f8,4(v1)
    655c:	c7a40154 	lwc1	$f4,340(sp)
    6560:	46045180 	add.s	$f6,$f10,$f4
    6564:	e4660008 	swc1	$f6,8(v1)
    6568:	8fad0110 	lw	t5,272(sp)
    656c:	8fae0180 	lw	t6,384(sp)
    6570:	11a00008 	beqz	t5,6594 <func_801058B8+0x26c>
    6574:	00000000 	nop
    6578:	add10000 	sw	s1,0(t6)
    657c:	8fb80184 	lw	t8,388(sp)
    6580:	8faf011c 	lw	t7,284(sp)
    6584:	af0f0000 	sw	t7,0(t8)
    6588:	8fa80188 	lw	t0,392(sp)
    658c:	8fb90114 	lw	t9,276(sp)
    6590:	ad190000 	sw	t9,0(t0)
    6594:	10000156 	b	6af0 <func_801058B8+0x7c8>
    6598:	00001025 	move	v0,zero
    659c:	c52c0004 	lwc1	$f12,4(t1)
    65a0:	44814000 	mtc1	at,$f8
    65a4:	c7aa0140 	lwc1	$f10,320(sp)
    65a8:	461a603c 	c.lt.s	$f12,$f26
    65ac:	c7a4014c 	lwc1	$f4,332(sp)
    65b0:	c7a60144 	lwc1	$f6,324(sp)
    65b4:	45020004 	bc1fl	65c8 <func_801058B8+0x2a0>
    65b8:	46006086 	mov.s	$f2,$f12
    65bc:	10000002 	b	65c8 <func_801058B8+0x2a0>
    65c0:	46006087 	neg.s	$f2,$f12
    65c4:	46006086 	mov.s	$f2,$f12
    65c8:	4608103e 	c.le.s	$f2,$f8
    65cc:	c7a80150 	lwc1	$f8,336(sp)
    65d0:	45030103 	bc1tl	69e0 <func_801058B8+0x6b8>
    65d4:	8e8b0000 	lw	t3,0(s4)
    65d8:	46045001 	sub.s	$f0,$f10,$f4
    65dc:	c7a40154 	lwc1	$f4,340(sp)
    65e0:	c7aa0148 	lwc1	$f10,328(sp)
    65e4:	46083601 	sub.s	$f24,$f6,$f8
    65e8:	46000182 	mul.s	$f6,$f0,$f0
    65ec:	46000506 	mov.s	$f20,$f0
    65f0:	46045581 	sub.s	$f22,$f10,$f4
    65f4:	4618c202 	mul.s	$f8,$f24,$f24
    65f8:	46083280 	add.s	$f10,$f6,$f8
    65fc:	4616b102 	mul.s	$f4,$f22,$f22
    6600:	0c000000 	jal	0 <func_800FF5E0_ovl2>
    6604:	46045300 	add.s	$f12,$f10,$f4
    6608:	c7a40150 	lwc1	$f4,336(sp)
    660c:	3c014120 	lui	at,0x4120
    6610:	c7b00174 	lwc1	$f16,372(sp)
    6614:	e7a400e4 	swc1	$f4,228(sp)
    6618:	44812000 	mtc1	at,$f4
    661c:	c6460014 	lwc1	$f6,20(s2)
    6620:	c7a8014c 	lwc1	$f8,332(sp)
    6624:	46002083 	div.s	$f2,$f4,$f0
    6628:	27a400e0 	addiu	a0,sp,224
    662c:	27a500d4 	addiu	a1,sp,212
    6630:	00003025 	move	a2,zero
    6634:	46103302 	mul.s	$f12,$f6,$f16
    6638:	c6460018 	lwc1	$f6,24(s2)
    663c:	00003825 	move	a3,zero
    6640:	afa00010 	sw	zero,16(sp)
    6644:	46103382 	mul.s	$f14,$f6,$f16
    6648:	afb50014 	sw	s5,20(sp)
    664c:	afa00018 	sw	zero,24(sp)
    6650:	afa0001c 	sw	zero,28(sp)
    6654:	46086280 	add.s	$f10,$f12,$f8
    6658:	c7a80154 	lwc1	$f8,340(sp)
    665c:	4602a182 	mul.s	$f6,$f20,$f2
    6660:	e7aa00e0 	swc1	$f10,224(sp)
    6664:	46087280 	add.s	$f10,$f14,$f8
    6668:	c7a80140 	lwc1	$f8,320(sp)
    666c:	e7aa00e8 	swc1	$f10,232(sp)
    6670:	46083280 	add.s	$f10,$f6,$f8
    6674:	4602c182 	mul.s	$f6,$f24,$f2
    6678:	c7a80144 	lwc1	$f8,324(sp)
    667c:	460c5100 	add.s	$f4,$f10,$f12
    6680:	46083280 	add.s	$f10,$f6,$f8
    6684:	e7a400d4 	swc1	$f4,212(sp)
    6688:	4602b102 	mul.s	$f4,$f22,$f2
    668c:	c7a60148 	lwc1	$f6,328(sp)
    6690:	e7aa00d8 	swc1	$f10,216(sp)
    6694:	46062200 	add.s	$f8,$f4,$f6
    6698:	460e4280 	add.s	$f10,$f8,$f14
    669c:	0c000000 	jal	0 <func_800FF5E0_ovl2>
    66a0:	e7aa00dc 	swc1	$f10,220(sp)
    66a4:	10400031 	beqz	v0,676c <func_801058B8+0x444>
    66a8:	8faa00ec 	lw	t2,236(sp)
    66ac:	c5440000 	lwc1	$f4,0(t2)
    66b0:	c7a60134 	lwc1	$f6,308(sp)
    66b4:	c54a0004 	lwc1	$f10,4(t2)
    66b8:	46062202 	mul.s	$f8,$f4,$f6
    66bc:	c7a40138 	lwc1	$f4,312(sp)
    66c0:	46045182 	mul.s	$f6,$f10,$f4
    66c4:	c5440008 	lwc1	$f4,8(t2)
    66c8:	46064280 	add.s	$f10,$f8,$f6
    66cc:	c7a8013c 	lwc1	$f8,316(sp)
    66d0:	46082182 	mul.s	$f6,$f4,$f8
    66d4:	c548000c 	lwc1	$f8,12(t2)
    66d8:	46065100 	add.s	$f4,$f10,$f6
    66dc:	46082000 	add.s	$f0,$f4,$f8
    66e0:	461a003c 	c.lt.s	$f0,$f26
    66e4:	00000000 	nop
    66e8:	45020004 	bc1fl	66fc <func_801058B8+0x3d4>
    66ec:	46000086 	mov.s	$f2,$f0
    66f0:	10000002 	b	66fc <func_801058B8+0x3d4>
    66f4:	46000087 	neg.s	$f2,$f0
    66f8:	46000086 	mov.s	$f2,$f0
    66fc:	461e103c 	c.lt.s	$f2,$f30
    6700:	00000000 	nop
    6704:	4502001a 	bc1fl	6770 <func_801058B8+0x448>
    6708:	c7a40174 	lwc1	$f4,372(sp)
    670c:	8fa30178 	lw	v1,376(sp)
    6710:	8e8c0000 	lw	t4,0(s4)
    6714:	ac6c0000 	sw	t4,0(v1)
    6718:	8e8b0004 	lw	t3,4(s4)
    671c:	ac6b0004 	sw	t3,4(v1)
    6720:	8e8c0008 	lw	t4,8(s4)
    6724:	ac6c0008 	sw	t4,8(v1)
    6728:	c7aa00f4 	lwc1	$f10,244(sp)
    672c:	8fad017c 	lw	t5,380(sp)
    6730:	460ae181 	sub.s	$f6,$f28,$f10
    6734:	e5a60000 	swc1	$f6,0(t5)
    6738:	8fae0110 	lw	t6,272(sp)
    673c:	8faf0180 	lw	t7,384(sp)
    6740:	11c00008 	beqz	t6,6764 <func_801058B8+0x43c>
    6744:	00000000 	nop
    6748:	adf10000 	sw	s1,0(t7)
    674c:	8fb90184 	lw	t9,388(sp)
    6750:	8fb8011c 	lw	t8,284(sp)
    6754:	af380000 	sw	t8,0(t9)
    6758:	8fa90188 	lw	t1,392(sp)
    675c:	8fa80114 	lw	t0,276(sp)
    6760:	ad280000 	sw	t0,0(t1)
    6764:	100000e2 	b	6af0 <func_801058B8+0x7c8>
    6768:	24020001 	li	v0,1
    676c:	c7a40174 	lwc1	$f4,372(sp)
    6770:	00001825 	move	v1,zero
    6774:	3c01c120 	lui	at,0xc120
    6778:	4604d03c 	c.lt.s	$f26,$f4
    677c:	27a400c0 	addiu	a0,sp,192
    6780:	27a500b4 	addiu	a1,sp,180
    6784:	00003025 	move	a2,zero
    6788:	45000005 	bc1f	67a0 <func_801058B8+0x478>
    678c:	00003825 	move	a3,zero
    6790:	3c014120 	lui	at,0x4120
    6794:	44810000 	mtc1	at,$f0
    6798:	10000004 	b	67ac <func_801058B8+0x484>
    679c:	c6480014 	lwc1	$f8,20(s2)
    67a0:	44810000 	mtc1	at,$f0
    67a4:	00000000 	nop
    67a8:	c6480014 	lwc1	$f8,20(s2)
    67ac:	c7b20134 	lwc1	$f18,308(sp)
    67b0:	4618d03c 	c.lt.s	$f26,$f24
    67b4:	46004282 	mul.s	$f10,$f8,$f0
    67b8:	3c01bf80 	lui	at,0xbf80
    67bc:	46125180 	add.s	$f6,$f10,$f18
    67c0:	45000003 	bc1f	67d0 <func_801058B8+0x4a8>
    67c4:	e7a600c0 	swc1	$f6,192(sp)
    67c8:	10000003 	b	67d8 <func_801058B8+0x4b0>
    67cc:	4600f086 	mov.s	$f2,$f30
    67d0:	44811000 	mtc1	at,$f2
    67d4:	00000000 	nop
    67d8:	c6580018 	lwc1	$f24,24(s2)
    67dc:	c656001c 	lwc1	$f22,28(s2)
    67e0:	c6540020 	lwc1	$f20,32(s2)
    67e4:	4600c602 	mul.s	$f24,$f24,$f0
    67e8:	c7b0013c 	lwc1	$f16,316(sp)
    67ec:	c7ae0138 	lwc1	$f14,312(sp)
    67f0:	4600b582 	mul.s	$f22,$f22,$f0
    67f4:	afa00010 	sw	zero,16(sp)
    67f8:	460e1380 	add.s	$f14,$f2,$f14
    67fc:	4600a502 	mul.s	$f20,$f20,$f0
    6800:	afb50014 	sw	s5,20(sp)
    6804:	4610c600 	add.s	$f24,$f24,$f16
    6808:	e7ae00b8 	swc1	$f14,184(sp)
    680c:	e7ae00c4 	swc1	$f14,196(sp)
    6810:	4612b580 	add.s	$f22,$f22,$f18
    6814:	e7b800c8 	swc1	$f24,200(sp)
    6818:	afa00018 	sw	zero,24(sp)
    681c:	4610a400 	add.s	$f16,$f20,$f16
    6820:	e7b600b4 	swc1	$f22,180(sp)
    6824:	afa0001c 	sw	zero,28(sp)
    6828:	afa300ac 	sw	v1,172(sp)
    682c:	0c000000 	jal	0 <func_800FF5E0_ovl2>
    6830:	e7b000bc 	swc1	$f16,188(sp)
    6834:	1040001b 	beqz	v0,68a4 <func_801058B8+0x57c>
    6838:	8fa300ac 	lw	v1,172(sp)
    683c:	8faa00ec 	lw	t2,236(sp)
    6840:	c7a60134 	lwc1	$f6,308(sp)
    6844:	c54a0000 	lwc1	$f10,0(t2)
    6848:	c5480004 	lwc1	$f8,4(t2)
    684c:	46065102 	mul.s	$f4,$f10,$f6
    6850:	c7aa0138 	lwc1	$f10,312(sp)
    6854:	460a4182 	mul.s	$f6,$f8,$f10
    6858:	c54a0008 	lwc1	$f10,8(t2)
    685c:	46062200 	add.s	$f8,$f4,$f6
    6860:	c7a4013c 	lwc1	$f4,316(sp)
    6864:	46045182 	mul.s	$f6,$f10,$f4
    6868:	c544000c 	lwc1	$f4,12(t2)
    686c:	46064280 	add.s	$f10,$f8,$f6
    6870:	46045000 	add.s	$f0,$f10,$f4
    6874:	461a003c 	c.lt.s	$f0,$f26
    6878:	00000000 	nop
    687c:	45020004 	bc1fl	6890 <func_801058B8+0x568>
    6880:	46000086 	mov.s	$f2,$f0
    6884:	10000002 	b	6890 <func_801058B8+0x568>
    6888:	46000087 	neg.s	$f2,$f0
    688c:	46000086 	mov.s	$f2,$f0
    6890:	461e103c 	c.lt.s	$f2,$f30
    6894:	00000000 	nop
    6898:	45000002 	bc1f	68a4 <func_801058B8+0x57c>
    689c:	00000000 	nop
    68a0:	24030001 	li	v1,1
    68a4:	14600019 	bnez	v1,690c <func_801058B8+0x5e4>
    68a8:	00000000 	nop
    68ac:	8fa30178 	lw	v1,376(sp)
    68b0:	8e8c0000 	lw	t4,0(s4)
    68b4:	ac6c0000 	sw	t4,0(v1)
    68b8:	8e8b0004 	lw	t3,4(s4)
    68bc:	ac6b0004 	sw	t3,4(v1)
    68c0:	8e8c0008 	lw	t4,8(s4)
    68c4:	ac6c0008 	sw	t4,8(v1)
    68c8:	c7a800f4 	lwc1	$f8,244(sp)
    68cc:	8fad017c 	lw	t5,380(sp)
    68d0:	4608e181 	sub.s	$f6,$f28,$f8
    68d4:	e5a60000 	swc1	$f6,0(t5)
    68d8:	8fae0110 	lw	t6,272(sp)
    68dc:	8faf0180 	lw	t7,384(sp)
    68e0:	11c00008 	beqz	t6,6904 <func_801058B8+0x5dc>
    68e4:	00000000 	nop
    68e8:	adf10000 	sw	s1,0(t7)
    68ec:	8fb90184 	lw	t9,388(sp)
    68f0:	8fb8011c 	lw	t8,284(sp)
    68f4:	af380000 	sw	t8,0(t9)
    68f8:	8fa90188 	lw	t1,392(sp)
    68fc:	8fa80114 	lw	t0,276(sp)
    6900:	ad280000 	sw	t0,0(t1)
    6904:	1000007a 	b	6af0 <func_801058B8+0x7c8>
    6908:	24020002 	li	v0,2
    690c:	12300031 	beq	s1,s0,69d4 <func_801058B8+0x6ac>
    6910:	00000000 	nop
    6914:	c6000000 	lwc1	$f0,0(s0)
    6918:	c6220000 	lwc1	$f2,0(s1)
    691c:	46020032 	c.eq.s	$f0,$f2
    6920:	00000000 	nop
    6924:	45020014 	bc1fl	6978 <func_801058B8+0x650>
    6928:	c608000c 	lwc1	$f8,12(s0)
    692c:	c60a0004 	lwc1	$f10,4(s0)
    6930:	c6240004 	lwc1	$f4,4(s1)
    6934:	46045032 	c.eq.s	$f10,$f4
    6938:	00000000 	nop
    693c:	4502000e 	bc1fl	6978 <func_801058B8+0x650>
    6940:	c608000c 	lwc1	$f8,12(s0)
    6944:	c6080008 	lwc1	$f8,8(s0)
    6948:	c6260008 	lwc1	$f6,8(s1)
    694c:	46064032 	c.eq.s	$f8,$f6
    6950:	00000000 	nop
    6954:	45020008 	bc1fl	6978 <func_801058B8+0x650>
    6958:	c608000c 	lwc1	$f8,12(s0)
    695c:	c60a000c 	lwc1	$f10,12(s0)
    6960:	c624000c 	lwc1	$f4,12(s1)
    6964:	46045032 	c.eq.s	$f10,$f4
    6968:	00000000 	nop
    696c:	45010019 	bc1t	69d4 <func_801058B8+0x6ac>
    6970:	00000000 	nop
    6974:	c608000c 	lwc1	$f8,12(s0)
    6978:	c62a000c 	lwc1	$f10,12(s1)
    697c:	46004187 	neg.s	$f6,$f8
    6980:	460a3032 	c.eq.s	$f6,$f10
    6984:	00000000 	nop
    6988:	45020012 	bc1fl	69d4 <func_801058B8+0x6ac>
    698c:	02009825 	move	s3,s0
    6990:	c6280004 	lwc1	$f8,4(s1)
    6994:	c6060004 	lwc1	$f6,4(s0)
    6998:	3c01bf80 	lui	at,0xbf80
    699c:	44812000 	mtc1	at,$f4
    69a0:	46064282 	mul.s	$f10,$f8,$f6
    69a4:	00000000 	nop
    69a8:	46001202 	mul.s	$f8,$f2,$f0
    69ac:	460a4180 	add.s	$f6,$f8,$f10
    69b0:	c60a0008 	lwc1	$f10,8(s0)
    69b4:	c6280008 	lwc1	$f8,8(s1)
    69b8:	460a4202 	mul.s	$f8,$f8,$f10
    69bc:	46083280 	add.s	$f10,$f6,$f8
    69c0:	460a2032 	c.eq.s	$f4,$f10
    69c4:	00000000 	nop
    69c8:	45010002 	bc1t	69d4 <func_801058B8+0x6ac>
    69cc:	00000000 	nop
    69d0:	02009825 	move	s3,s0
    69d4:	1000fe9e 	b	6450 <func_801058B8+0x128>
    69d8:	8fb00130 	lw	s0,304(sp)
    69dc:	8e8b0000 	lw	t3,0(s4)
    69e0:	8fb00130 	lw	s0,304(sp)
    69e4:	8e8a0004 	lw	t2,4(s4)
    69e8:	aeeb0000 	sw	t3,0(s7)
    69ec:	8e8b0008 	lw	t3,8(s4)
    69f0:	aeea0004 	sw	t2,4(s7)
    69f4:	02209825 	move	s3,s1
    69f8:	aeeb0008 	sw	t3,8(s7)
    69fc:	8fac0120 	lw	t4,288(sp)
    6a00:	8fad0118 	lw	t5,280(sp)
    6a04:	4600e701 	sub.s	$f28,$f28,$f0
    6a08:	afae0110 	sw	t6,272(sp)
    6a0c:	02008825 	move	s1,s0
    6a10:	afac011c 	sw	t4,284(sp)
    6a14:	1000fe8e 	b	6450 <func_801058B8+0x128>
    6a18:	afad0114 	sw	t5,276(sp)
    6a1c:	c7a60140 	lwc1	$f6,320(sp)
    6a20:	c7a8014c 	lwc1	$f8,332(sp)
    6a24:	c7a40144 	lwc1	$f4,324(sp)
    6a28:	c7aa0150 	lwc1	$f10,336(sp)
    6a2c:	46083001 	sub.s	$f0,$f6,$f8
    6a30:	c7a80154 	lwc1	$f8,340(sp)
    6a34:	c7a60148 	lwc1	$f6,328(sp)
    6a38:	460a2581 	sub.s	$f22,$f4,$f10
    6a3c:	46000102 	mul.s	$f4,$f0,$f0
    6a40:	46000506 	mov.s	$f20,$f0
    6a44:	46083601 	sub.s	$f24,$f6,$f8
    6a48:	4616b282 	mul.s	$f10,$f22,$f22
    6a4c:	460a2180 	add.s	$f6,$f4,$f10
    6a50:	4618c202 	mul.s	$f8,$f24,$f24
    6a54:	0c000000 	jal	0 <func_800FF5E0_ovl2>
    6a58:	46083300 	add.s	$f12,$f6,$f8
    6a5c:	4600e03e 	c.le.s	$f28,$f0
    6a60:	8fa30178 	lw	v1,376(sp)
    6a64:	00001025 	move	v0,zero
    6a68:	45020011 	bc1fl	6ab0 <func_801058B8+0x788>
    6a6c:	8ed80000 	lw	t8,0(s6)
    6a70:	4600e083 	div.s	$f2,$f28,$f0
    6a74:	c7aa014c 	lwc1	$f10,332(sp)
    6a78:	8fa30178 	lw	v1,376(sp)
    6a7c:	4602a102 	mul.s	$f4,$f20,$f2
    6a80:	460a2180 	add.s	$f6,$f4,$f10
    6a84:	4602b202 	mul.s	$f8,$f22,$f2
    6a88:	e4660000 	swc1	$f6,0(v1)
    6a8c:	c7a40150 	lwc1	$f4,336(sp)
    6a90:	4602c182 	mul.s	$f6,$f24,$f2
    6a94:	46044280 	add.s	$f10,$f8,$f4
    6a98:	e46a0004 	swc1	$f10,4(v1)
    6a9c:	c7a80154 	lwc1	$f8,340(sp)
    6aa0:	46083100 	add.s	$f4,$f6,$f8
    6aa4:	10000007 	b	6ac4 <func_801058B8+0x79c>
    6aa8:	e4640008 	swc1	$f4,8(v1)
    6aac:	8ed80000 	lw	t8,0(s6)
    6ab0:	ac780000 	sw	t8,0(v1)
    6ab4:	8ecf0004 	lw	t7,4(s6)
    6ab8:	ac6f0004 	sw	t7,4(v1)
    6abc:	8ed80008 	lw	t8,8(s6)
    6ac0:	ac780008 	sw	t8,8(v1)
    6ac4:	8fb90110 	lw	t9,272(sp)
    6ac8:	8fa80180 	lw	t0,384(sp)
    6acc:	13200008 	beqz	t9,6af0 <func_801058B8+0x7c8>
    6ad0:	00000000 	nop
    6ad4:	ad110000 	sw	s1,0(t0)
    6ad8:	8faa0184 	lw	t2,388(sp)
    6adc:	8fa9011c 	lw	t1,284(sp)
    6ae0:	ad490000 	sw	t1,0(t2)
    6ae4:	8fac0188 	lw	t4,392(sp)
    6ae8:	8fab0114 	lw	t3,276(sp)
    6aec:	ad8b0000 	sw	t3,0(t4)
    6af0:	8fbf007c 	lw	ra,124(sp)
    6af4:	d7b40028 	ldc1	$f20,40(sp)
    6af8:	d7b60030 	ldc1	$f22,48(sp)
    6afc:	d7b80038 	ldc1	$f24,56(sp)
    6b00:	d7ba0040 	ldc1	$f26,64(sp)
    6b04:	d7bc0048 	ldc1	$f28,72(sp)
    6b08:	d7be0050 	ldc1	$f30,80(sp)
    6b0c:	8fb0005c 	lw	s0,92(sp)
    6b10:	8fb10060 	lw	s1,96(sp)
    6b14:	8fb20064 	lw	s2,100(sp)
    6b18:	8fb30068 	lw	s3,104(sp)
    6b1c:	8fb4006c 	lw	s4,108(sp)
    6b20:	8fb50070 	lw	s5,112(sp)
    6b24:	8fb60074 	lw	s6,116(sp)
    6b28:	8fb70078 	lw	s7,120(sp)
    6b2c:	03e00008 	jr	ra
    6b30:	27bd0168 	addiu	sp,sp,360

00006b34 <func_801060C4>:
func_801060C4():
    6b34:	27bdff60 	addiu	sp,sp,-160
    6b38:	afb10034 	sw	s1,52(sp)
    6b3c:	3c110000 	lui	s1,0x0
    6b40:	26310000 	addiu	s1,s1,0
    6b44:	afbf003c 	sw	ra,60(sp)
    6b48:	afb20038 	sw	s2,56(sp)
    6b4c:	afb00030 	sw	s0,48(sp)
    6b50:	c4840004 	lwc1	$f4,4(a0)
    6b54:	c6260004 	lwc1	$f6,4(s1)
    6b58:	00a08025 	move	s0,a1
    6b5c:	00809025 	move	s2,a0
    6b60:	46062200 	add.s	$f8,$f4,$f6
    6b64:	27b90080 	addiu	t9,sp,128
    6b68:	27a8006c 	addiu	t0,sp,108
    6b6c:	27a9009c 	addiu	t1,sp,156
    6b70:	e7a8008c 	swc1	$f8,140(sp)
    6b74:	c4840010 	lwc1	$f4,16(a0)
    6b78:	c48a0008 	lwc1	$f10,8(a0)
    6b7c:	27aa0098 	addiu	t2,sp,152
    6b80:	27ab0070 	addiu	t3,sp,112
    6b84:	46045180 	add.s	$f6,$f10,$f4
    6b88:	c62a0008 	lwc1	$f10,8(s1)
    6b8c:	3c07bf80 	lui	a3,0xbf80
    6b90:	e7a60090 	swc1	$f6,144(sp)
    6b94:	c488000c 	lwc1	$f8,12(a0)
    6b98:	3c040000 	lui	a0,0x0
    6b9c:	24840000 	addiu	a0,a0,0
    6ba0:	460a4100 	add.s	$f4,$f8,$f10
    6ba4:	e7a40094 	swc1	$f4,148(sp)
    6ba8:	8cae0024 	lw	t6,36(a1)
    6bac:	afae009c 	sw	t6,156(sp)
    6bb0:	8caf0020 	lw	t7,32(a1)
    6bb4:	afaf0098 	sw	t7,152(sp)
    6bb8:	8cb8001c 	lw	t8,28(a1)
    6bbc:	27a5008c 	addiu	a1,sp,140
    6bc0:	afb80070 	sw	t8,112(sp)
    6bc4:	8e060024 	lw	a2,36(s0)
    6bc8:	afab0020 	sw	t3,32(sp)
    6bcc:	afaa001c 	sw	t2,28(sp)
    6bd0:	afa90018 	sw	t1,24(sp)
    6bd4:	afa80014 	sw	t0,20(sp)
    6bd8:	0c000000 	jal	0 <func_800FF5E0_ovl2>
    6bdc:	afb90010 	sw	t9,16(sp)
    6be0:	10400008 	beqz	v0,6c04 <func_801060C4+0xd0>
    6be4:	27a30080 	addiu	v1,sp,128
    6be8:	24010001 	li	at,1
    6bec:	1041002f 	beq	v0,at,6cac <func_801060C4+0x178>
    6bf0:	24010002 	li	at,2
    6bf4:	5041003f 	beql	v0,at,6cf4 <func_801060C4+0x1c0>
    6bf8:	c7a6008c 	lwc1	$f6,140(sp)
    6bfc:	10000081 	b	6e04 <func_801060C4+0x2d0>
    6c00:	8fa8009c 	lw	t0,156(sp)
    6c04:	c7a6008c 	lwc1	$f6,140(sp)
    6c08:	c7a80080 	lwc1	$f8,128(sp)
    6c0c:	c6240014 	lwc1	$f4,20(s1)
    6c10:	46083281 	sub.s	$f10,$f6,$f8
    6c14:	c7a80094 	lwc1	$f8,148(sp)
    6c18:	46045182 	mul.s	$f6,$f10,$f4
    6c1c:	c7aa0088 	lwc1	$f10,136(sp)
    6c20:	460a4101 	sub.s	$f4,$f8,$f10
    6c24:	c6280018 	lwc1	$f8,24(s1)
    6c28:	46082282 	mul.s	$f10,$f4,$f8
    6c2c:	44804000 	mtc1	zero,$f8
    6c30:	460a3100 	add.s	$f4,$f6,$f10
    6c34:	4608203c 	c.lt.s	$f4,$f8
    6c38:	00000000 	nop
    6c3c:	4502000b 	bc1fl	6c6c <func_801060C4+0x138>
    6c40:	8c6d0000 	lw	t5,0(v1)
    6c44:	8e0c0000 	lw	t4,0(s0)
    6c48:	96080000 	lhu	t0,0(s0)
    6c4c:	000c6cc2 	srl	t5,t4,0x13
    6c50:	31affff8 	andi	t7,t5,0xfff8
    6c54:	000fc8c0 	sll	t9,t7,0x3
    6c58:	31090007 	andi	t1,t0,0x7
    6c5c:	03295025 	or	t2,t9,t1
    6c60:	10000079 	b	6e48 <func_801060C4+0x314>
    6c64:	a60a0000 	sh	t2,0(s0)
    6c68:	8c6d0000 	lw	t5,0(v1)
    6c6c:	27ab0074 	addiu	t3,sp,116
    6c70:	ad6d0000 	sw	t5,0(t3)
    6c74:	8c6c0004 	lw	t4,4(v1)
    6c78:	ad6c0004 	sw	t4,4(t3)
    6c7c:	8c6d0008 	lw	t5,8(v1)
    6c80:	ad6d0008 	sw	t5,8(t3)
    6c84:	8e0e0000 	lw	t6,0(s0)
    6c88:	960b0000 	lhu	t3,0(s0)
    6c8c:	000e7cc2 	srl	t7,t6,0x13
    6c90:	31f8fff8 	andi	t8,t7,0xfff8
    6c94:	37190001 	ori	t9,t8,0x1
    6c98:	001950c0 	sll	t2,t9,0x3
    6c9c:	316c0007 	andi	t4,t3,0x7
    6ca0:	014c6825 	or	t5,t2,t4
    6ca4:	10000056 	b	6e00 <func_801060C4+0x2cc>
    6ca8:	a60d0000 	sh	t5,0(s0)
    6cac:	8c780000 	lw	t8,0(v1)
    6cb0:	27ae0074 	addiu	t6,sp,116
    6cb4:	add80000 	sw	t8,0(t6)
    6cb8:	8c6f0004 	lw	t7,4(v1)
    6cbc:	adcf0004 	sw	t7,4(t6)
    6cc0:	8c780008 	lw	t8,8(v1)
    6cc4:	add80008 	sw	t8,8(t6)
    6cc8:	8e080000 	lw	t0,0(s0)
    6ccc:	960e0000 	lhu	t6,0(s0)
    6cd0:	0008ccc2 	srl	t9,t0,0x13
    6cd4:	3329fff8 	andi	t1,t9,0xfff8
    6cd8:	352a0001 	ori	t2,t1,0x1
    6cdc:	000a68c0 	sll	t5,t2,0x3
    6ce0:	31cf0007 	andi	t7,t6,0x7
    6ce4:	01afc025 	or	t8,t5,t7
    6ce8:	10000045 	b	6e00 <func_801060C4+0x2cc>
    6cec:	a6180000 	sh	t8,0(s0)
    6cf0:	c7a6008c 	lwc1	$f6,140(sp)
    6cf4:	c62a0034 	lwc1	$f10,52(s1)
    6cf8:	c7a40090 	lwc1	$f4,144(sp)
    6cfc:	c6280038 	lwc1	$f8,56(s1)
    6d00:	460a3381 	sub.s	$f14,$f6,$f10
    6d04:	c62a003c 	lwc1	$f10,60(s1)
    6d08:	c7a60094 	lwc1	$f6,148(sp)
    6d0c:	46082401 	sub.s	$f16,$f4,$f8
    6d10:	460e7102 	mul.s	$f4,$f14,$f14
    6d14:	e7ae0060 	swc1	$f14,96(sp)
    6d18:	460a3481 	sub.s	$f18,$f6,$f10
    6d1c:	46108202 	mul.s	$f8,$f16,$f16
    6d20:	e7b00064 	swc1	$f16,100(sp)
    6d24:	46129282 	mul.s	$f10,$f18,$f18
    6d28:	e7b20068 	swc1	$f18,104(sp)
    6d2c:	46082180 	add.s	$f6,$f4,$f8
    6d30:	0c000000 	jal	0 <func_800FF5E0_ovl2>
    6d34:	460a3300 	add.s	$f12,$f6,$f10
    6d38:	c7a2006c 	lwc1	$f2,108(sp)
    6d3c:	c7ae0060 	lwc1	$f14,96(sp)
    6d40:	c7b00064 	lwc1	$f16,100(sp)
    6d44:	46001083 	div.s	$f2,$f2,$f0
    6d48:	c7a80080 	lwc1	$f8,128(sp)
    6d4c:	c7b20068 	lwc1	$f18,104(sp)
    6d50:	8fa4009c 	lw	a0,156(sp)
    6d54:	27a50074 	addiu	a1,sp,116
    6d58:	27a60048 	addiu	a2,sp,72
    6d5c:	27a70054 	addiu	a3,sp,84
    6d60:	46027102 	mul.s	$f4,$f14,$f2
    6d64:	e7a2006c 	swc1	$f2,108(sp)
    6d68:	46028282 	mul.s	$f10,$f16,$f2
    6d6c:	46082180 	add.s	$f6,$f4,$f8
    6d70:	46029202 	mul.s	$f8,$f18,$f2
    6d74:	c7a40084 	lwc1	$f4,132(sp)
    6d78:	e7a60074 	swc1	$f6,116(sp)
    6d7c:	46045300 	add.s	$f12,$f10,$f4
    6d80:	c7aa0088 	lwc1	$f10,136(sp)
    6d84:	460a4100 	add.s	$f4,$f8,$f10
    6d88:	c6280014 	lwc1	$f8,20(s1)
    6d8c:	e7ac004c 	swc1	$f12,76(sp)
    6d90:	e7ac0078 	swc1	$f12,120(sp)
    6d94:	46083280 	add.s	$f10,$f6,$f8
    6d98:	c6260018 	lwc1	$f6,24(s1)
    6d9c:	e7a4007c 	swc1	$f4,124(sp)
    6da0:	46062200 	add.s	$f8,$f4,$f6
    6da4:	e7aa0048 	swc1	$f10,72(sp)
    6da8:	0c000000 	jal	0 <func_800FF5E0_ovl2>
    6dac:	e7a80050 	swc1	$f8,80(sp)
    6db0:	50400014 	beqzl	v0,6e04 <func_801060C4+0x2d0>
    6db4:	8fa8009c 	lw	t0,156(sp)
    6db8:	c7a00054 	lwc1	$f0,84(sp)
    6dbc:	c7a40074 	lwc1	$f4,116(sp)
    6dc0:	c6280014 	lwc1	$f8,20(s1)
    6dc4:	c7a2005c 	lwc1	$f2,92(sp)
    6dc8:	46002181 	sub.s	$f6,$f4,$f0
    6dcc:	44805000 	mtc1	zero,$f10
    6dd0:	46083102 	mul.s	$f4,$f6,$f8
    6dd4:	c7a6007c 	lwc1	$f6,124(sp)
    6dd8:	46023201 	sub.s	$f8,$f6,$f2
    6ddc:	c6260018 	lwc1	$f6,24(s1)
    6de0:	46064202 	mul.s	$f8,$f8,$f6
    6de4:	46082180 	add.s	$f6,$f4,$f8
    6de8:	4606503c 	c.lt.s	$f10,$f6
    6dec:	00000000 	nop
    6df0:	45020004 	bc1fl	6e04 <func_801060C4+0x2d0>
    6df4:	8fa8009c 	lw	t0,156(sp)
    6df8:	e7a00074 	swc1	$f0,116(sp)
    6dfc:	e7a2007c 	swc1	$f2,124(sp)
    6e00:	8fa8009c 	lw	t0,156(sp)
    6e04:	ae080024 	sw	t0,36(s0)
    6e08:	8fb90098 	lw	t9,152(sp)
    6e0c:	ae190020 	sw	t9,32(s0)
    6e10:	8fa90070 	lw	t1,112(sp)
    6e14:	ae09001c 	sw	t1,28(s0)
    6e18:	c6280024 	lwc1	$f8,36(s1)
    6e1c:	c7a40074 	lwc1	$f4,116(sp)
    6e20:	46082281 	sub.s	$f10,$f4,$f8
    6e24:	c6440010 	lwc1	$f4,16(s2)
    6e28:	e64a0004 	swc1	$f10,4(s2)
    6e2c:	c7a60078 	lwc1	$f6,120(sp)
    6e30:	46043201 	sub.s	$f8,$f6,$f4
    6e34:	e6480008 	swc1	$f8,8(s2)
    6e38:	c6260028 	lwc1	$f6,40(s1)
    6e3c:	c7aa007c 	lwc1	$f10,124(sp)
    6e40:	46065101 	sub.s	$f4,$f10,$f6
    6e44:	e644000c 	swc1	$f4,12(s2)
    6e48:	8fbf003c 	lw	ra,60(sp)
    6e4c:	8fb00030 	lw	s0,48(sp)
    6e50:	8fb10034 	lw	s1,52(sp)
    6e54:	8fb20038 	lw	s2,56(sp)
    6e58:	03e00008 	jr	ra
    6e5c:	27bd00a0 	addiu	sp,sp,160

00006e60 <func_801063F0>:
func_801063F0():
    6e60:	27bdff80 	addiu	sp,sp,-128
    6e64:	3c020000 	lui	v0,0x0
    6e68:	24420000 	addiu	v0,v0,0
    6e6c:	3c010000 	lui	at,0x0
    6e70:	c4240000 	lwc1	$f4,0(at)
    6e74:	c446001c 	lwc1	$f6,28(v0)
    6e78:	44804000 	mtc1	zero,$f8
    6e7c:	c44a0020 	lwc1	$f10,32(v0)
    6e80:	afbf002c 	sw	ra,44(sp)
    6e84:	afb10028 	sw	s1,40(sp)
    6e88:	afb00024 	sw	s0,36(sp)
    6e8c:	e7a40078 	swc1	$f4,120(sp)
    6e90:	e7a60054 	swc1	$f6,84(sp)
    6e94:	e7a80058 	swc1	$f8,88(sp)
    6e98:	e7aa005c 	swc1	$f10,92(sp)
    6e9c:	c490003c 	lwc1	$f16,60(a0)
    6ea0:	c448000c 	lwc1	$f8,12(v0)
    6ea4:	00a08825 	move	s1,a1
    6ea8:	e7b0006c 	swc1	$f16,108(sp)
    6eac:	c492002c 	lwc1	$f18,44(a0)
    6eb0:	3c0e0000 	lui	t6,0x0
    6eb4:	00808025 	move	s0,a0
    6eb8:	e7b20070 	swc1	$f18,112(sp)
    6ebc:	c4840040 	lwc1	$f4,64(a0)
    6ec0:	25ce0000 	addiu	t6,t6,0
    6ec4:	262f0030 	addiu	t7,s1,48
    6ec8:	e7a40074 	swc1	$f4,116(sp)
    6ecc:	c4860004 	lwc1	$f6,4(a0)
    6ed0:	2638002c 	addiu	t8,s1,44
    6ed4:	26390028 	addiu	t9,s1,40
    6ed8:	46083280 	add.s	$f10,$f6,$f8
    6edc:	c4480010 	lwc1	$f8,16(v0)
    6ee0:	27a50060 	addiu	a1,sp,96
    6ee4:	27a60054 	addiu	a2,sp,84
    6ee8:	e7aa0060 	swc1	$f10,96(sp)
    6eec:	c4920010 	lwc1	$f18,16(a0)
    6ef0:	c4900008 	lwc1	$f16,8(a0)
    6ef4:	27a70078 	addiu	a3,sp,120
    6ef8:	46128100 	add.s	$f4,$f16,$f18
    6efc:	e7a40064 	swc1	$f4,100(sp)
    6f00:	c486000c 	lwc1	$f6,12(a0)
    6f04:	afa00050 	sw	zero,80(sp)
    6f08:	afb9001c 	sw	t9,28(sp)
    6f0c:	46083280 	add.s	$f10,$f6,$f8
    6f10:	afb80018 	sw	t8,24(sp)
    6f14:	afaf0014 	sw	t7,20(sp)
    6f18:	afae0010 	sw	t6,16(sp)
    6f1c:	e7aa0068 	swc1	$f10,104(sp)
    6f20:	0c000000 	jal	0 <func_800FF5E0_ovl2>
    6f24:	27a4006c 	addiu	a0,sp,108
    6f28:	10400002 	beqz	v0,6f34 <func_801063F0+0xd4>
    6f2c:	8fa30050 	lw	v1,80(sp)
    6f30:	24030008 	li	v1,8
    6f34:	c6100048 	lwc1	$f16,72(s0)
    6f38:	26080010 	addiu	t0,s0,16
    6f3c:	27a90040 	addiu	t1,sp,64
    6f40:	e7b00070 	swc1	$f16,112(sp)
    6f44:	c5040008 	lwc1	$f4,8(t0)
    6f48:	c6120008 	lwc1	$f18,8(s0)
    6f4c:	27aa003c 	addiu	t2,sp,60
    6f50:	27ab0038 	addiu	t3,sp,56
    6f54:	46049180 	add.s	$f6,$f18,$f4
    6f58:	27ac0034 	addiu	t4,sp,52
    6f5c:	afac001c 	sw	t4,28(sp)
    6f60:	afab0018 	sw	t3,24(sp)
    6f64:	e7a60064 	swc1	$f6,100(sp)
    6f68:	afaa0014 	sw	t2,20(sp)
    6f6c:	afa80030 	sw	t0,48(sp)
    6f70:	afa30050 	sw	v1,80(sp)
    6f74:	afa90010 	sw	t1,16(sp)
    6f78:	27a4006c 	addiu	a0,sp,108
    6f7c:	27a50060 	addiu	a1,sp,96
    6f80:	27a60054 	addiu	a2,sp,84
    6f84:	0c000000 	jal	0 <func_800FF5E0_ovl2>
    6f88:	27a7004c 	addiu	a3,sp,76
    6f8c:	8fa30050 	lw	v1,80(sp)
    6f90:	1040001d 	beqz	v0,7008 <func_801063F0+0x1a8>
    6f94:	8fa80030 	lw	t0,48(sp)
    6f98:	10600009 	beqz	v1,6fc0 <func_801063F0+0x160>
    6f9c:	8fad003c 	lw	t5,60(sp)
    6fa0:	8e2e0030 	lw	t6,48(s1)
    6fa4:	c7a8004c 	lwc1	$f8,76(sp)
    6fa8:	c7aa0078 	lwc1	$f10,120(sp)
    6fac:	51ae0017 	beql	t5,t6,700c <func_801063F0+0x1ac>
    6fb0:	c6120044 	lwc1	$f18,68(s0)
    6fb4:	460a403c 	c.lt.s	$f8,$f10
    6fb8:	00000000 	nop
    6fbc:	45000012 	bc1f	7008 <func_801063F0+0x1a8>
    6fc0:	27b80040 	addiu	t8,sp,64
    6fc4:	8f090000 	lw	t1,0(t8)
    6fc8:	3c0f0000 	lui	t7,0x0
    6fcc:	25ef0000 	addiu	t7,t7,0
    6fd0:	ade90000 	sw	t1,0(t7)
    6fd4:	8f090008 	lw	t1,8(t8)
    6fd8:	8f190004 	lw	t9,4(t8)
    6fdc:	24030020 	li	v1,32
    6fe0:	ade90008 	sw	t1,8(t7)
    6fe4:	adf90004 	sw	t9,4(t7)
    6fe8:	8faa003c 	lw	t2,60(sp)
    6fec:	ae2a0030 	sw	t2,48(s1)
    6ff0:	8fab0038 	lw	t3,56(sp)
    6ff4:	ae2b002c 	sw	t3,44(s1)
    6ff8:	8fac0034 	lw	t4,52(sp)
    6ffc:	ae2c0028 	sw	t4,40(s1)
    7000:	c7b0004c 	lwc1	$f16,76(sp)
    7004:	e7b00078 	swc1	$f16,120(sp)
    7008:	c6120044 	lwc1	$f18,68(s0)
    700c:	27ad0040 	addiu	t5,sp,64
    7010:	27ae003c 	addiu	t6,sp,60
    7014:	e7b20070 	swc1	$f18,112(sp)
    7018:	c5060004 	lwc1	$f6,4(t0)
    701c:	c6040008 	lwc1	$f4,8(s0)
    7020:	27af0038 	addiu	t7,sp,56
    7024:	27b80034 	addiu	t8,sp,52
    7028:	46062200 	add.s	$f8,$f4,$f6
    702c:	afb8001c 	sw	t8,28(sp)
    7030:	afaf0018 	sw	t7,24(sp)
    7034:	afa30050 	sw	v1,80(sp)
    7038:	e7a80064 	swc1	$f8,100(sp)
    703c:	afae0014 	sw	t6,20(sp)
    7040:	afad0010 	sw	t5,16(sp)
    7044:	27a4006c 	addiu	a0,sp,108
    7048:	27a50060 	addiu	a1,sp,96
    704c:	27a60054 	addiu	a2,sp,84
    7050:	0c000000 	jal	0 <func_800FF5E0_ovl2>
    7054:	27a7004c 	addiu	a3,sp,76
    7058:	1040001b 	beqz	v0,70c8 <func_801063F0+0x268>
    705c:	8fa30050 	lw	v1,80(sp)
    7060:	10600009 	beqz	v1,7088 <func_801063F0+0x228>
    7064:	8fb9003c 	lw	t9,60(sp)
    7068:	8e290030 	lw	t1,48(s1)
    706c:	c7aa004c 	lwc1	$f10,76(sp)
    7070:	c7b00078 	lwc1	$f16,120(sp)
    7074:	13290014 	beq	t9,t1,70c8 <func_801063F0+0x268>
    7078:	00000000 	nop
    707c:	4610503c 	c.lt.s	$f10,$f16
    7080:	00000000 	nop
    7084:	45000010 	bc1f	70c8 <func_801063F0+0x268>
    7088:	27ab0040 	addiu	t3,sp,64
    708c:	8d6d0000 	lw	t5,0(t3)
    7090:	3c0a0000 	lui	t2,0x0
    7094:	254a0000 	addiu	t2,t2,0
    7098:	ad4d0000 	sw	t5,0(t2)
    709c:	8d6d0008 	lw	t5,8(t3)
    70a0:	8d6c0004 	lw	t4,4(t3)
    70a4:	24030010 	li	v1,16
    70a8:	ad4d0008 	sw	t5,8(t2)
    70ac:	ad4c0004 	sw	t4,4(t2)
    70b0:	8fae003c 	lw	t6,60(sp)
    70b4:	ae2e0030 	sw	t6,48(s1)
    70b8:	8faf0038 	lw	t7,56(sp)
    70bc:	ae2f002c 	sw	t7,44(s1)
    70c0:	8fb80034 	lw	t8,52(sp)
    70c4:	ae380028 	sw	t8,40(s1)
    70c8:	1060000b 	beqz	v1,70f8 <func_801063F0+0x298>
    70cc:	00001025 	move	v0,zero
    70d0:	8e390000 	lw	t9,0(s1)
    70d4:	962d0000 	lhu	t5,0(s1)
    70d8:	24020001 	li	v0,1
    70dc:	00194cc2 	srl	t1,t9,0x13
    70e0:	01235025 	or	t2,t1,v1
    70e4:	000a60c0 	sll	t4,t2,0x3
    70e8:	31ae0007 	andi	t6,t5,0x7
    70ec:	018e7825 	or	t7,t4,t6
    70f0:	10000001 	b	70f8 <func_801063F0+0x298>
    70f4:	a62f0000 	sh	t7,0(s1)
    70f8:	8fbf002c 	lw	ra,44(sp)
    70fc:	8fb00024 	lw	s0,36(sp)
    7100:	8fb10028 	lw	s1,40(sp)
    7104:	03e00008 	jr	ra
    7108:	27bd0080 	addiu	sp,sp,128

0000710c <func_8010669C>:
func_8010669C():
    710c:	27bdffa0 	addiu	sp,sp,-96
    7110:	afbf002c 	sw	ra,44(sp)
    7114:	afb10028 	sw	s1,40(sp)
    7118:	afb00024 	sw	s0,36(sp)
    711c:	8cae0000 	lw	t6,0(a1)
    7120:	00808025 	move	s0,a0
    7124:	00a08825 	move	s1,a1
    7128:	000e7cc2 	srl	t7,t6,0x13
    712c:	31f80038 	andi	t8,t7,0x38
    7130:	17000056 	bnez	t8,728c <func_8010669C+0x180>
    7134:	3c030000 	lui	v1,0x0
    7138:	24630000 	addiu	v1,v1,0
    713c:	c464001c 	lwc1	$f4,28(v1)
    7140:	44803000 	mtc1	zero,$f6
    7144:	c4680020 	lwc1	$f8,32(v1)
    7148:	e7a4003c 	swc1	$f4,60(sp)
    714c:	e7a60040 	swc1	$f6,64(sp)
    7150:	e7a80044 	swc1	$f8,68(sp)
    7154:	c48a0004 	lwc1	$f10,4(a0)
    7158:	c4700004 	lwc1	$f16,4(v1)
    715c:	3c190000 	lui	t9,0x0
    7160:	27390000 	addiu	t9,t9,0
    7164:	46105480 	add.s	$f18,$f10,$f16
    7168:	c4700008 	lwc1	$f16,8(v1)
    716c:	26280030 	addiu	t0,s1,48
    7170:	2629002c 	addiu	t1,s1,44
    7174:	e7b20054 	swc1	$f18,84(sp)
    7178:	c4860010 	lwc1	$f6,16(a0)
    717c:	c4840008 	lwc1	$f4,8(a0)
    7180:	262a0028 	addiu	t2,s1,40
    7184:	27a50048 	addiu	a1,sp,72
    7188:	46062200 	add.s	$f8,$f4,$f6
    718c:	c466000c 	lwc1	$f6,12(v1)
    7190:	27a6003c 	addiu	a2,sp,60
    7194:	00003825 	move	a3,zero
    7198:	e7a80058 	swc1	$f8,88(sp)
    719c:	c48a000c 	lwc1	$f10,12(a0)
    71a0:	46105480 	add.s	$f18,$f10,$f16
    71a4:	c7aa0058 	lwc1	$f10,88(sp)
    71a8:	e7b2005c 	swc1	$f18,92(sp)
    71ac:	c4840004 	lwc1	$f4,4(a0)
    71b0:	e7aa004c 	swc1	$f10,76(sp)
    71b4:	c4720010 	lwc1	$f18,16(v1)
    71b8:	46062200 	add.s	$f8,$f4,$f6
    71bc:	e7a80048 	swc1	$f8,72(sp)
    71c0:	c490000c 	lwc1	$f16,12(a0)
    71c4:	afaa0030 	sw	t2,48(sp)
    71c8:	afa90034 	sw	t1,52(sp)
    71cc:	46128100 	add.s	$f4,$f16,$f18
    71d0:	afa80038 	sw	t0,56(sp)
    71d4:	afaa001c 	sw	t2,28(sp)
    71d8:	afa90018 	sw	t1,24(sp)
    71dc:	e7a40050 	swc1	$f4,80(sp)
    71e0:	afa80014 	sw	t0,20(sp)
    71e4:	afb90010 	sw	t9,16(sp)
    71e8:	0c000000 	jal	0 <func_800FF5E0_ovl2>
    71ec:	27a40054 	addiu	a0,sp,84
    71f0:	3c030000 	lui	v1,0x0
    71f4:	24630000 	addiu	v1,v1,0
    71f8:	8fa80038 	lw	t0,56(sp)
    71fc:	8fa90034 	lw	t1,52(sp)
    7200:	1040000b 	beqz	v0,7230 <func_8010669C+0x124>
    7204:	8faa0030 	lw	t2,48(sp)
    7208:	8e2b0000 	lw	t3,0(s1)
    720c:	96380000 	lhu	t8,0(s1)
    7210:	24020001 	li	v0,1
    7214:	000b64c2 	srl	t4,t3,0x13
    7218:	358d0008 	ori	t5,t4,0x8
    721c:	000d78c0 	sll	t7,t5,0x3
    7220:	33190007 	andi	t9,t8,0x7
    7224:	01f95825 	or	t3,t7,t9
    7228:	10000019 	b	7290 <func_8010669C+0x184>
    722c:	a62b0000 	sh	t3,0(s1)
    7230:	c6060004 	lwc1	$f6,4(s0)
    7234:	c468002c 	lwc1	$f8,44(v1)
    7238:	c4720030 	lwc1	$f18,48(v1)
    723c:	3c0c0000 	lui	t4,0x0
    7240:	46083280 	add.s	$f10,$f6,$f8
    7244:	258c0000 	addiu	t4,t4,0
    7248:	27a40054 	addiu	a0,sp,84
    724c:	27a50048 	addiu	a1,sp,72
    7250:	e7aa0048 	swc1	$f10,72(sp)
    7254:	c610000c 	lwc1	$f16,12(s0)
    7258:	afaa001c 	sw	t2,28(sp)
    725c:	afa90018 	sw	t1,24(sp)
    7260:	46128100 	add.s	$f4,$f16,$f18
    7264:	afa80014 	sw	t0,20(sp)
    7268:	afac0010 	sw	t4,16(sp)
    726c:	27a6003c 	addiu	a2,sp,60
    7270:	e7a40050 	swc1	$f4,80(sp)
    7274:	0c000000 	jal	0 <func_800FF5E0_ovl2>
    7278:	00003825 	move	a3,zero
    727c:	50400004 	beqzl	v0,7290 <func_8010669C+0x184>
    7280:	00001025 	move	v0,zero
    7284:	10000002 	b	7290 <func_8010669C+0x184>
    7288:	24020001 	li	v0,1
    728c:	00001025 	move	v0,zero
    7290:	8fbf002c 	lw	ra,44(sp)
    7294:	8fb00024 	lw	s0,36(sp)
    7298:	8fb10028 	lw	s1,40(sp)
    729c:	03e00008 	jr	ra
    72a0:	27bd0060 	addiu	sp,sp,96

000072a4 <func_80106834>:
func_80106834():
    72a4:	27bdffa0 	addiu	sp,sp,-96
    72a8:	afbf002c 	sw	ra,44(sp)
    72ac:	afb10028 	sw	s1,40(sp)
    72b0:	afb00024 	sw	s0,36(sp)
    72b4:	c484003c 	lwc1	$f4,60(a0)
    72b8:	3c020000 	lui	v0,0x0
    72bc:	24420000 	addiu	v0,v0,0
    72c0:	e7a4004c 	swc1	$f4,76(sp)
    72c4:	c486002c 	lwc1	$f6,44(a0)
    72c8:	c450000c 	lwc1	$f16,12(v0)
    72cc:	00a08825 	move	s1,a1
    72d0:	e7a60050 	swc1	$f6,80(sp)
    72d4:	c4880040 	lwc1	$f8,64(a0)
    72d8:	3c0e0000 	lui	t6,0x0
    72dc:	25ce0000 	addiu	t6,t6,0
    72e0:	e7a80054 	swc1	$f8,84(sp)
    72e4:	c48a0004 	lwc1	$f10,4(a0)
    72e8:	262f0030 	addiu	t7,s1,48
    72ec:	2638002c 	addiu	t8,s1,44
    72f0:	46105480 	add.s	$f18,$f10,$f16
    72f4:	c4500010 	lwc1	$f16,16(v0)
    72f8:	26390028 	addiu	t9,s1,40
    72fc:	27a50040 	addiu	a1,sp,64
    7300:	e7b20040 	swc1	$f18,64(sp)
    7304:	c4860010 	lwc1	$f6,16(a0)
    7308:	c4840008 	lwc1	$f4,8(a0)
    730c:	27a60034 	addiu	a2,sp,52
    7310:	27a70058 	addiu	a3,sp,88
    7314:	46062200 	add.s	$f8,$f4,$f6
    7318:	c444001c 	lwc1	$f4,28(v0)
    731c:	44803000 	mtc1	zero,$f6
    7320:	e7a80044 	swc1	$f8,68(sp)
    7324:	c48a000c 	lwc1	$f10,12(a0)
    7328:	c4480020 	lwc1	$f8,32(v0)
    732c:	afb9001c 	sw	t9,28(sp)
    7330:	46105480 	add.s	$f18,$f10,$f16
    7334:	afb80018 	sw	t8,24(sp)
    7338:	afaf0014 	sw	t7,20(sp)
    733c:	afae0010 	sw	t6,16(sp)
    7340:	e7b20048 	swc1	$f18,72(sp)
    7344:	27a4004c 	addiu	a0,sp,76
    7348:	e7a40034 	swc1	$f4,52(sp)
    734c:	e7a60038 	swc1	$f6,56(sp)
    7350:	0c000000 	jal	0 <func_800FF5E0_ovl2>
    7354:	e7a8003c 	swc1	$f8,60(sp)
    7358:	5040000c 	beqzl	v0,738c <func_80106834+0xe8>
    735c:	00001025 	move	v0,zero
    7360:	8e280000 	lw	t0,0(s1)
    7364:	962d0000 	lhu	t5,0(s1)
    7368:	24020001 	li	v0,1
    736c:	00084cc2 	srl	t1,t0,0x13
    7370:	352a0008 	ori	t2,t1,0x8
    7374:	000a60c0 	sll	t4,t2,0x3
    7378:	31ae0007 	andi	t6,t5,0x7
    737c:	018e7825 	or	t7,t4,t6
    7380:	10000002 	b	738c <func_80106834+0xe8>
    7384:	a62f0000 	sh	t7,0(s1)
    7388:	00001025 	move	v0,zero
    738c:	8fbf002c 	lw	ra,44(sp)
    7390:	8fb00024 	lw	s0,36(sp)
    7394:	8fb10028 	lw	s1,40(sp)
    7398:	03e00008 	jr	ra
    739c:	27bd0060 	addiu	sp,sp,96

000073a0 <func_80106930>:
func_80106930():
    73a0:	27bdff60 	addiu	sp,sp,-160
    73a4:	afb10034 	sw	s1,52(sp)
    73a8:	3c110000 	lui	s1,0x0
    73ac:	26310000 	addiu	s1,s1,0
    73b0:	afbf003c 	sw	ra,60(sp)
    73b4:	afb20038 	sw	s2,56(sp)
    73b8:	afb00030 	sw	s0,48(sp)
    73bc:	c4840004 	lwc1	$f4,4(a0)
    73c0:	c626000c 	lwc1	$f6,12(s1)
    73c4:	00a08025 	move	s0,a1
    73c8:	00809025 	move	s2,a0
    73cc:	46062200 	add.s	$f8,$f4,$f6
    73d0:	27b90080 	addiu	t9,sp,128
    73d4:	27a8006c 	addiu	t0,sp,108
    73d8:	27a9009c 	addiu	t1,sp,156
    73dc:	e7a8008c 	swc1	$f8,140(sp)
    73e0:	c4840010 	lwc1	$f4,16(a0)
    73e4:	c48a0008 	lwc1	$f10,8(a0)
    73e8:	27aa0098 	addiu	t2,sp,152
    73ec:	27ab0070 	addiu	t3,sp,112
    73f0:	46045180 	add.s	$f6,$f10,$f4
    73f4:	c62a0010 	lwc1	$f10,16(s1)
    73f8:	3c073f80 	lui	a3,0x3f80
    73fc:	e7a60090 	swc1	$f6,144(sp)
    7400:	c488000c 	lwc1	$f8,12(a0)
    7404:	3c040000 	lui	a0,0x0
    7408:	24840000 	addiu	a0,a0,0
    740c:	460a4100 	add.s	$f4,$f8,$f10
    7410:	e7a40094 	swc1	$f4,148(sp)
    7414:	8cae0030 	lw	t6,48(a1)
    7418:	afae009c 	sw	t6,156(sp)
    741c:	8caf002c 	lw	t7,44(a1)
    7420:	afaf0098 	sw	t7,152(sp)
    7424:	8cb80028 	lw	t8,40(a1)
    7428:	27a5008c 	addiu	a1,sp,140
    742c:	afb80070 	sw	t8,112(sp)
    7430:	8e060030 	lw	a2,48(s0)
    7434:	afab0020 	sw	t3,32(sp)
    7438:	afaa001c 	sw	t2,28(sp)
    743c:	afa90018 	sw	t1,24(sp)
    7440:	afa80014 	sw	t0,20(sp)
    7444:	0c000000 	jal	0 <func_800FF5E0_ovl2>
    7448:	afb90010 	sw	t9,16(sp)
    744c:	10400008 	beqz	v0,7470 <func_80106930+0xd0>
    7450:	27a30080 	addiu	v1,sp,128
    7454:	24010001 	li	at,1
    7458:	1041002f 	beq	v0,at,7518 <func_80106930+0x178>
    745c:	24010002 	li	at,2
    7460:	5041003f 	beql	v0,at,7560 <func_80106930+0x1c0>
    7464:	c7a6008c 	lwc1	$f6,140(sp)
    7468:	10000081 	b	7670 <func_80106930+0x2d0>
    746c:	8fa8009c 	lw	t0,156(sp)
    7470:	c7a6008c 	lwc1	$f6,140(sp)
    7474:	c7a80080 	lwc1	$f8,128(sp)
    7478:	c624001c 	lwc1	$f4,28(s1)
    747c:	46083281 	sub.s	$f10,$f6,$f8
    7480:	c7a80094 	lwc1	$f8,148(sp)
    7484:	46045182 	mul.s	$f6,$f10,$f4
    7488:	c7aa0088 	lwc1	$f10,136(sp)
    748c:	460a4101 	sub.s	$f4,$f8,$f10
    7490:	c6280020 	lwc1	$f8,32(s1)
    7494:	46082282 	mul.s	$f10,$f4,$f8
    7498:	44804000 	mtc1	zero,$f8
    749c:	460a3100 	add.s	$f4,$f6,$f10
    74a0:	4608203c 	c.lt.s	$f4,$f8
    74a4:	00000000 	nop
    74a8:	4502000b 	bc1fl	74d8 <func_80106930+0x138>
    74ac:	8c6d0000 	lw	t5,0(v1)
    74b0:	8e0c0000 	lw	t4,0(s0)
    74b4:	96080000 	lhu	t0,0(s0)
    74b8:	000c6cc2 	srl	t5,t4,0x13
    74bc:	31afffc7 	andi	t7,t5,0xffc7
    74c0:	000fc8c0 	sll	t9,t7,0x3
    74c4:	31090007 	andi	t1,t0,0x7
    74c8:	03295025 	or	t2,t9,t1
    74cc:	10000079 	b	76b4 <func_80106930+0x314>
    74d0:	a60a0000 	sh	t2,0(s0)
    74d4:	8c6d0000 	lw	t5,0(v1)
    74d8:	27ab0074 	addiu	t3,sp,116
    74dc:	ad6d0000 	sw	t5,0(t3)
    74e0:	8c6c0004 	lw	t4,4(v1)
    74e4:	ad6c0004 	sw	t4,4(t3)
    74e8:	8c6d0008 	lw	t5,8(v1)
    74ec:	ad6d0008 	sw	t5,8(t3)
    74f0:	8e0e0000 	lw	t6,0(s0)
    74f4:	960b0000 	lhu	t3,0(s0)
    74f8:	000e7cc2 	srl	t7,t6,0x13
    74fc:	31f8ffc7 	andi	t8,t7,0xffc7
    7500:	37190008 	ori	t9,t8,0x8
    7504:	001950c0 	sll	t2,t9,0x3
    7508:	316c0007 	andi	t4,t3,0x7
    750c:	014c6825 	or	t5,t2,t4
    7510:	10000056 	b	766c <func_80106930+0x2cc>
    7514:	a60d0000 	sh	t5,0(s0)
    7518:	8c780000 	lw	t8,0(v1)
    751c:	27ae0074 	addiu	t6,sp,116
    7520:	add80000 	sw	t8,0(t6)
    7524:	8c6f0004 	lw	t7,4(v1)
    7528:	adcf0004 	sw	t7,4(t6)
    752c:	8c780008 	lw	t8,8(v1)
    7530:	add80008 	sw	t8,8(t6)
    7534:	8e080000 	lw	t0,0(s0)
    7538:	960e0000 	lhu	t6,0(s0)
    753c:	0008ccc2 	srl	t9,t0,0x13
    7540:	3329ffc7 	andi	t1,t9,0xffc7
    7544:	352a0008 	ori	t2,t1,0x8
    7548:	000a68c0 	sll	t5,t2,0x3
    754c:	31cf0007 	andi	t7,t6,0x7
    7550:	01afc025 	or	t8,t5,t7
    7554:	10000045 	b	766c <func_80106930+0x2cc>
    7558:	a6180000 	sh	t8,0(s0)
    755c:	c7a6008c 	lwc1	$f6,140(sp)
    7560:	c62a0034 	lwc1	$f10,52(s1)
    7564:	c7a40090 	lwc1	$f4,144(sp)
    7568:	c6280038 	lwc1	$f8,56(s1)
    756c:	460a3381 	sub.s	$f14,$f6,$f10
    7570:	c62a003c 	lwc1	$f10,60(s1)
    7574:	c7a60094 	lwc1	$f6,148(sp)
    7578:	46082401 	sub.s	$f16,$f4,$f8
    757c:	460e7102 	mul.s	$f4,$f14,$f14
    7580:	e7ae0060 	swc1	$f14,96(sp)
    7584:	460a3481 	sub.s	$f18,$f6,$f10
    7588:	46108202 	mul.s	$f8,$f16,$f16
    758c:	e7b00064 	swc1	$f16,100(sp)
    7590:	46129282 	mul.s	$f10,$f18,$f18
    7594:	e7b20068 	swc1	$f18,104(sp)
    7598:	46082180 	add.s	$f6,$f4,$f8
    759c:	0c000000 	jal	0 <func_800FF5E0_ovl2>
    75a0:	460a3300 	add.s	$f12,$f6,$f10
    75a4:	c7a2006c 	lwc1	$f2,108(sp)
    75a8:	c7ae0060 	lwc1	$f14,96(sp)
    75ac:	c7b00064 	lwc1	$f16,100(sp)
    75b0:	46001083 	div.s	$f2,$f2,$f0
    75b4:	c7a80080 	lwc1	$f8,128(sp)
    75b8:	c7b20068 	lwc1	$f18,104(sp)
    75bc:	8fa4009c 	lw	a0,156(sp)
    75c0:	27a50074 	addiu	a1,sp,116
    75c4:	27a60048 	addiu	a2,sp,72
    75c8:	27a70054 	addiu	a3,sp,84
    75cc:	46027102 	mul.s	$f4,$f14,$f2
    75d0:	e7a2006c 	swc1	$f2,108(sp)
    75d4:	46028282 	mul.s	$f10,$f16,$f2
    75d8:	46082180 	add.s	$f6,$f4,$f8
    75dc:	46029202 	mul.s	$f8,$f18,$f2
    75e0:	c7a40084 	lwc1	$f4,132(sp)
    75e4:	e7a60074 	swc1	$f6,116(sp)
    75e8:	46045300 	add.s	$f12,$f10,$f4
    75ec:	c7aa0088 	lwc1	$f10,136(sp)
    75f0:	460a4100 	add.s	$f4,$f8,$f10
    75f4:	c628001c 	lwc1	$f8,28(s1)
    75f8:	e7ac004c 	swc1	$f12,76(sp)
    75fc:	e7ac0078 	swc1	$f12,120(sp)
    7600:	46083280 	add.s	$f10,$f6,$f8
    7604:	c6260020 	lwc1	$f6,32(s1)
    7608:	e7a4007c 	swc1	$f4,124(sp)
    760c:	46062200 	add.s	$f8,$f4,$f6
    7610:	e7aa0048 	swc1	$f10,72(sp)
    7614:	0c000000 	jal	0 <func_800FF5E0_ovl2>
    7618:	e7a80050 	swc1	$f8,80(sp)
    761c:	50400014 	beqzl	v0,7670 <func_80106930+0x2d0>
    7620:	8fa8009c 	lw	t0,156(sp)
    7624:	c7a00054 	lwc1	$f0,84(sp)
    7628:	c7a40074 	lwc1	$f4,116(sp)
    762c:	c628001c 	lwc1	$f8,28(s1)
    7630:	c7a2005c 	lwc1	$f2,92(sp)
    7634:	46002181 	sub.s	$f6,$f4,$f0
    7638:	44805000 	mtc1	zero,$f10
    763c:	46083102 	mul.s	$f4,$f6,$f8
    7640:	c7a6007c 	lwc1	$f6,124(sp)
    7644:	46023201 	sub.s	$f8,$f6,$f2
    7648:	c6260020 	lwc1	$f6,32(s1)
    764c:	46064202 	mul.s	$f8,$f8,$f6
    7650:	46082180 	add.s	$f6,$f4,$f8
    7654:	4606503c 	c.lt.s	$f10,$f6
    7658:	00000000 	nop
    765c:	45020004 	bc1fl	7670 <func_80106930+0x2d0>
    7660:	8fa8009c 	lw	t0,156(sp)
    7664:	e7a00074 	swc1	$f0,116(sp)
    7668:	e7a2007c 	swc1	$f2,124(sp)
    766c:	8fa8009c 	lw	t0,156(sp)
    7670:	ae080030 	sw	t0,48(s0)
    7674:	8fb90098 	lw	t9,152(sp)
    7678:	ae19002c 	sw	t9,44(s0)
    767c:	8fa90070 	lw	t1,112(sp)
    7680:	ae090028 	sw	t1,40(s0)
    7684:	c628002c 	lwc1	$f8,44(s1)
    7688:	c7a40074 	lwc1	$f4,116(sp)
    768c:	46082281 	sub.s	$f10,$f4,$f8
    7690:	c6440010 	lwc1	$f4,16(s2)
    7694:	e64a0004 	swc1	$f10,4(s2)
    7698:	c7a60078 	lwc1	$f6,120(sp)
    769c:	46043201 	sub.s	$f8,$f6,$f4
    76a0:	e6480008 	swc1	$f8,8(s2)
    76a4:	c6260030 	lwc1	$f6,48(s1)
    76a8:	c7aa007c 	lwc1	$f10,124(sp)
    76ac:	46065101 	sub.s	$f4,$f10,$f6
    76b0:	e644000c 	swc1	$f4,12(s2)
    76b4:	8fbf003c 	lw	ra,60(sp)
    76b8:	8fb00030 	lw	s0,48(sp)
    76bc:	8fb10034 	lw	s1,52(sp)
    76c0:	8fb20038 	lw	s2,56(sp)
    76c4:	03e00008 	jr	ra
    76c8:	27bd00a0 	addiu	sp,sp,160

000076cc <func_80106C5C>:
func_80106C5C():
    76cc:	27bdff70 	addiu	sp,sp,-144
    76d0:	44800000 	mtc1	zero,$f0
    76d4:	3c013f80 	lui	at,0x3f80
    76d8:	44812000 	mtc1	at,$f4
    76dc:	afbf002c 	sw	ra,44(sp)
    76e0:	afb10028 	sw	s1,40(sp)
    76e4:	afb00024 	sw	s0,36(sp)
    76e8:	e7a00068 	swc1	$f0,104(sp)
    76ec:	e7a00070 	swc1	$f0,112(sp)
    76f0:	e7a4006c 	swc1	$f4,108(sp)
    76f4:	c4860028 	lwc1	$f6,40(a0)
    76f8:	00a08825 	move	s1,a1
    76fc:	3c0e0000 	lui	t6,0x0
    7700:	e7a60080 	swc1	$f6,128(sp)
    7704:	c4880044 	lwc1	$f8,68(a0)
    7708:	00808025 	move	s0,a0
    770c:	25ce0000 	addiu	t6,t6,0
    7710:	e7a80084 	swc1	$f8,132(sp)
    7714:	c48a0030 	lwc1	$f10,48(a0)
    7718:	262f0018 	addiu	t7,s1,24
    771c:	26380014 	addiu	t8,s1,20
    7720:	e7aa0088 	swc1	$f10,136(sp)
    7724:	c4900004 	lwc1	$f16,4(a0)
    7728:	26390010 	addiu	t9,s1,16
    772c:	27a50074 	addiu	a1,sp,116
    7730:	e7b00074 	swc1	$f16,116(sp)
    7734:	c4840014 	lwc1	$f4,20(a0)
    7738:	c4920008 	lwc1	$f18,8(a0)
    773c:	27a60068 	addiu	a2,sp,104
    7740:	00003825 	move	a3,zero
    7744:	46049180 	add.s	$f6,$f18,$f4
    7748:	e7a60078 	swc1	$f6,120(sp)
    774c:	c488000c 	lwc1	$f8,12(a0)
    7750:	afa0004c 	sw	zero,76(sp)
    7754:	afb9001c 	sw	t9,28(sp)
    7758:	afb80018 	sw	t8,24(sp)
    775c:	afaf0014 	sw	t7,20(sp)
    7760:	afae0010 	sw	t6,16(sp)
    7764:	27a40080 	addiu	a0,sp,128
    7768:	0c000000 	jal	0 <func_800FF5E0_ovl2>
    776c:	e7a8007c 	swc1	$f8,124(sp)
    7770:	10400007 	beqz	v0,7790 <func_80106C5C+0xc4>
    7774:	8fa9004c 	lw	t1,76(sp)
    7778:	3c030000 	lui	v1,0x0
    777c:	24630000 	addiu	v1,v1,0
    7780:	c46a0038 	lwc1	$f10,56(v1)
    7784:	24090040 	li	t1,64
    7788:	10000003 	b	7798 <func_80106C5C+0xcc>
    778c:	e7aa0044 	swc1	$f10,68(sp)
    7790:	3c030000 	lui	v1,0x0
    7794:	24630000 	addiu	v1,v1,0
    7798:	c6100034 	lwc1	$f16,52(s0)
    779c:	c4660004 	lwc1	$f6,4(v1)
    77a0:	27aa005c 	addiu	t2,sp,92
    77a4:	e7b00080 	swc1	$f16,128(sp)
    77a8:	c6120038 	lwc1	$f18,56(s0)
    77ac:	c4700008 	lwc1	$f16,8(v1)
    77b0:	27ab0058 	addiu	t3,sp,88
    77b4:	e7b20088 	swc1	$f18,136(sp)
    77b8:	c6040004 	lwc1	$f4,4(s0)
    77bc:	27ac0054 	addiu	t4,sp,84
    77c0:	27ad0050 	addiu	t5,sp,80
    77c4:	46062200 	add.s	$f8,$f4,$f6
    77c8:	27a40080 	addiu	a0,sp,128
    77cc:	27a50074 	addiu	a1,sp,116
    77d0:	27a60068 	addiu	a2,sp,104
    77d4:	e7a80074 	swc1	$f8,116(sp)
    77d8:	c60a000c 	lwc1	$f10,12(s0)
    77dc:	afa9004c 	sw	t1,76(sp)
    77e0:	afad001c 	sw	t5,28(sp)
    77e4:	46105480 	add.s	$f18,$f10,$f16
    77e8:	afac0018 	sw	t4,24(sp)
    77ec:	afab0014 	sw	t3,20(sp)
    77f0:	afaa0010 	sw	t2,16(sp)
    77f4:	e7b2007c 	swc1	$f18,124(sp)
    77f8:	0c000000 	jal	0 <func_800FF5E0_ovl2>
    77fc:	00003825 	move	a3,zero
    7800:	3c030000 	lui	v1,0x0
    7804:	24630000 	addiu	v1,v1,0
    7808:	10400050 	beqz	v0,794c <func_80106C5C+0x280>
    780c:	8fa9004c 	lw	t1,76(sp)
    7810:	15200015 	bnez	t1,7868 <func_80106C5C+0x19c>
    7814:	00004025 	move	t0,zero
    7818:	c7a4005c 	lwc1	$f4,92(sp)
    781c:	c4660004 	lwc1	$f6,4(v1)
    7820:	8fae0058 	lw	t6,88(sp)
    7824:	c7b20064 	lwc1	$f18,100(sp)
    7828:	46062201 	sub.s	$f8,$f4,$f6
    782c:	c4640008 	lwc1	$f4,8(v1)
    7830:	c5ca0000 	lwc1	$f10,0(t6)
    7834:	24080001 	li	t0,1
    7838:	46049181 	sub.s	$f6,$f18,$f4
    783c:	46085402 	mul.s	$f16,$f10,$f8
    7840:	c5ca0008 	lwc1	$f10,8(t6)
    7844:	c5c4000c 	lwc1	$f4,12(t6)
    7848:	46065202 	mul.s	$f8,$f10,$f6
    784c:	46088480 	add.s	$f18,$f16,$f8
    7850:	c5d00004 	lwc1	$f16,4(t6)
    7854:	46049280 	add.s	$f10,$f18,$f4
    7858:	46005187 	neg.s	$f6,$f10
    785c:	46103203 	div.s	$f8,$f6,$f16
    7860:	10000027 	b	7900 <func_80106C5C+0x234>
    7864:	e7a8003c 	swc1	$f8,60(sp)
    7868:	8e260018 	lw	a2,24(s1)
    786c:	8faf0058 	lw	t7,88(sp)
    7870:	c7b2005c 	lwc1	$f18,92(sp)
    7874:	11e60022 	beq	t7,a2,7900 <func_80106C5C+0x234>
    7878:	00000000 	nop
    787c:	c4640004 	lwc1	$f4,4(v1)
    7880:	c5e60000 	lwc1	$f6,0(t7)
    7884:	c7a80064 	lwc1	$f8,100(sp)
    7888:	46049281 	sub.s	$f10,$f18,$f4
    788c:	c4720008 	lwc1	$f18,8(v1)
    7890:	3c040000 	lui	a0,0x0
    7894:	24840000 	addiu	a0,a0,0
    7898:	460a3402 	mul.s	$f16,$f6,$f10
    789c:	46124101 	sub.s	$f4,$f8,$f18
    78a0:	c5e60008 	lwc1	$f6,8(t7)
    78a4:	c5f2000c 	lwc1	$f18,12(t7)
    78a8:	27a5005c 	addiu	a1,sp,92
    78ac:	46043282 	mul.s	$f10,$f6,$f4
    78b0:	3c07bf80 	lui	a3,0xbf80
    78b4:	460a8200 	add.s	$f8,$f16,$f10
    78b8:	c5f00004 	lwc1	$f16,4(t7)
    78bc:	46124180 	add.s	$f6,$f8,$f18
    78c0:	c7a80044 	lwc1	$f8,68(sp)
    78c4:	46003107 	neg.s	$f4,$f6
    78c8:	46102283 	div.s	$f10,$f4,$f16
    78cc:	4608503c 	c.lt.s	$f10,$f8
    78d0:	e7aa003c 	swc1	$f10,60(sp)
    78d4:	4500000a 	bc1f	7900 <func_80106C5C+0x234>
    78d8:	00000000 	nop
    78dc:	afa80040 	sw	t0,64(sp)
    78e0:	0c000000 	jal	0 <func_800FF5E0_ovl2>
    78e4:	afa9004c 	sw	t1,76(sp)
    78e8:	3c030000 	lui	v1,0x0
    78ec:	24630000 	addiu	v1,v1,0
    78f0:	8fa80040 	lw	t0,64(sp)
    78f4:	10400002 	beqz	v0,7900 <func_80106C5C+0x234>
    78f8:	8fa9004c 	lw	t1,76(sp)
    78fc:	24080001 	li	t0,1
    7900:	11000012 	beqz	t0,794c <func_80106C5C+0x280>
    7904:	3c180000 	lui	t8,0x0
    7908:	27b9005c 	addiu	t9,sp,92
    790c:	8f2b0000 	lw	t3,0(t9)
    7910:	27180000 	addiu	t8,t8,0
    7914:	8f2a0004 	lw	t2,4(t9)
    7918:	af0b0000 	sw	t3,0(t8)
    791c:	8f2b0008 	lw	t3,8(t9)
    7920:	af0a0004 	sw	t2,4(t8)
    7924:	24090100 	li	t1,256
    7928:	af0b0008 	sw	t3,8(t8)
    792c:	8fac0058 	lw	t4,88(sp)
    7930:	ae2c0018 	sw	t4,24(s1)
    7934:	8fad0054 	lw	t5,84(sp)
    7938:	ae2d0014 	sw	t5,20(s1)
    793c:	8fae0050 	lw	t6,80(sp)
    7940:	ae2e0010 	sw	t6,16(s1)
    7944:	c7b2003c 	lwc1	$f18,60(sp)
    7948:	e7b20044 	swc1	$f18,68(sp)
    794c:	c606003c 	lwc1	$f6,60(s0)
    7950:	c46a000c 	lwc1	$f10,12(v1)
    7954:	27af005c 	addiu	t7,sp,92
    7958:	e7a60080 	swc1	$f6,128(sp)
    795c:	c6040040 	lwc1	$f4,64(s0)
    7960:	c4660010 	lwc1	$f6,16(v1)
    7964:	27b80058 	addiu	t8,sp,88
    7968:	e7a40088 	swc1	$f4,136(sp)
    796c:	c6100004 	lwc1	$f16,4(s0)
    7970:	27b90054 	addiu	t9,sp,84
    7974:	27aa0050 	addiu	t2,sp,80
    7978:	460a8200 	add.s	$f8,$f16,$f10
    797c:	27a40080 	addiu	a0,sp,128
    7980:	27a50074 	addiu	a1,sp,116
    7984:	27a60068 	addiu	a2,sp,104
    7988:	e7a80074 	swc1	$f8,116(sp)
    798c:	c612000c 	lwc1	$f18,12(s0)
    7990:	afa9004c 	sw	t1,76(sp)
    7994:	afaa001c 	sw	t2,28(sp)
    7998:	46069100 	add.s	$f4,$f18,$f6
    799c:	afb90018 	sw	t9,24(sp)
    79a0:	afb80014 	sw	t8,20(sp)
    79a4:	afaf0010 	sw	t7,16(sp)
    79a8:	e7a4007c 	swc1	$f4,124(sp)
    79ac:	0c000000 	jal	0 <func_800FF5E0_ovl2>
    79b0:	00003825 	move	a3,zero
    79b4:	3c030000 	lui	v1,0x0
    79b8:	24630000 	addiu	v1,v1,0
    79bc:	10400038 	beqz	v0,7aa0 <func_80106C5C+0x3d4>
    79c0:	8fa9004c 	lw	t1,76(sp)
    79c4:	15200003 	bnez	t1,79d4 <func_80106C5C+0x308>
    79c8:	00008025 	move	s0,zero
    79cc:	10000023 	b	7a5c <func_80106C5C+0x390>
    79d0:	24100001 	li	s0,1
    79d4:	8e260018 	lw	a2,24(s1)
    79d8:	8fab0058 	lw	t3,88(sp)
    79dc:	c7b0005c 	lwc1	$f16,92(sp)
    79e0:	1166001e 	beq	t3,a2,7a5c <func_80106C5C+0x390>
    79e4:	00000000 	nop
    79e8:	c46a000c 	lwc1	$f10,12(v1)
    79ec:	c5720000 	lwc1	$f18,0(t3)
    79f0:	c7a40064 	lwc1	$f4,100(sp)
    79f4:	460a8201 	sub.s	$f8,$f16,$f10
    79f8:	c4700010 	lwc1	$f16,16(v1)
    79fc:	3c040000 	lui	a0,0x0
    7a00:	24840000 	addiu	a0,a0,0
    7a04:	46089182 	mul.s	$f6,$f18,$f8
    7a08:	46102281 	sub.s	$f10,$f4,$f16
    7a0c:	c5720008 	lwc1	$f18,8(t3)
    7a10:	c570000c 	lwc1	$f16,12(t3)
    7a14:	27a5005c 	addiu	a1,sp,92
    7a18:	460a9202 	mul.s	$f8,$f18,$f10
    7a1c:	3c07bf80 	lui	a3,0xbf80
    7a20:	46083100 	add.s	$f4,$f6,$f8
    7a24:	c5660004 	lwc1	$f6,4(t3)
    7a28:	c7a80044 	lwc1	$f8,68(sp)
    7a2c:	46102480 	add.s	$f18,$f4,$f16
    7a30:	46009287 	neg.s	$f10,$f18
    7a34:	46065003 	div.s	$f0,$f10,$f6
    7a38:	4608003c 	c.lt.s	$f0,$f8
    7a3c:	00000000 	nop
    7a40:	45000006 	bc1f	7a5c <func_80106C5C+0x390>
    7a44:	00000000 	nop
    7a48:	0c000000 	jal	0 <func_800FF5E0_ovl2>
    7a4c:	afa9004c 	sw	t1,76(sp)
    7a50:	10400002 	beqz	v0,7a5c <func_80106C5C+0x390>
    7a54:	8fa9004c 	lw	t1,76(sp)
    7a58:	24100001 	li	s0,1
    7a5c:	12000010 	beqz	s0,7aa0 <func_80106C5C+0x3d4>
    7a60:	3c0c0000 	lui	t4,0x0
    7a64:	27ad005c 	addiu	t5,sp,92
    7a68:	8daf0000 	lw	t7,0(t5)
    7a6c:	258c0000 	addiu	t4,t4,0
    7a70:	8dae0004 	lw	t6,4(t5)
    7a74:	ad8f0000 	sw	t7,0(t4)
    7a78:	8daf0008 	lw	t7,8(t5)
    7a7c:	ad8e0004 	sw	t6,4(t4)
    7a80:	24090080 	li	t1,128
    7a84:	ad8f0008 	sw	t7,8(t4)
    7a88:	8fb80058 	lw	t8,88(sp)
    7a8c:	ae380018 	sw	t8,24(s1)
    7a90:	8fb90054 	lw	t9,84(sp)
    7a94:	ae390014 	sw	t9,20(s1)
    7a98:	8faa0050 	lw	t2,80(sp)
    7a9c:	ae2a0010 	sw	t2,16(s1)
    7aa0:	1120000b 	beqz	t1,7ad0 <func_80106C5C+0x404>
    7aa4:	00001025 	move	v0,zero
    7aa8:	8e2b0000 	lw	t3,0(s1)
    7aac:	96380000 	lhu	t8,0(s1)
    7ab0:	24020001 	li	v0,1
    7ab4:	000b64c2 	srl	t4,t3,0x13
    7ab8:	01896825 	or	t5,t4,t1
    7abc:	000d78c0 	sll	t7,t5,0x3
    7ac0:	33190007 	andi	t9,t8,0x7
    7ac4:	01f95025 	or	t2,t7,t9
    7ac8:	10000001 	b	7ad0 <func_80106C5C+0x404>
    7acc:	a62a0000 	sh	t2,0(s1)
    7ad0:	8fbf002c 	lw	ra,44(sp)
    7ad4:	8fb00024 	lw	s0,36(sp)
    7ad8:	8fb10028 	lw	s1,40(sp)
    7adc:	03e00008 	jr	ra
    7ae0:	27bd0090 	addiu	sp,sp,144

00007ae4 <func_80107074>:
func_80107074():
    7ae4:	27bdff80 	addiu	sp,sp,-128
    7ae8:	afbf002c 	sw	ra,44(sp)
    7aec:	afb10028 	sw	s1,40(sp)
    7af0:	afb00024 	sw	s0,36(sp)
    7af4:	8cae0000 	lw	t6,0(a1)
    7af8:	00808025 	move	s0,a0
    7afc:	00a08825 	move	s1,a1
    7b00:	000e7cc2 	srl	t7,t6,0x13
    7b04:	31f801c0 	andi	t8,t7,0x1c0
    7b08:	1700008b 	bnez	t8,7d38 <func_80107074+0x254>
    7b0c:	3c080000 	lui	t0,0x0
    7b10:	44800000 	mtc1	zero,$f0
    7b14:	3c013f80 	lui	at,0x3f80
    7b18:	44812000 	mtc1	at,$f4
    7b1c:	25080000 	addiu	t0,t0,0
    7b20:	e7a00058 	swc1	$f0,88(sp)
    7b24:	e7a00060 	swc1	$f0,96(sp)
    7b28:	e7a4005c 	swc1	$f4,92(sp)
    7b2c:	c4860004 	lwc1	$f6,4(a0)
    7b30:	c5080004 	lwc1	$f8,4(t0)
    7b34:	3c190000 	lui	t9,0x0
    7b38:	27390000 	addiu	t9,t9,0
    7b3c:	46083280 	add.s	$f10,$f6,$f8
    7b40:	c5080008 	lwc1	$f8,8(t0)
    7b44:	27a90048 	addiu	t1,sp,72
    7b48:	262a0014 	addiu	t2,s1,20
    7b4c:	e7aa0070 	swc1	$f10,112(sp)
    7b50:	c4900008 	lwc1	$f16,8(a0)
    7b54:	c4920018 	lwc1	$f18,24(a0)
    7b58:	262b0010 	addiu	t3,s1,16
    7b5c:	27a50064 	addiu	a1,sp,100
    7b60:	46128100 	add.s	$f4,$f16,$f18
    7b64:	c7b00070 	lwc1	$f16,112(sp)
    7b68:	27a60058 	addiu	a2,sp,88
    7b6c:	00003825 	move	a3,zero
    7b70:	e7a40074 	swc1	$f4,116(sp)
    7b74:	c486000c 	lwc1	$f6,12(a0)
    7b78:	e7b00064 	swc1	$f16,100(sp)
    7b7c:	46083280 	add.s	$f10,$f6,$f8
    7b80:	e7aa0078 	swc1	$f10,120(sp)
    7b84:	c4840014 	lwc1	$f4,20(a0)
    7b88:	c4920008 	lwc1	$f18,8(a0)
    7b8c:	c7a80078 	lwc1	$f8,120(sp)
    7b90:	afa0003c 	sw	zero,60(sp)
    7b94:	46049180 	add.s	$f6,$f18,$f4
    7b98:	afab001c 	sw	t3,28(sp)
    7b9c:	afaa0018 	sw	t2,24(sp)
    7ba0:	afa90014 	sw	t1,20(sp)
    7ba4:	e7a60068 	swc1	$f6,104(sp)
    7ba8:	afb90010 	sw	t9,16(sp)
    7bac:	27a40070 	addiu	a0,sp,112
    7bb0:	0c000000 	jal	0 <func_800FF5E0_ovl2>
    7bb4:	e7a8006c 	swc1	$f8,108(sp)
    7bb8:	3c080000 	lui	t0,0x0
    7bbc:	25080000 	addiu	t0,t0,0
    7bc0:	10400012 	beqz	v0,7c0c <func_80107074+0x128>
    7bc4:	8fa3003c 	lw	v1,60(sp)
    7bc8:	8fac0048 	lw	t4,72(sp)
    7bcc:	24030100 	li	v1,256
    7bd0:	ae2c0018 	sw	t4,24(s1)
    7bd4:	8fad0048 	lw	t5,72(sp)
    7bd8:	c6100028 	lwc1	$f16,40(s0)
    7bdc:	c6060030 	lwc1	$f6,48(s0)
    7be0:	c5aa0000 	lwc1	$f10,0(t5)
    7be4:	c5a40008 	lwc1	$f4,8(t5)
    7be8:	46105482 	mul.s	$f18,$f10,$f16
    7bec:	c5b0000c 	lwc1	$f16,12(t5)
    7bf0:	46062202 	mul.s	$f8,$f4,$f6
    7bf4:	46089280 	add.s	$f10,$f18,$f8
    7bf8:	c5b20004 	lwc1	$f18,4(t5)
    7bfc:	46105100 	add.s	$f4,$f10,$f16
    7c00:	46002187 	neg.s	$f6,$f4
    7c04:	46123203 	div.s	$f8,$f6,$f18
    7c08:	e7a80038 	swc1	$f8,56(sp)
    7c0c:	c60a0004 	lwc1	$f10,4(s0)
    7c10:	c510000c 	lwc1	$f16,12(t0)
    7c14:	c5120010 	lwc1	$f18,16(t0)
    7c18:	27ae004c 	addiu	t6,sp,76
    7c1c:	46105100 	add.s	$f4,$f10,$f16
    7c20:	27af0048 	addiu	t7,sp,72
    7c24:	27b80044 	addiu	t8,sp,68
    7c28:	27b90040 	addiu	t9,sp,64
    7c2c:	e7a40070 	swc1	$f4,112(sp)
    7c30:	c606000c 	lwc1	$f6,12(s0)
    7c34:	c7aa0070 	lwc1	$f10,112(sp)
    7c38:	afa3003c 	sw	v1,60(sp)
    7c3c:	46123200 	add.s	$f8,$f6,$f18
    7c40:	afb9001c 	sw	t9,28(sp)
    7c44:	afb80018 	sw	t8,24(sp)
    7c48:	afaf0014 	sw	t7,20(sp)
    7c4c:	e7a80078 	swc1	$f8,120(sp)
    7c50:	c7b00078 	lwc1	$f16,120(sp)
    7c54:	afae0010 	sw	t6,16(sp)
    7c58:	27a40070 	addiu	a0,sp,112
    7c5c:	27a50064 	addiu	a1,sp,100
    7c60:	27a60058 	addiu	a2,sp,88
    7c64:	00003825 	move	a3,zero
    7c68:	e7aa0064 	swc1	$f10,100(sp)
    7c6c:	0c000000 	jal	0 <func_800FF5E0_ovl2>
    7c70:	e7b0006c 	swc1	$f16,108(sp)
    7c74:	10400024 	beqz	v0,7d08 <func_80107074+0x224>
    7c78:	8fa3003c 	lw	v1,60(sp)
    7c7c:	8fa90048 	lw	t1,72(sp)
    7c80:	c6060028 	lwc1	$f6,40(s0)
    7c84:	c60a0030 	lwc1	$f10,48(s0)
    7c88:	c5240000 	lwc1	$f4,0(t1)
    7c8c:	c5280008 	lwc1	$f8,8(t1)
    7c90:	3c0a0000 	lui	t2,0x0
    7c94:	46062482 	mul.s	$f18,$f4,$f6
    7c98:	c526000c 	lwc1	$f6,12(t1)
    7c9c:	27ab004c 	addiu	t3,sp,76
    7ca0:	460a4402 	mul.s	$f16,$f8,$f10
    7ca4:	46109100 	add.s	$f4,$f18,$f16
    7ca8:	c5320004 	lwc1	$f18,4(t1)
    7cac:	c7b00038 	lwc1	$f16,56(sp)
    7cb0:	46062200 	add.s	$f8,$f4,$f6
    7cb4:	46004287 	neg.s	$f10,$f8
    7cb8:	10600005 	beqz	v1,7cd0 <func_80107074+0x1ec>
    7cbc:	46125003 	div.s	$f0,$f10,$f18
    7cc0:	4610003c 	c.lt.s	$f0,$f16
    7cc4:	00000000 	nop
    7cc8:	4500000f 	bc1f	7d08 <func_80107074+0x224>
    7ccc:	00000000 	nop
    7cd0:	8d6d0000 	lw	t5,0(t3)
    7cd4:	254a0000 	addiu	t2,t2,0
    7cd8:	8d6c0004 	lw	t4,4(t3)
    7cdc:	ad4d0000 	sw	t5,0(t2)
    7ce0:	8d6d0008 	lw	t5,8(t3)
    7ce4:	ad4c0004 	sw	t4,4(t2)
    7ce8:	24030080 	li	v1,128
    7cec:	ad4d0008 	sw	t5,8(t2)
    7cf0:	8fae0048 	lw	t6,72(sp)
    7cf4:	ae2e0018 	sw	t6,24(s1)
    7cf8:	8faf0044 	lw	t7,68(sp)
    7cfc:	ae2f0014 	sw	t7,20(s1)
    7d00:	8fb80040 	lw	t8,64(sp)
    7d04:	ae380010 	sw	t8,16(s1)
    7d08:	5060000c 	beqzl	v1,7d3c <func_80107074+0x258>
    7d0c:	00001025 	move	v0,zero
    7d10:	8e390000 	lw	t9,0(s1)
    7d14:	962d0000 	lhu	t5,0(s1)
    7d18:	24020001 	li	v0,1
    7d1c:	00194cc2 	srl	t1,t9,0x13
    7d20:	01235025 	or	t2,t1,v1
    7d24:	000a60c0 	sll	t4,t2,0x3
    7d28:	31ae0007 	andi	t6,t5,0x7
    7d2c:	018e7825 	or	t7,t4,t6
    7d30:	10000002 	b	7d3c <func_80107074+0x258>
    7d34:	a62f0000 	sh	t7,0(s1)
    7d38:	00001025 	move	v0,zero
    7d3c:	8fbf002c 	lw	ra,44(sp)
    7d40:	8fb00024 	lw	s0,36(sp)
    7d44:	8fb10028 	lw	s1,40(sp)
    7d48:	03e00008 	jr	ra
    7d4c:	27bd0080 	addiu	sp,sp,128

00007d50 <func_801072E0>:
func_801072E0():
    7d50:	27bdffa0 	addiu	sp,sp,-96
    7d54:	afbf002c 	sw	ra,44(sp)
    7d58:	afb10028 	sw	s1,40(sp)
    7d5c:	afb00024 	sw	s0,36(sp)
    7d60:	c4840028 	lwc1	$f4,40(a0)
    7d64:	00a08825 	move	s1,a1
    7d68:	44800000 	mtc1	zero,$f0
    7d6c:	e7a4004c 	swc1	$f4,76(sp)
    7d70:	c4860044 	lwc1	$f6,68(a0)
    7d74:	3c013f80 	lui	at,0x3f80
    7d78:	3c0e0000 	lui	t6,0x0
    7d7c:	e7a60050 	swc1	$f6,80(sp)
    7d80:	c4880030 	lwc1	$f8,48(a0)
    7d84:	25ce0000 	addiu	t6,t6,0
    7d88:	262f0018 	addiu	t7,s1,24
    7d8c:	e7a80054 	swc1	$f8,84(sp)
    7d90:	c48a0004 	lwc1	$f10,4(a0)
    7d94:	44814000 	mtc1	at,$f8
    7d98:	26380014 	addiu	t8,s1,20
    7d9c:	e7aa0040 	swc1	$f10,64(sp)
    7da0:	c4920014 	lwc1	$f18,20(a0)
    7da4:	c4900008 	lwc1	$f16,8(a0)
    7da8:	26390010 	addiu	t9,s1,16
    7dac:	27a50040 	addiu	a1,sp,64
    7db0:	46128100 	add.s	$f4,$f16,$f18
    7db4:	27a60034 	addiu	a2,sp,52
    7db8:	27a70058 	addiu	a3,sp,88
    7dbc:	e7a40044 	swc1	$f4,68(sp)
    7dc0:	c486000c 	lwc1	$f6,12(a0)
    7dc4:	afb9001c 	sw	t9,28(sp)
    7dc8:	afb80018 	sw	t8,24(sp)
    7dcc:	afaf0014 	sw	t7,20(sp)
    7dd0:	afae0010 	sw	t6,16(sp)
    7dd4:	27a4004c 	addiu	a0,sp,76
    7dd8:	e7a00034 	swc1	$f0,52(sp)
    7ddc:	e7a0003c 	swc1	$f0,60(sp)
    7de0:	e7a80038 	swc1	$f8,56(sp)
    7de4:	0c000000 	jal	0 <func_800FF5E0_ovl2>
    7de8:	e7a60048 	swc1	$f6,72(sp)
    7dec:	5040000c 	beqzl	v0,7e20 <func_801072E0+0xd0>
    7df0:	00001025 	move	v0,zero
    7df4:	8e280000 	lw	t0,0(s1)
    7df8:	962d0000 	lhu	t5,0(s1)
    7dfc:	24020001 	li	v0,1
    7e00:	00084cc2 	srl	t1,t0,0x13
    7e04:	352a0040 	ori	t2,t1,0x40
    7e08:	000a60c0 	sll	t4,t2,0x3
    7e0c:	31ae0007 	andi	t6,t5,0x7
    7e10:	018e7825 	or	t7,t4,t6
    7e14:	10000002 	b	7e20 <func_801072E0+0xd0>
    7e18:	a62f0000 	sh	t7,0(s1)
    7e1c:	00001025 	move	v0,zero
    7e20:	8fbf002c 	lw	ra,44(sp)
    7e24:	8fb00024 	lw	s0,36(sp)
    7e28:	8fb10028 	lw	s1,40(sp)
    7e2c:	03e00008 	jr	ra
    7e30:	27bd0060 	addiu	sp,sp,96

00007e34 <func_801073C4>:
func_801073C4():
    7e34:	27bdff48 	addiu	sp,sp,-184
    7e38:	afbf0034 	sw	ra,52(sp)
    7e3c:	afb10030 	sw	s1,48(sp)
    7e40:	afb0002c 	sw	s0,44(sp)
    7e44:	8cac0018 	lw	t4,24(a1)
    7e48:	27ae00a4 	addiu	t6,sp,164
    7e4c:	27af0080 	addiu	t7,sp,128
    7e50:	afac00b4 	sw	t4,180(sp)
    7e54:	8cab0014 	lw	t3,20(a1)
    7e58:	00808825 	move	s1,a0
    7e5c:	00a08025 	move	s0,a1
    7e60:	afab00b0 	sw	t3,176(sp)
    7e64:	8cad0010 	lw	t5,16(a1)
    7e68:	27ab0098 	addiu	t3,sp,152
    7e6c:	3c07bf80 	lui	a3,0xbf80
    7e70:	afad007c 	sw	t5,124(sp)
    7e74:	c4880004 	lwc1	$f8,4(a0)
    7e78:	27ad0078 	addiu	t5,sp,120
    7e7c:	e7a800a4 	swc1	$f8,164(sp)
    7e80:	c48a0014 	lwc1	$f10,20(a0)
    7e84:	c4860008 	lwc1	$f6,8(a0)
    7e88:	460a3480 	add.s	$f18,$f6,$f10
    7e8c:	e7b200a8 	swc1	$f18,168(sp)
    7e90:	c484000c 	lwc1	$f4,12(a0)
    7e94:	3c040000 	lui	a0,0x0
    7e98:	24840000 	addiu	a0,a0,0
    7e9c:	e7a400ac 	swc1	$f4,172(sp)
    7ea0:	8dd90000 	lw	t9,0(t6)
    7ea4:	adf90000 	sw	t9,0(t7)
    7ea8:	8dd80004 	lw	t8,4(t6)
    7eac:	adf80004 	sw	t8,4(t7)
    7eb0:	8dd90008 	lw	t9,8(t6)
    7eb4:	27ae00b0 	addiu	t6,sp,176
    7eb8:	27b8007c 	addiu	t8,sp,124
    7ebc:	adf90008 	sw	t9,8(t7)
    7ec0:	8ca90000 	lw	t1,0(a1)
    7ec4:	8fac00b4 	lw	t4,180(sp)
    7ec8:	27a50080 	addiu	a1,sp,128
    7ecc:	000944c2 	srl	t0,t1,0x13
    7ed0:	310a0040 	andi	t2,t0,0x40
    7ed4:	15400014 	bnez	t2,7f28 <func_801073C4+0xf4>
    7ed8:	27af00b4 	addiu	t7,sp,180
    7edc:	c5880000 	lwc1	$f8,0(t4)
    7ee0:	c7a600a4 	lwc1	$f6,164(sp)
    7ee4:	c5920008 	lwc1	$f18,8(t4)
    7ee8:	c7a400ac 	lwc1	$f4,172(sp)
    7eec:	46064282 	mul.s	$f10,$f8,$f6
    7ef0:	00000000 	nop
    7ef4:	46049202 	mul.s	$f8,$f18,$f4
    7ef8:	c592000c 	lwc1	$f18,12(t4)
    7efc:	46085180 	add.s	$f6,$f10,$f8
    7f00:	c5880004 	lwc1	$f8,4(t4)
    7f04:	46123100 	add.s	$f4,$f6,$f18
    7f08:	c7a600a8 	lwc1	$f6,168(sp)
    7f0c:	46002287 	neg.s	$f10,$f4
    7f10:	46085003 	div.s	$f0,$f10,$f8
    7f14:	4606003c 	c.lt.s	$f0,$f6
    7f18:	00000000 	nop
    7f1c:	45000002 	bc1f	7f28 <func_801073C4+0xf4>
    7f20:	00000000 	nop
    7f24:	e7a00084 	swc1	$f0,132(sp)
    7f28:	8e060018 	lw	a2,24(s0)
    7f2c:	afb80020 	sw	t8,32(sp)
    7f30:	afae001c 	sw	t6,28(sp)
    7f34:	afaf0018 	sw	t7,24(sp)
    7f38:	afad0014 	sw	t5,20(sp)
    7f3c:	0c000000 	jal	0 <func_800FF5E0_ovl2>
    7f40:	afab0010 	sw	t3,16(sp)
    7f44:	10400008 	beqz	v0,7f68 <func_801073C4+0x134>
    7f48:	27a30098 	addiu	v1,sp,152
    7f4c:	24010001 	li	at,1
    7f50:	10410025 	beq	v0,at,7fe8 <func_801073C4+0x1b4>
    7f54:	24010002 	li	at,2
    7f58:	10410034 	beq	v0,at,802c <func_801073C4+0x1f8>
    7f5c:	00000000 	nop
    7f60:	100000a3 	b	81f0 <func_801073C4+0x3bc>
    7f64:	8fb800b4 	lw	t8,180(sp)
    7f68:	c7b200a8 	lwc1	$f18,168(sp)
    7f6c:	c7a4009c 	lwc1	$f4,156(sp)
    7f70:	4604903c 	c.lt.s	$f18,$f4
    7f74:	00000000 	nop
    7f78:	4502000b 	bc1fl	7fa8 <func_801073C4+0x174>
    7f7c:	8c690000 	lw	t1,0(v1)
    7f80:	8e190000 	lw	t9,0(s0)
    7f84:	960d0000 	lhu	t5,0(s0)
    7f88:	00194cc2 	srl	t1,t9,0x13
    7f8c:	312afe3f 	andi	t2,t1,0xfe3f
    7f90:	000a58c0 	sll	t3,t2,0x3
    7f94:	31af0007 	andi	t7,t5,0x7
    7f98:	016f7025 	or	t6,t3,t7
    7f9c:	100000a4 	b	8230 <func_801073C4+0x3fc>
    7fa0:	a60e0000 	sh	t6,0(s0)
    7fa4:	8c690000 	lw	t1,0(v1)
    7fa8:	27b8008c 	addiu	t8,sp,140
    7fac:	af090000 	sw	t1,0(t8)
    7fb0:	8c790004 	lw	t9,4(v1)
    7fb4:	af190004 	sw	t9,4(t8)
    7fb8:	8c690008 	lw	t1,8(v1)
    7fbc:	af090008 	sw	t1,8(t8)
    7fc0:	8e080000 	lw	t0,0(s0)
    7fc4:	96180000 	lhu	t8,0(s0)
    7fc8:	000854c2 	srl	t2,t0,0x13
    7fcc:	314cfe3f 	andi	t4,t2,0xfe3f
    7fd0:	358b0040 	ori	t3,t4,0x40
    7fd4:	000b70c0 	sll	t6,t3,0x3
    7fd8:	33190007 	andi	t9,t8,0x7
    7fdc:	01d94825 	or	t1,t6,t9
    7fe0:	10000082 	b	81ec <func_801073C4+0x3b8>
    7fe4:	a6090000 	sh	t1,0(s0)
    7fe8:	8c6c0000 	lw	t4,0(v1)
    7fec:	27a8008c 	addiu	t0,sp,140
    7ff0:	ad0c0000 	sw	t4,0(t0)
    7ff4:	8c6a0004 	lw	t2,4(v1)
    7ff8:	ad0a0004 	sw	t2,4(t0)
    7ffc:	8c6c0008 	lw	t4,8(v1)
    8000:	ad0c0008 	sw	t4,8(t0)
    8004:	8e0d0000 	lw	t5,0(s0)
    8008:	96080000 	lhu	t0,0(s0)
    800c:	000d5cc2 	srl	t3,t5,0x13
    8010:	316ffe3f 	andi	t7,t3,0xfe3f
    8014:	35ee0040 	ori	t6,t7,0x40
    8018:	000e48c0 	sll	t1,t6,0x3
    801c:	310a0007 	andi	t2,t0,0x7
    8020:	012a6025 	or	t4,t1,t2
    8024:	10000071 	b	81ec <func_801073C4+0x3b8>
    8028:	a60c0000 	sh	t4,0(s0)
    802c:	3c020000 	lui	v0,0x0
    8030:	24420000 	addiu	v0,v0,0
    8034:	c4480034 	lwc1	$f8,52(v0)
    8038:	c7aa00a4 	lwc1	$f10,164(sp)
    803c:	c4520038 	lwc1	$f18,56(v0)
    8040:	c7a600a8 	lwc1	$f6,168(sp)
    8044:	46085081 	sub.s	$f2,$f10,$f8
    8048:	c44a003c 	lwc1	$f10,60(v0)
    804c:	c7a400ac 	lwc1	$f4,172(sp)
    8050:	46123381 	sub.s	$f14,$f6,$f18
    8054:	46021202 	mul.s	$f8,$f2,$f2
    8058:	e7a20068 	swc1	$f2,104(sp)
    805c:	460a2401 	sub.s	$f16,$f4,$f10
    8060:	460e7182 	mul.s	$f6,$f14,$f14
    8064:	e7ae006c 	swc1	$f14,108(sp)
    8068:	46108102 	mul.s	$f4,$f16,$f16
    806c:	e7b00070 	swc1	$f16,112(sp)
    8070:	46064480 	add.s	$f18,$f8,$f6
    8074:	0c000000 	jal	0 <func_800FF5E0_ovl2>
    8078:	46049300 	add.s	$f12,$f18,$f4
    807c:	c7aa0078 	lwc1	$f10,120(sp)
    8080:	c7a20068 	lwc1	$f2,104(sp)
    8084:	c7ae006c 	lwc1	$f14,108(sp)
    8088:	46005203 	div.s	$f8,$f10,$f0
    808c:	c7b20098 	lwc1	$f18,152(sp)
    8090:	c7b00070 	lwc1	$f16,112(sp)
    8094:	8fad00b4 	lw	t5,180(sp)
    8098:	e7b20038 	swc1	$f18,56(sp)
    809c:	8fab00b4 	lw	t3,180(sp)
    80a0:	8faf00b4 	lw	t7,180(sp)
    80a4:	3c020000 	lui	v0,0x0
    80a8:	24420000 	addiu	v0,v0,0
    80ac:	46081182 	mul.s	$f6,$f2,$f8
    80b0:	e7a80078 	swc1	$f8,120(sp)
    80b4:	46087282 	mul.s	$f10,$f14,$f8
    80b8:	46123100 	add.s	$f4,$f6,$f18
    80bc:	c7a6009c 	lwc1	$f6,156(sp)
    80c0:	46065280 	add.s	$f10,$f10,$f6
    80c4:	46088182 	mul.s	$f6,$f16,$f8
    80c8:	c7a800a0 	lwc1	$f8,160(sp)
    80cc:	e7a4008c 	swc1	$f4,140(sp)
    80d0:	e7aa0090 	swc1	$f10,144(sp)
    80d4:	46083180 	add.s	$f6,$f6,$f8
    80d8:	e7a60094 	swc1	$f6,148(sp)
    80dc:	c5b20000 	lwc1	$f18,0(t5)
    80e0:	e7aa003c 	swc1	$f10,60(sp)
    80e4:	c56a0008 	lwc1	$f10,8(t3)
    80e8:	46049482 	mul.s	$f18,$f18,$f4
    80ec:	00000000 	nop
    80f0:	46065282 	mul.s	$f10,$f10,$f6
    80f4:	460a9480 	add.s	$f18,$f18,$f10
    80f8:	c5ea000c 	lwc1	$f10,12(t7)
    80fc:	460a9480 	add.s	$f18,$f18,$f10
    8100:	46009287 	neg.s	$f10,$f18
    8104:	c5f20004 	lwc1	$f18,4(t7)
    8108:	46125303 	div.s	$f12,$f10,$f18
    810c:	c7aa003c 	lwc1	$f10,60(sp)
    8110:	460a603e 	c.le.s	$f12,$f10
    8114:	00000000 	nop
    8118:	4500002b 	bc1f	81c8 <func_801073C4+0x394>
    811c:	00000000 	nop
    8120:	c7b20038 	lwc1	$f18,56(sp)
    8124:	c44a0014 	lwc1	$f10,20(v0)
    8128:	46083081 	sub.s	$f2,$f6,$f8
    812c:	e7ac0090 	swc1	$f12,144(sp)
    8130:	24030100 	li	v1,256
    8134:	46122001 	sub.s	$f0,$f4,$f18
    8138:	c4520018 	lwc1	$f18,24(v0)
    813c:	460a0102 	mul.s	$f4,$f0,$f10
    8140:	44805000 	mtc1	zero,$f10
    8144:	46121182 	mul.s	$f6,$f2,$f18
    8148:	46062200 	add.s	$f8,$f4,$f6
    814c:	4608503e 	c.le.s	$f10,$f8
    8150:	46000202 	mul.s	$f8,$f0,$f0
    8154:	45020006 	bc1fl	8170 <func_801073C4+0x33c>
    8158:	c44c0024 	lwc1	$f12,36(v0)
    815c:	c44c002c 	lwc1	$f12,44(v0)
    8160:	c44e0030 	lwc1	$f14,48(v0)
    8164:	10000003 	b	8174 <func_801073C4+0x340>
    8168:	24030080 	li	v1,128
    816c:	c44c0024 	lwc1	$f12,36(v0)
    8170:	c44e0028 	lwc1	$f14,40(v0)
    8174:	460c6482 	mul.s	$f18,$f12,$f12
    8178:	00000000 	nop
    817c:	460e7102 	mul.s	$f4,$f14,$f14
    8180:	00000000 	nop
    8184:	46021282 	mul.s	$f10,$f2,$f2
    8188:	46049180 	add.s	$f6,$f18,$f4
    818c:	460a4480 	add.s	$f18,$f8,$f10
    8190:	4606903e 	c.le.s	$f18,$f6
    8194:	00000000 	nop
    8198:	45000014 	bc1f	81ec <func_801073C4+0x3b8>
    819c:	00000000 	nop
    81a0:	8e0e0000 	lw	t6,0(s0)
    81a4:	960b0000 	lhu	t3,0(s0)
    81a8:	000eccc2 	srl	t9,t6,0x13
    81ac:	3328fe3f 	andi	t0,t9,0xfe3f
    81b0:	01035025 	or	t2,t0,v1
    81b4:	000a68c0 	sll	t5,t2,0x3
    81b8:	316f0007 	andi	t7,t3,0x7
    81bc:	01afc025 	or	t8,t5,t7
    81c0:	1000000a 	b	81ec <func_801073C4+0x3b8>
    81c4:	a6180000 	sh	t8,0(s0)
    81c8:	8e0e0000 	lw	t6,0(s0)
    81cc:	960b0000 	lhu	t3,0(s0)
    81d0:	000eccc2 	srl	t9,t6,0x13
    81d4:	3329fe3f 	andi	t1,t9,0xfe3f
    81d8:	000960c0 	sll	t4,t1,0x3
    81dc:	316d0007 	andi	t5,t3,0x7
    81e0:	018d7825 	or	t7,t4,t5
    81e4:	10000012 	b	8230 <func_801073C4+0x3fc>
    81e8:	a60f0000 	sh	t7,0(s0)
    81ec:	8fb800b4 	lw	t8,180(sp)
    81f0:	3c010000 	lui	at,0x0
    81f4:	ae180018 	sw	t8,24(s0)
    81f8:	8fae00b0 	lw	t6,176(sp)
    81fc:	ae0e0014 	sw	t6,20(s0)
    8200:	8fb9007c 	lw	t9,124(sp)
    8204:	ae190010 	sw	t9,16(s0)
    8208:	c7a4008c 	lwc1	$f4,140(sp)
    820c:	c62a0014 	lwc1	$f10,20(s1)
    8210:	e6240004 	swc1	$f4,4(s1)
    8214:	c7a80090 	lwc1	$f8,144(sp)
    8218:	c4320000 	lwc1	$f18,0(at)
    821c:	460a4181 	sub.s	$f6,$f8,$f10
    8220:	46123101 	sub.s	$f4,$f6,$f18
    8224:	e6240008 	swc1	$f4,8(s1)
    8228:	c7a80094 	lwc1	$f8,148(sp)
    822c:	e628000c 	swc1	$f8,12(s1)
    8230:	8fbf0034 	lw	ra,52(sp)
    8234:	8fb0002c 	lw	s0,44(sp)
    8238:	8fb10030 	lw	s1,48(sp)
    823c:	03e00008 	jr	ra
    8240:	27bd00b8 	addiu	sp,sp,184

00008244 <func_801077D4>:
func_801077D4():
    8244:	8ca20000 	lw	v0,0(a1)
    8248:	000214c2 	srl	v0,v0,0x13
    824c:	304e0040 	andi	t6,v0,0x40
    8250:	51c00010 	beqzl	t6,8294 <func_801077D4+0x50>
    8254:	8ca30018 	lw	v1,24(a1)
    8258:	3c020000 	lui	v0,0x0
    825c:	24420000 	addiu	v0,v0,0
    8260:	c4440034 	lwc1	$f4,52(v0)
    8264:	c4880014 	lwc1	$f8,20(a0)
    8268:	3c010000 	lui	at,0x0
    826c:	e4840004 	swc1	$f4,4(a0)
    8270:	c4460038 	lwc1	$f6,56(v0)
    8274:	c4300000 	lwc1	$f16,0(at)
    8278:	46083281 	sub.s	$f10,$f6,$f8
    827c:	46105481 	sub.s	$f18,$f10,$f16
    8280:	e4920008 	swc1	$f18,8(a0)
    8284:	c444003c 	lwc1	$f4,60(v0)
    8288:	03e00008 	jr	ra
    828c:	e484000c 	swc1	$f4,12(a0)
    8290:	8ca30018 	lw	v1,24(a1)
    8294:	c4880004 	lwc1	$f8,4(a0)
    8298:	c492000c 	lwc1	$f18,12(a0)
    829c:	c4660000 	lwc1	$f6,0(v1)
    82a0:	c4700008 	lwc1	$f16,8(v1)
    82a4:	46083282 	mul.s	$f10,$f6,$f8
    82a8:	c468000c 	lwc1	$f8,12(v1)
    82ac:	46128102 	mul.s	$f4,$f16,$f18
    82b0:	46045180 	add.s	$f6,$f10,$f4
    82b4:	c46a0004 	lwc1	$f10,4(v1)
    82b8:	46083400 	add.s	$f16,$f6,$f8
    82bc:	c4860014 	lwc1	$f6,20(a0)
    82c0:	c4880008 	lwc1	$f8,8(a0)
    82c4:	46008487 	neg.s	$f18,$f16
    82c8:	460a9103 	div.s	$f4,$f18,$f10
    82cc:	46062001 	sub.s	$f0,$f4,$f6
    82d0:	4608003c 	c.lt.s	$f0,$f8
    82d4:	00000000 	nop
    82d8:	45000005 	bc1f	82f0 <func_801077D4+0xac>
    82dc:	3c010000 	lui	at,0x0
    82e0:	c4300000 	lwc1	$f16,0(at)
    82e4:	46100481 	sub.s	$f18,$f0,$f16
    82e8:	03e00008 	jr	ra
    82ec:	e4920008 	swc1	$f18,8(a0)
    82f0:	94a90000 	lhu	t1,0(a1)
    82f4:	3058fe3f 	andi	t8,v0,0xfe3f
    82f8:	001840c0 	sll	t0,t8,0x3
    82fc:	312a0007 	andi	t2,t1,0x7
    8300:	010a5825 	or	t3,t0,t2
    8304:	a4ab0000 	sh	t3,0(a1)
    8308:	03e00008 	jr	ra
    830c:	00000000 	nop

00008310 <func_801078A0_ovl2>:
func_801078A0_ovl2():
    8310:	27bdff60 	addiu	sp,sp,-160
    8314:	44800000 	mtc1	zero,$f0
    8318:	3c01bf80 	lui	at,0xbf80
    831c:	44812000 	mtc1	at,$f4
    8320:	afbf002c 	sw	ra,44(sp)
    8324:	afb10028 	sw	s1,40(sp)
    8328:	afb00024 	sw	s0,36(sp)
    832c:	e7a00078 	swc1	$f0,120(sp)
    8330:	e7a00080 	swc1	$f0,128(sp)
    8334:	e7a4007c 	swc1	$f4,124(sp)
    8338:	c4860028 	lwc1	$f6,40(a0)
    833c:	00a08825 	move	s1,a1
    8340:	3c0e0000 	lui	t6,0x0
    8344:	e7a60090 	swc1	$f6,144(sp)
    8348:	c4880048 	lwc1	$f8,72(a0)
    834c:	00808025 	move	s0,a0
    8350:	25ce0000 	addiu	t6,t6,0
    8354:	e7a80094 	swc1	$f8,148(sp)
    8358:	c48a0030 	lwc1	$f10,48(a0)
    835c:	262f000c 	addiu	t7,s1,12
    8360:	26380008 	addiu	t8,s1,8
    8364:	e7aa0098 	swc1	$f10,152(sp)
    8368:	c4900004 	lwc1	$f16,4(a0)
    836c:	26390004 	addiu	t9,s1,4
    8370:	27a50084 	addiu	a1,sp,132
    8374:	e7b00084 	swc1	$f16,132(sp)
    8378:	c4840018 	lwc1	$f4,24(a0)
    837c:	c4920008 	lwc1	$f18,8(a0)
    8380:	27a60078 	addiu	a2,sp,120
    8384:	00003825 	move	a3,zero
    8388:	46049180 	add.s	$f6,$f18,$f4
    838c:	e7a60088 	swc1	$f6,136(sp)
    8390:	c488000c 	lwc1	$f8,12(a0)
    8394:	afa0005c 	sw	zero,92(sp)
    8398:	afb9001c 	sw	t9,28(sp)
    839c:	afb80018 	sw	t8,24(sp)
    83a0:	afaf0014 	sw	t7,20(sp)
    83a4:	afae0010 	sw	t6,16(sp)
    83a8:	27a40090 	addiu	a0,sp,144
    83ac:	0c000000 	jal	0 <func_800FF5E0_ovl2>
    83b0:	e7a8008c 	swc1	$f8,140(sp)
    83b4:	10400009 	beqz	v0,83dc <func_801078A0_ovl2+0xcc>
    83b8:	8fa9005c 	lw	t1,92(sp)
    83bc:	3c030000 	lui	v1,0x0
    83c0:	24630000 	addiu	v1,v1,0
    83c4:	c46a0038 	lwc1	$f10,56(v1)
    83c8:	240a0001 	li	t2,1
    83cc:	24090200 	li	t1,512
    83d0:	afaa0058 	sw	t2,88(sp)
    83d4:	10000004 	b	83e8 <func_801078A0_ovl2+0xd8>
    83d8:	e7aa0054 	swc1	$f10,84(sp)
    83dc:	3c030000 	lui	v1,0x0
    83e0:	24630000 	addiu	v1,v1,0
    83e4:	afa00058 	sw	zero,88(sp)
    83e8:	c6100034 	lwc1	$f16,52(s0)
    83ec:	c4660004 	lwc1	$f6,4(v1)
    83f0:	27ab006c 	addiu	t3,sp,108
    83f4:	e7b00090 	swc1	$f16,144(sp)
    83f8:	c6120038 	lwc1	$f18,56(s0)
    83fc:	c4700008 	lwc1	$f16,8(v1)
    8400:	27ac0068 	addiu	t4,sp,104
    8404:	e7b20098 	swc1	$f18,152(sp)
    8408:	c6040004 	lwc1	$f4,4(s0)
    840c:	27ad0064 	addiu	t5,sp,100
    8410:	27ae0060 	addiu	t6,sp,96
    8414:	46062200 	add.s	$f8,$f4,$f6
    8418:	27a40090 	addiu	a0,sp,144
    841c:	27a50084 	addiu	a1,sp,132
    8420:	27a60078 	addiu	a2,sp,120
    8424:	e7a80084 	swc1	$f8,132(sp)
    8428:	c60a000c 	lwc1	$f10,12(s0)
    842c:	afa9005c 	sw	t1,92(sp)
    8430:	afae001c 	sw	t6,28(sp)
    8434:	46105480 	add.s	$f18,$f10,$f16
    8438:	afad0018 	sw	t5,24(sp)
    843c:	afac0014 	sw	t4,20(sp)
    8440:	afab0010 	sw	t3,16(sp)
    8444:	e7b2008c 	swc1	$f18,140(sp)
    8448:	0c000000 	jal	0 <func_800FF5E0_ovl2>
    844c:	00003825 	move	a3,zero
    8450:	3c030000 	lui	v1,0x0
    8454:	24630000 	addiu	v1,v1,0
    8458:	10400050 	beqz	v0,859c <func_801078A0_ovl2+0x28c>
    845c:	8fa9005c 	lw	t1,92(sp)
    8460:	15200015 	bnez	t1,84b8 <func_801078A0_ovl2+0x1a8>
    8464:	00004025 	move	t0,zero
    8468:	c7a4006c 	lwc1	$f4,108(sp)
    846c:	c4660004 	lwc1	$f6,4(v1)
    8470:	8faf0068 	lw	t7,104(sp)
    8474:	c7b20074 	lwc1	$f18,116(sp)
    8478:	46062201 	sub.s	$f8,$f4,$f6
    847c:	c4640008 	lwc1	$f4,8(v1)
    8480:	c5ea0000 	lwc1	$f10,0(t7)
    8484:	24080001 	li	t0,1
    8488:	46049181 	sub.s	$f6,$f18,$f4
    848c:	46085402 	mul.s	$f16,$f10,$f8
    8490:	c5ea0008 	lwc1	$f10,8(t7)
    8494:	c5e4000c 	lwc1	$f4,12(t7)
    8498:	46065202 	mul.s	$f8,$f10,$f6
    849c:	46088480 	add.s	$f18,$f16,$f8
    84a0:	c5f00004 	lwc1	$f16,4(t7)
    84a4:	46049280 	add.s	$f10,$f18,$f4
    84a8:	46005187 	neg.s	$f6,$f10
    84ac:	46103203 	div.s	$f8,$f6,$f16
    84b0:	10000027 	b	8550 <func_801078A0_ovl2+0x240>
    84b4:	e7a8004c 	swc1	$f8,76(sp)
    84b8:	8e26000c 	lw	a2,12(s1)
    84bc:	8fb80068 	lw	t8,104(sp)
    84c0:	c7b2006c 	lwc1	$f18,108(sp)
    84c4:	13060022 	beq	t8,a2,8550 <func_801078A0_ovl2+0x240>
    84c8:	00000000 	nop
    84cc:	c4640004 	lwc1	$f4,4(v1)
    84d0:	c7060000 	lwc1	$f6,0(t8)
    84d4:	c7a80074 	lwc1	$f8,116(sp)
    84d8:	46049281 	sub.s	$f10,$f18,$f4
    84dc:	c4720008 	lwc1	$f18,8(v1)
    84e0:	3c040000 	lui	a0,0x0
    84e4:	24840000 	addiu	a0,a0,0
    84e8:	460a3402 	mul.s	$f16,$f6,$f10
    84ec:	46124101 	sub.s	$f4,$f8,$f18
    84f0:	c7060008 	lwc1	$f6,8(t8)
    84f4:	c712000c 	lwc1	$f18,12(t8)
    84f8:	27a5006c 	addiu	a1,sp,108
    84fc:	46043282 	mul.s	$f10,$f6,$f4
    8500:	3c073f80 	lui	a3,0x3f80
    8504:	460a8200 	add.s	$f8,$f16,$f10
    8508:	c7100004 	lwc1	$f16,4(t8)
    850c:	46124180 	add.s	$f6,$f8,$f18
    8510:	c7a80054 	lwc1	$f8,84(sp)
    8514:	46003107 	neg.s	$f4,$f6
    8518:	46102283 	div.s	$f10,$f4,$f16
    851c:	460a403c 	c.lt.s	$f8,$f10
    8520:	e7aa004c 	swc1	$f10,76(sp)
    8524:	4500000a 	bc1f	8550 <func_801078A0_ovl2+0x240>
    8528:	00000000 	nop
    852c:	afa80050 	sw	t0,80(sp)
    8530:	0c000000 	jal	0 <func_800FF5E0_ovl2>
    8534:	afa9005c 	sw	t1,92(sp)
    8538:	3c030000 	lui	v1,0x0
    853c:	24630000 	addiu	v1,v1,0
    8540:	8fa80050 	lw	t0,80(sp)
    8544:	10400002 	beqz	v0,8550 <func_801078A0_ovl2+0x240>
    8548:	8fa9005c 	lw	t1,92(sp)
    854c:	24080001 	li	t0,1
    8550:	11000012 	beqz	t0,859c <func_801078A0_ovl2+0x28c>
    8554:	3c190000 	lui	t9,0x0
    8558:	27aa006c 	addiu	t2,sp,108
    855c:	8d4c0000 	lw	t4,0(t2)
    8560:	27390000 	addiu	t9,t9,0
    8564:	8d4b0004 	lw	t3,4(t2)
    8568:	af2c0000 	sw	t4,0(t9)
    856c:	8d4c0008 	lw	t4,8(t2)
    8570:	af2b0004 	sw	t3,4(t9)
    8574:	24090800 	li	t1,2048
    8578:	af2c0008 	sw	t4,8(t9)
    857c:	8fad0068 	lw	t5,104(sp)
    8580:	ae2d000c 	sw	t5,12(s1)
    8584:	8fae0064 	lw	t6,100(sp)
    8588:	ae2e0008 	sw	t6,8(s1)
    858c:	8faf0060 	lw	t7,96(sp)
    8590:	ae2f0004 	sw	t7,4(s1)
    8594:	c7b2004c 	lwc1	$f18,76(sp)
    8598:	e7b20054 	swc1	$f18,84(sp)
    859c:	c606003c 	lwc1	$f6,60(s0)
    85a0:	c468000c 	lwc1	$f8,12(v1)
    85a4:	27b8006c 	addiu	t8,sp,108
    85a8:	e7a60090 	swc1	$f6,144(sp)
    85ac:	c6040040 	lwc1	$f4,64(s0)
    85b0:	c4660010 	lwc1	$f6,16(v1)
    85b4:	27b90068 	addiu	t9,sp,104
    85b8:	e7a40098 	swc1	$f4,152(sp)
    85bc:	c6100004 	lwc1	$f16,4(s0)
    85c0:	27aa0064 	addiu	t2,sp,100
    85c4:	27ab0060 	addiu	t3,sp,96
    85c8:	46088280 	add.s	$f10,$f16,$f8
    85cc:	27a40090 	addiu	a0,sp,144
    85d0:	27a50084 	addiu	a1,sp,132
    85d4:	27a60078 	addiu	a2,sp,120
    85d8:	e7aa0084 	swc1	$f10,132(sp)
    85dc:	c612000c 	lwc1	$f18,12(s0)
    85e0:	afa9005c 	sw	t1,92(sp)
    85e4:	afab001c 	sw	t3,28(sp)
    85e8:	46069100 	add.s	$f4,$f18,$f6
    85ec:	afaa0018 	sw	t2,24(sp)
    85f0:	afb90014 	sw	t9,20(sp)
    85f4:	afb80010 	sw	t8,16(sp)
    85f8:	e7a4008c 	swc1	$f4,140(sp)
    85fc:	0c000000 	jal	0 <func_800FF5E0_ovl2>
    8600:	00003825 	move	a3,zero
    8604:	3c030000 	lui	v1,0x0
    8608:	24630000 	addiu	v1,v1,0
    860c:	10400050 	beqz	v0,8750 <func_801078A0_ovl2+0x440>
    8610:	8fa9005c 	lw	t1,92(sp)
    8614:	15200015 	bnez	t1,866c <func_801078A0_ovl2+0x35c>
    8618:	00004025 	move	t0,zero
    861c:	c7b0006c 	lwc1	$f16,108(sp)
    8620:	c468000c 	lwc1	$f8,12(v1)
    8624:	8fac0068 	lw	t4,104(sp)
    8628:	c7a40074 	lwc1	$f4,116(sp)
    862c:	46088281 	sub.s	$f10,$f16,$f8
    8630:	c4700010 	lwc1	$f16,16(v1)
    8634:	c5920000 	lwc1	$f18,0(t4)
    8638:	24080001 	li	t0,1
    863c:	46102201 	sub.s	$f8,$f4,$f16
    8640:	460a9182 	mul.s	$f6,$f18,$f10
    8644:	c5920008 	lwc1	$f18,8(t4)
    8648:	c590000c 	lwc1	$f16,12(t4)
    864c:	46089282 	mul.s	$f10,$f18,$f8
    8650:	460a3100 	add.s	$f4,$f6,$f10
    8654:	c5860004 	lwc1	$f6,4(t4)
    8658:	46102480 	add.s	$f18,$f4,$f16
    865c:	46009207 	neg.s	$f8,$f18
    8660:	46064283 	div.s	$f10,$f8,$f6
    8664:	10000027 	b	8704 <func_801078A0_ovl2+0x3f4>
    8668:	e7aa0044 	swc1	$f10,68(sp)
    866c:	8e26000c 	lw	a2,12(s1)
    8670:	8fad0068 	lw	t5,104(sp)
    8674:	c7a4006c 	lwc1	$f4,108(sp)
    8678:	11a60022 	beq	t5,a2,8704 <func_801078A0_ovl2+0x3f4>
    867c:	00000000 	nop
    8680:	c470000c 	lwc1	$f16,12(v1)
    8684:	c5a80000 	lwc1	$f8,0(t5)
    8688:	c7aa0074 	lwc1	$f10,116(sp)
    868c:	46102481 	sub.s	$f18,$f4,$f16
    8690:	c4640010 	lwc1	$f4,16(v1)
    8694:	3c040000 	lui	a0,0x0
    8698:	24840000 	addiu	a0,a0,0
    869c:	46124182 	mul.s	$f6,$f8,$f18
    86a0:	46045401 	sub.s	$f16,$f10,$f4
    86a4:	c5a80008 	lwc1	$f8,8(t5)
    86a8:	c5a4000c 	lwc1	$f4,12(t5)
    86ac:	27a5006c 	addiu	a1,sp,108
    86b0:	46104482 	mul.s	$f18,$f8,$f16
    86b4:	3c073f80 	lui	a3,0x3f80
    86b8:	46123280 	add.s	$f10,$f6,$f18
    86bc:	c5a60004 	lwc1	$f6,4(t5)
    86c0:	46045200 	add.s	$f8,$f10,$f4
    86c4:	c7aa0054 	lwc1	$f10,84(sp)
    86c8:	46004407 	neg.s	$f16,$f8
    86cc:	46068483 	div.s	$f18,$f16,$f6
    86d0:	4612503c 	c.lt.s	$f10,$f18
    86d4:	e7b20044 	swc1	$f18,68(sp)
    86d8:	4500000a 	bc1f	8704 <func_801078A0_ovl2+0x3f4>
    86dc:	00000000 	nop
    86e0:	afa80048 	sw	t0,72(sp)
    86e4:	0c000000 	jal	0 <func_800FF5E0_ovl2>
    86e8:	afa9005c 	sw	t1,92(sp)
    86ec:	3c030000 	lui	v1,0x0
    86f0:	24630000 	addiu	v1,v1,0
    86f4:	8fa80048 	lw	t0,72(sp)
    86f8:	10400002 	beqz	v0,8704 <func_801078A0_ovl2+0x3f4>
    86fc:	8fa9005c 	lw	t1,92(sp)
    8700:	24080001 	li	t0,1
    8704:	11000012 	beqz	t0,8750 <func_801078A0_ovl2+0x440>
    8708:	3c0e0000 	lui	t6,0x0
    870c:	27af006c 	addiu	t7,sp,108
    8710:	8df90000 	lw	t9,0(t7)
    8714:	25ce0000 	addiu	t6,t6,0
    8718:	8df80004 	lw	t8,4(t7)
    871c:	add90000 	sw	t9,0(t6)
    8720:	8df90008 	lw	t9,8(t7)
    8724:	add80004 	sw	t8,4(t6)
    8728:	24090400 	li	t1,1024
    872c:	add90008 	sw	t9,8(t6)
    8730:	8faa0068 	lw	t2,104(sp)
    8734:	ae2a000c 	sw	t2,12(s1)
    8738:	8fab0064 	lw	t3,100(sp)
    873c:	ae2b0008 	sw	t3,8(s1)
    8740:	8fac0060 	lw	t4,96(sp)
    8744:	ae2c0004 	sw	t4,4(s1)
    8748:	c7a40044 	lwc1	$f4,68(sp)
    874c:	e7a40054 	swc1	$f4,84(sp)
    8750:	8fad0058 	lw	t5,88(sp)
    8754:	15a0009a 	bnez	t5,89c0 <func_801078A0_ovl2+0x6b0>
    8758:	00000000 	nop
    875c:	c6080004 	lwc1	$f8,4(s0)
    8760:	c4700004 	lwc1	$f16,4(v1)
    8764:	26020010 	addiu	v0,s0,16
    8768:	27ae006c 	addiu	t6,sp,108
    876c:	46104180 	add.s	$f6,$f8,$f16
    8770:	c4700008 	lwc1	$f16,8(v1)
    8774:	27af0068 	addiu	t7,sp,104
    8778:	27b80064 	addiu	t8,sp,100
    877c:	e7a60090 	swc1	$f6,144(sp)
    8780:	c60a0008 	lwc1	$f10,8(s0)
    8784:	c4520004 	lwc1	$f18,4(v0)
    8788:	27b90060 	addiu	t9,sp,96
    878c:	27a40090 	addiu	a0,sp,144
    8790:	46125100 	add.s	$f4,$f10,$f18
    8794:	c7aa0090 	lwc1	$f10,144(sp)
    8798:	27a50084 	addiu	a1,sp,132
    879c:	27a60078 	addiu	a2,sp,120
    87a0:	e7a40094 	swc1	$f4,148(sp)
    87a4:	c608000c 	lwc1	$f8,12(s0)
    87a8:	e7aa0084 	swc1	$f10,132(sp)
    87ac:	00003825 	move	a3,zero
    87b0:	46104180 	add.s	$f6,$f8,$f16
    87b4:	e7a60098 	swc1	$f6,152(sp)
    87b8:	c4440008 	lwc1	$f4,8(v0)
    87bc:	c6120008 	lwc1	$f18,8(s0)
    87c0:	c7b00098 	lwc1	$f16,152(sp)
    87c4:	afa9005c 	sw	t1,92(sp)
    87c8:	46049200 	add.s	$f8,$f18,$f4
    87cc:	afb9001c 	sw	t9,28(sp)
    87d0:	afb80018 	sw	t8,24(sp)
    87d4:	afaf0014 	sw	t7,20(sp)
    87d8:	e7a80088 	swc1	$f8,136(sp)
    87dc:	afae0010 	sw	t6,16(sp)
    87e0:	0c000000 	jal	0 <func_800FF5E0_ovl2>
    87e4:	e7b0008c 	swc1	$f16,140(sp)
    87e8:	3c030000 	lui	v1,0x0
    87ec:	24630000 	addiu	v1,v1,0
    87f0:	1040002c 	beqz	v0,88a4 <func_801078A0_ovl2+0x594>
    87f4:	8fa9005c 	lw	t1,92(sp)
    87f8:	15200003 	bnez	t1,8808 <func_801078A0_ovl2+0x4f8>
    87fc:	00001025 	move	v0,zero
    8800:	10000017 	b	8860 <func_801078A0_ovl2+0x550>
    8804:	24020001 	li	v0,1
    8808:	8faa0068 	lw	t2,104(sp)
    880c:	8e2b000c 	lw	t3,12(s1)
    8810:	114b0013 	beq	t2,t3,8860 <func_801078A0_ovl2+0x550>
    8814:	00000000 	nop
    8818:	c5460000 	lwc1	$f6,0(t2)
    881c:	c60a0028 	lwc1	$f10,40(s0)
    8820:	c5440008 	lwc1	$f4,8(t2)
    8824:	c6080030 	lwc1	$f8,48(s0)
    8828:	460a3482 	mul.s	$f18,$f6,$f10
    882c:	c54a000c 	lwc1	$f10,12(t2)
    8830:	46082402 	mul.s	$f16,$f4,$f8
    8834:	46109180 	add.s	$f6,$f18,$f16
    8838:	c5520004 	lwc1	$f18,4(t2)
    883c:	c7b00054 	lwc1	$f16,84(sp)
    8840:	460a3100 	add.s	$f4,$f6,$f10
    8844:	46002207 	neg.s	$f8,$f4
    8848:	46124003 	div.s	$f0,$f8,$f18
    884c:	4600803c 	c.lt.s	$f16,$f0
    8850:	00000000 	nop
    8854:	45000002 	bc1f	8860 <func_801078A0_ovl2+0x550>
    8858:	00000000 	nop
    885c:	24020001 	li	v0,1
    8860:	10400010 	beqz	v0,88a4 <func_801078A0_ovl2+0x594>
    8864:	3c0c0000 	lui	t4,0x0
    8868:	27ad006c 	addiu	t5,sp,108
    886c:	8daf0000 	lw	t7,0(t5)
    8870:	258c0000 	addiu	t4,t4,0
    8874:	8dae0004 	lw	t6,4(t5)
    8878:	ad8f0000 	sw	t7,0(t4)
    887c:	8daf0008 	lw	t7,8(t5)
    8880:	ad8e0004 	sw	t6,4(t4)
    8884:	24090800 	li	t1,2048
    8888:	ad8f0008 	sw	t7,8(t4)
    888c:	8fb80068 	lw	t8,104(sp)
    8890:	ae38000c 	sw	t8,12(s1)
    8894:	8fb90064 	lw	t9,100(sp)
    8898:	ae390008 	sw	t9,8(s1)
    889c:	8fab0060 	lw	t3,96(sp)
    88a0:	ae2b0004 	sw	t3,4(s1)
    88a4:	c6060004 	lwc1	$f6,4(s0)
    88a8:	c46a000c 	lwc1	$f10,12(v1)
    88ac:	c4720010 	lwc1	$f18,16(v1)
    88b0:	27aa006c 	addiu	t2,sp,108
    88b4:	460a3100 	add.s	$f4,$f6,$f10
    88b8:	27ac0068 	addiu	t4,sp,104
    88bc:	27ad0064 	addiu	t5,sp,100
    88c0:	27ae0060 	addiu	t6,sp,96
    88c4:	e7a40090 	swc1	$f4,144(sp)
    88c8:	c608000c 	lwc1	$f8,12(s0)
    88cc:	c7a60090 	lwc1	$f6,144(sp)
    88d0:	afa9005c 	sw	t1,92(sp)
    88d4:	46124400 	add.s	$f16,$f8,$f18
    88d8:	afae001c 	sw	t6,28(sp)
    88dc:	afad0018 	sw	t5,24(sp)
    88e0:	afac0014 	sw	t4,20(sp)
    88e4:	e7b00098 	swc1	$f16,152(sp)
    88e8:	c7aa0098 	lwc1	$f10,152(sp)
    88ec:	afaa0010 	sw	t2,16(sp)
    88f0:	27a40090 	addiu	a0,sp,144
    88f4:	27a50084 	addiu	a1,sp,132
    88f8:	27a60078 	addiu	a2,sp,120
    88fc:	00003825 	move	a3,zero
    8900:	e7a60084 	swc1	$f6,132(sp)
    8904:	0c000000 	jal	0 <func_800FF5E0_ovl2>
    8908:	e7aa008c 	swc1	$f10,140(sp)
    890c:	1040002c 	beqz	v0,89c0 <func_801078A0_ovl2+0x6b0>
    8910:	8fa9005c 	lw	t1,92(sp)
    8914:	15200003 	bnez	t1,8924 <func_801078A0_ovl2+0x614>
    8918:	00001025 	move	v0,zero
    891c:	10000017 	b	897c <func_801078A0_ovl2+0x66c>
    8920:	24020001 	li	v0,1
    8924:	8faf0068 	lw	t7,104(sp)
    8928:	8e38000c 	lw	t8,12(s1)
    892c:	11f80013 	beq	t7,t8,897c <func_801078A0_ovl2+0x66c>
    8930:	00000000 	nop
    8934:	c5e40000 	lwc1	$f4,0(t7)
    8938:	c6080028 	lwc1	$f8,40(s0)
    893c:	c5f00008 	lwc1	$f16,8(t7)
    8940:	c6060030 	lwc1	$f6,48(s0)
    8944:	46082482 	mul.s	$f18,$f4,$f8
    8948:	c5e8000c 	lwc1	$f8,12(t7)
    894c:	46068282 	mul.s	$f10,$f16,$f6
    8950:	460a9100 	add.s	$f4,$f18,$f10
    8954:	c5f20004 	lwc1	$f18,4(t7)
    8958:	c7aa0054 	lwc1	$f10,84(sp)
    895c:	46082400 	add.s	$f16,$f4,$f8
    8960:	46008187 	neg.s	$f6,$f16
    8964:	46123003 	div.s	$f0,$f6,$f18
    8968:	4600503c 	c.lt.s	$f10,$f0
    896c:	00000000 	nop
    8970:	45000002 	bc1f	897c <func_801078A0_ovl2+0x66c>
    8974:	00000000 	nop
    8978:	24020001 	li	v0,1
    897c:	10400010 	beqz	v0,89c0 <func_801078A0_ovl2+0x6b0>
    8980:	3c190000 	lui	t9,0x0
    8984:	27ab006c 	addiu	t3,sp,108
    8988:	8d6c0000 	lw	t4,0(t3)
    898c:	27390000 	addiu	t9,t9,0
    8990:	8d6a0004 	lw	t2,4(t3)
    8994:	af2c0000 	sw	t4,0(t9)
    8998:	8d6c0008 	lw	t4,8(t3)
    899c:	af2a0004 	sw	t2,4(t9)
    89a0:	24090400 	li	t1,1024
    89a4:	af2c0008 	sw	t4,8(t9)
    89a8:	8fad0068 	lw	t5,104(sp)
    89ac:	ae2d000c 	sw	t5,12(s1)
    89b0:	8fae0064 	lw	t6,100(sp)
    89b4:	ae2e0008 	sw	t6,8(s1)
    89b8:	8fb80060 	lw	t8,96(sp)
    89bc:	ae380004 	sw	t8,4(s1)
    89c0:	1120000b 	beqz	t1,89f0 <func_801078A0_ovl2+0x6e0>
    89c4:	00001025 	move	v0,zero
    89c8:	8e2f0000 	lw	t7,0(s1)
    89cc:	962d0000 	lhu	t5,0(s1)
    89d0:	24020001 	li	v0,1
    89d4:	000fccc2 	srl	t9,t7,0x13
    89d8:	03295825 	or	t3,t9,t1
    89dc:	000b60c0 	sll	t4,t3,0x3
    89e0:	31ae0007 	andi	t6,t5,0x7
    89e4:	018ec025 	or	t8,t4,t6
    89e8:	10000001 	b	89f0 <func_801078A0_ovl2+0x6e0>
    89ec:	a6380000 	sh	t8,0(s1)
    89f0:	8fbf002c 	lw	ra,44(sp)
    89f4:	8fb00024 	lw	s0,36(sp)
    89f8:	8fb10028 	lw	s1,40(sp)
    89fc:	03e00008 	jr	ra
    8a00:	27bd00a0 	addiu	sp,sp,160

00008a04 <func_80107F94>:
func_80107F94():
    8a04:	27bdffa0 	addiu	sp,sp,-96
    8a08:	afbf002c 	sw	ra,44(sp)
    8a0c:	afb10028 	sw	s1,40(sp)
    8a10:	afb00024 	sw	s0,36(sp)
    8a14:	c4840028 	lwc1	$f4,40(a0)
    8a18:	00a08825 	move	s1,a1
    8a1c:	44800000 	mtc1	zero,$f0
    8a20:	e7a4004c 	swc1	$f4,76(sp)
    8a24:	c4860048 	lwc1	$f6,72(a0)
    8a28:	3c01bf80 	lui	at,0xbf80
    8a2c:	3c0e0000 	lui	t6,0x0
    8a30:	e7a60050 	swc1	$f6,80(sp)
    8a34:	c4880030 	lwc1	$f8,48(a0)
    8a38:	25ce0000 	addiu	t6,t6,0
    8a3c:	262f000c 	addiu	t7,s1,12
    8a40:	e7a80054 	swc1	$f8,84(sp)
    8a44:	c48a0004 	lwc1	$f10,4(a0)
    8a48:	44814000 	mtc1	at,$f8
    8a4c:	26380008 	addiu	t8,s1,8
    8a50:	e7aa0040 	swc1	$f10,64(sp)
    8a54:	c4920018 	lwc1	$f18,24(a0)
    8a58:	c4900008 	lwc1	$f16,8(a0)
    8a5c:	26390004 	addiu	t9,s1,4
    8a60:	27a50040 	addiu	a1,sp,64
    8a64:	46128100 	add.s	$f4,$f16,$f18
    8a68:	27a60034 	addiu	a2,sp,52
    8a6c:	27a70058 	addiu	a3,sp,88
    8a70:	e7a40044 	swc1	$f4,68(sp)
    8a74:	c486000c 	lwc1	$f6,12(a0)
    8a78:	afb9001c 	sw	t9,28(sp)
    8a7c:	afb80018 	sw	t8,24(sp)
    8a80:	afaf0014 	sw	t7,20(sp)
    8a84:	afae0010 	sw	t6,16(sp)
    8a88:	27a4004c 	addiu	a0,sp,76
    8a8c:	e7a00034 	swc1	$f0,52(sp)
    8a90:	e7a0003c 	swc1	$f0,60(sp)
    8a94:	e7a80038 	swc1	$f8,56(sp)
    8a98:	0c000000 	jal	0 <func_800FF5E0_ovl2>
    8a9c:	e7a60048 	swc1	$f6,72(sp)
    8aa0:	5040000c 	beqzl	v0,8ad4 <func_80107F94+0xd0>
    8aa4:	00001025 	move	v0,zero
    8aa8:	8e280000 	lw	t0,0(s1)
    8aac:	962d0000 	lhu	t5,0(s1)
    8ab0:	24020001 	li	v0,1
    8ab4:	00084cc2 	srl	t1,t0,0x13
    8ab8:	352a0200 	ori	t2,t1,0x200
    8abc:	000a60c0 	sll	t4,t2,0x3
    8ac0:	31ae0007 	andi	t6,t5,0x7
    8ac4:	018e7825 	or	t7,t4,t6
    8ac8:	10000002 	b	8ad4 <func_80107F94+0xd0>
    8acc:	a62f0000 	sh	t7,0(s1)
    8ad0:	00001025 	move	v0,zero
    8ad4:	8fbf002c 	lw	ra,44(sp)
    8ad8:	8fb00024 	lw	s0,36(sp)
    8adc:	8fb10028 	lw	s1,40(sp)
    8ae0:	03e00008 	jr	ra
    8ae4:	27bd0060 	addiu	sp,sp,96

00008ae8 <func_80108078>:
func_80108078():
    8ae8:	27bdfea0 	addiu	sp,sp,-352
    8aec:	afbf007c 	sw	ra,124(sp)
    8af0:	afb70078 	sw	s7,120(sp)
    8af4:	afb60074 	sw	s6,116(sp)
    8af8:	afb50070 	sw	s5,112(sp)
    8afc:	afb4006c 	sw	s4,108(sp)
    8b00:	afb30068 	sw	s3,104(sp)
    8b04:	afb20064 	sw	s2,100(sp)
    8b08:	afb10060 	sw	s1,96(sp)
    8b0c:	afb0005c 	sw	s0,92(sp)
    8b10:	f7be0050 	sdc1	$f30,80(sp)
    8b14:	f7bc0048 	sdc1	$f28,72(sp)
    8b18:	f7ba0040 	sdc1	$f26,64(sp)
    8b1c:	f7b80038 	sdc1	$f24,56(sp)
    8b20:	f7b60030 	sdc1	$f22,48(sp)
    8b24:	f7b40028 	sdc1	$f20,40(sp)
    8b28:	afa7016c 	sw	a3,364(sp)
    8b2c:	c4860000 	lwc1	$f6,0(a0)
    8b30:	c4a40000 	lwc1	$f4,0(a1)
    8b34:	c48a0004 	lwc1	$f10,4(a0)
    8b38:	c4a80004 	lwc1	$f8,4(a1)
    8b3c:	46062001 	sub.s	$f0,$f4,$f6
    8b40:	c4840008 	lwc1	$f4,8(a0)
    8b44:	c4b20008 	lwc1	$f18,8(a1)
    8b48:	460a4081 	sub.s	$f2,$f8,$f10
    8b4c:	46000182 	mul.s	$f6,$f0,$f0
    8b50:	00809025 	move	s2,a0
    8b54:	46049381 	sub.s	$f14,$f18,$f4
    8b58:	46021202 	mul.s	$f8,$f2,$f2
    8b5c:	00c0a825 	move	s5,a2
    8b60:	afa50164 	sw	a1,356(sp)
    8b64:	460e7482 	mul.s	$f18,$f14,$f14
    8b68:	46083280 	add.s	$f10,$f6,$f8
    8b6c:	0c000000 	jal	0 <func_800FF5E0_ovl2>
    8b70:	46125300 	add.s	$f12,$f10,$f18
    8b74:	4480d000 	mtc1	zero,$f26
    8b78:	8fa50164 	lw	a1,356(sp)
    8b7c:	46000706 	mov.s	$f28,$f0
    8b80:	461a0032 	c.eq.s	$f0,$f26
    8b84:	8fa30170 	lw	v1,368(sp)
    8b88:	4502000a 	bc1fl	8bb4 <func_80108078+0xcc>
    8b8c:	8e590000 	lw	t9,0(s2)
    8b90:	8e4f0000 	lw	t7,0(s2)
    8b94:	00001025 	move	v0,zero
    8b98:	ac6f0000 	sw	t7,0(v1)
    8b9c:	8e4e0004 	lw	t6,4(s2)
    8ba0:	ac6e0004 	sw	t6,4(v1)
    8ba4:	8e4f0008 	lw	t7,8(s2)
    8ba8:	100001b6 	b	9284 <func_80108078+0x79c>
    8bac:	ac6f0008 	sw	t7,8(v1)
    8bb0:	8e590000 	lw	t9,0(s2)
    8bb4:	27b40144 	addiu	s4,sp,324
    8bb8:	27a80138 	addiu	t0,sp,312
    8bbc:	ae990000 	sw	t9,0(s4)
    8bc0:	8e580004 	lw	t8,4(s2)
    8bc4:	3c013f80 	lui	at,0x3f80
    8bc8:	02a08825 	move	s1,s5
    8bcc:	ae980004 	sw	t8,4(s4)
    8bd0:	8e590008 	lw	t9,8(s2)
    8bd4:	02a09825 	move	s3,s5
    8bd8:	02a08025 	move	s0,s5
    8bdc:	ae990008 	sw	t9,8(s4)
    8be0:	8caa0000 	lw	t2,0(a1)
    8be4:	4481f000 	mtc1	at,$f30
    8be8:	27b700f0 	addiu	s7,sp,240
    8bec:	ad0a0000 	sw	t2,0(t0)
    8bf0:	8ca90004 	lw	t1,4(a1)
    8bf4:	27b600e4 	addiu	s6,sp,228
    8bf8:	ad090004 	sw	t1,4(t0)
    8bfc:	8caa0008 	lw	t2,8(a1)
    8c00:	ad0a0008 	sw	t2,8(t0)
    8c04:	afa00108 	sw	zero,264(sp)
    8c08:	c6ae0004 	lwc1	$f14,4(s5)
    8c0c:	c6ac000c 	lwc1	$f12,12(s5)
    8c10:	c6a20008 	lwc1	$f2,8(s5)
    8c14:	c6b00000 	lwc1	$f16,0(s5)
    8c18:	27b5012c 	addiu	s5,sp,300
    8c1c:	c7a40138 	lwc1	$f4,312(sp)
    8c20:	c7a80140 	lwc1	$f8,320(sp)
    8c24:	27ab0128 	addiu	t3,sp,296
    8c28:	46048182 	mul.s	$f6,$f16,$f4
    8c2c:	27ac0118 	addiu	t4,sp,280
    8c30:	27ad0110 	addiu	t5,sp,272
    8c34:	46081282 	mul.s	$f10,$f2,$f8
    8c38:	afad0020 	sw	t5,32(sp)
    8c3c:	afac001c 	sw	t4,28(sp)
    8c40:	afab0018 	sw	t3,24(sp)
    8c44:	02802025 	move	a0,s4
    8c48:	27a50138 	addiu	a1,sp,312
    8c4c:	02203025 	move	a2,s1
    8c50:	460a3480 	add.s	$f18,$f6,$f10
    8c54:	02603825 	move	a3,s3
    8c58:	afa00010 	sw	zero,16(sp)
    8c5c:	afb50014 	sw	s5,20(sp)
    8c60:	460c9100 	add.s	$f4,$f18,$f12
    8c64:	46002207 	neg.s	$f8,$f4
    8c68:	460e4183 	div.s	$f6,$f8,$f14
    8c6c:	0c000000 	jal	0 <func_800FF5E0_ovl2>
    8c70:	e7a6013c 	swc1	$f6,316(sp)
    8c74:	1040014d 	beqz	v0,91ac <func_80108078+0x6c4>
    8c78:	c7aa012c 	lwc1	$f10,300(sp)
    8c7c:	c7b20144 	lwc1	$f18,324(sp)
    8c80:	c7b00130 	lwc1	$f16,304(sp)
    8c84:	c7a40148 	lwc1	$f4,328(sp)
    8c88:	46125001 	sub.s	$f0,$f10,$f18
    8c8c:	c7a80134 	lwc1	$f8,308(sp)
    8c90:	c7a6014c 	lwc1	$f6,332(sp)
    8c94:	46048501 	sub.s	$f20,$f16,$f4
    8c98:	46000282 	mul.s	$f10,$f0,$f0
    8c9c:	46000586 	mov.s	$f22,$f0
    8ca0:	46064601 	sub.s	$f24,$f8,$f6
    8ca4:	4614a482 	mul.s	$f18,$f20,$f20
    8ca8:	46125100 	add.s	$f4,$f10,$f18
    8cac:	4618c202 	mul.s	$f8,$f24,$f24
    8cb0:	0c000000 	jal	0 <func_800FF5E0_ovl2>
    8cb4:	46082300 	add.s	$f12,$f4,$f8
    8cb8:	4600e03e 	c.le.s	$f28,$f0
    8cbc:	e7a000f8 	swc1	$f0,248(sp)
    8cc0:	8faa0128 	lw	t2,296(sp)
    8cc4:	3c013f00 	lui	at,0x3f00
    8cc8:	4500001c 	bc1f	8d3c <func_80108078+0x254>
    8ccc:	24080001 	li	t0,1
    8cd0:	4600e083 	div.s	$f2,$f28,$f0
    8cd4:	c7aa0144 	lwc1	$f10,324(sp)
    8cd8:	8fa30170 	lw	v1,368(sp)
    8cdc:	4602b182 	mul.s	$f6,$f22,$f2
    8ce0:	460a3480 	add.s	$f18,$f6,$f10
    8ce4:	4602a102 	mul.s	$f4,$f20,$f2
    8ce8:	e4720000 	swc1	$f18,0(v1)
    8cec:	c7a80148 	lwc1	$f8,328(sp)
    8cf0:	4602c282 	mul.s	$f10,$f24,$f2
    8cf4:	46082180 	add.s	$f6,$f4,$f8
    8cf8:	e4660004 	swc1	$f6,4(v1)
    8cfc:	c7b2014c 	lwc1	$f18,332(sp)
    8d00:	46125100 	add.s	$f4,$f10,$f18
    8d04:	e4640008 	swc1	$f4,8(v1)
    8d08:	8fae0108 	lw	t6,264(sp)
    8d0c:	8faf0178 	lw	t7,376(sp)
    8d10:	11c00008 	beqz	t6,8d34 <func_80108078+0x24c>
    8d14:	00000000 	nop
    8d18:	adf00000 	sw	s0,0(t7)
    8d1c:	8fb9017c 	lw	t9,380(sp)
    8d20:	8fb80114 	lw	t8,276(sp)
    8d24:	af380000 	sw	t8,0(t9)
    8d28:	8fa90180 	lw	t1,384(sp)
    8d2c:	8fa8010c 	lw	t0,268(sp)
    8d30:	ad280000 	sw	t0,0(t1)
    8d34:	10000153 	b	9284 <func_80108078+0x79c>
    8d38:	00001025 	move	v0,zero
    8d3c:	c54c0004 	lwc1	$f12,4(t2)
    8d40:	44814000 	mtc1	at,$f8
    8d44:	c7a60138 	lwc1	$f6,312(sp)
    8d48:	461a603c 	c.lt.s	$f12,$f26
    8d4c:	c7aa0144 	lwc1	$f10,324(sp)
    8d50:	c7b2013c 	lwc1	$f18,316(sp)
    8d54:	c7a40148 	lwc1	$f4,328(sp)
    8d58:	45020004 	bc1fl	8d6c <func_80108078+0x284>
    8d5c:	46006086 	mov.s	$f2,$f12
    8d60:	10000002 	b	8d6c <func_80108078+0x284>
    8d64:	46006087 	neg.s	$f2,$f12
    8d68:	46006086 	mov.s	$f2,$f12
    8d6c:	4608103e 	c.le.s	$f2,$f8
    8d70:	00000000 	nop
    8d74:	450200fa 	bc1fl	9160 <func_80108078+0x678>
    8d78:	8eae0000 	lw	t6,0(s5)
    8d7c:	460a3001 	sub.s	$f0,$f6,$f10
    8d80:	c7a6014c 	lwc1	$f6,332(sp)
    8d84:	c7a80140 	lwc1	$f8,320(sp)
    8d88:	46049501 	sub.s	$f20,$f18,$f4
    8d8c:	46000282 	mul.s	$f10,$f0,$f0
    8d90:	8e8c0000 	lw	t4,0(s4)
    8d94:	46064601 	sub.s	$f24,$f8,$f6
    8d98:	4614a482 	mul.s	$f18,$f20,$f20
    8d9c:	aecc0000 	sw	t4,0(s6)
    8da0:	8e8c0008 	lw	t4,8(s4)
    8da4:	4618c202 	mul.s	$f8,$f24,$f24
    8da8:	8e8b0004 	lw	t3,4(s4)
    8dac:	46000586 	mov.s	$f22,$f0
    8db0:	aecc0008 	sw	t4,8(s6)
    8db4:	aecb0004 	sw	t3,4(s6)
    8db8:	46125100 	add.s	$f4,$f10,$f18
    8dbc:	0c000000 	jal	0 <func_800FF5E0_ovl2>
    8dc0:	46082300 	add.s	$f12,$f4,$f8
    8dc4:	3c014120 	lui	at,0x4120
    8dc8:	44813000 	mtc1	at,$f6
    8dcc:	c7b20138 	lwc1	$f18,312(sp)
    8dd0:	c7ae016c 	lwc1	$f14,364(sp)
    8dd4:	46003083 	div.s	$f2,$f6,$f0
    8dd8:	c7a6013c 	lwc1	$f6,316(sp)
    8ddc:	02c02025 	move	a0,s6
    8de0:	27a500d8 	addiu	a1,sp,216
    8de4:	00003025 	move	a2,zero
    8de8:	00003825 	move	a3,zero
    8dec:	afa00010 	sw	zero,16(sp)
    8df0:	afb70014 	sw	s7,20(sp)
    8df4:	afa00018 	sw	zero,24(sp)
    8df8:	afa0001c 	sw	zero,28(sp)
    8dfc:	4602b282 	mul.s	$f10,$f22,$f2
    8e00:	46125100 	add.s	$f4,$f10,$f18
    8e04:	4602a202 	mul.s	$f8,$f20,$f2
    8e08:	c7b20140 	lwc1	$f18,320(sp)
    8e0c:	4602c282 	mul.s	$f10,$f24,$f2
    8e10:	e7a400d8 	swc1	$f4,216(sp)
    8e14:	46064300 	add.s	$f12,$f8,$f6
    8e18:	c7a800e8 	lwc1	$f8,232(sp)
    8e1c:	46125100 	add.s	$f4,$f10,$f18
    8e20:	460e6300 	add.s	$f12,$f12,$f14
    8e24:	e7a400e0 	swc1	$f4,224(sp)
    8e28:	460e4180 	add.s	$f6,$f8,$f14
    8e2c:	e7ac00dc 	swc1	$f12,220(sp)
    8e30:	0c000000 	jal	0 <func_800FF5E0_ovl2>
    8e34:	e7a600e8 	swc1	$f6,232(sp)
    8e38:	10400032 	beqz	v0,8f04 <func_80108078+0x41c>
    8e3c:	8fad00f0 	lw	t5,240(sp)
    8e40:	c5aa0000 	lwc1	$f10,0(t5)
    8e44:	c7b2012c 	lwc1	$f18,300(sp)
    8e48:	c5a80004 	lwc1	$f8,4(t5)
    8e4c:	c7a60130 	lwc1	$f6,304(sp)
    8e50:	46125102 	mul.s	$f4,$f10,$f18
    8e54:	00000000 	nop
    8e58:	46064282 	mul.s	$f10,$f8,$f6
    8e5c:	c7a60134 	lwc1	$f6,308(sp)
    8e60:	c5a80008 	lwc1	$f8,8(t5)
    8e64:	460a2480 	add.s	$f18,$f4,$f10
    8e68:	46064102 	mul.s	$f4,$f8,$f6
    8e6c:	c5a8000c 	lwc1	$f8,12(t5)
    8e70:	46049280 	add.s	$f10,$f18,$f4
    8e74:	46085000 	add.s	$f0,$f10,$f8
    8e78:	461a003c 	c.lt.s	$f0,$f26
    8e7c:	00000000 	nop
    8e80:	45000003 	bc1f	8e90 <func_80108078+0x3a8>
    8e84:	00000000 	nop
    8e88:	10000002 	b	8e94 <func_80108078+0x3ac>
    8e8c:	46000087 	neg.s	$f2,$f0
    8e90:	46000086 	mov.s	$f2,$f0
    8e94:	461e103c 	c.lt.s	$f2,$f30
    8e98:	00000000 	nop
    8e9c:	45000019 	bc1f	8f04 <func_80108078+0x41c>
    8ea0:	00000000 	nop
    8ea4:	8fa30170 	lw	v1,368(sp)
    8ea8:	8eaf0000 	lw	t7,0(s5)
    8eac:	ac6f0000 	sw	t7,0(v1)
    8eb0:	8eae0004 	lw	t6,4(s5)
    8eb4:	ac6e0004 	sw	t6,4(v1)
    8eb8:	8eaf0008 	lw	t7,8(s5)
    8ebc:	ac6f0008 	sw	t7,8(v1)
    8ec0:	c7a600f8 	lwc1	$f6,248(sp)
    8ec4:	8fb80174 	lw	t8,372(sp)
    8ec8:	4606e481 	sub.s	$f18,$f28,$f6
    8ecc:	e7120000 	swc1	$f18,0(t8)
    8ed0:	8fb90108 	lw	t9,264(sp)
    8ed4:	8fa80178 	lw	t0,376(sp)
    8ed8:	13200008 	beqz	t9,8efc <func_80108078+0x414>
    8edc:	00000000 	nop
    8ee0:	ad100000 	sw	s0,0(t0)
    8ee4:	8faa017c 	lw	t2,380(sp)
    8ee8:	8fa90114 	lw	t1,276(sp)
    8eec:	ad490000 	sw	t1,0(t2)
    8ef0:	8fac0180 	lw	t4,384(sp)
    8ef4:	8fab010c 	lw	t3,268(sp)
    8ef8:	ad8b0000 	sw	t3,0(t4)
    8efc:	100000e1 	b	9284 <func_80108078+0x79c>
    8f00:	24020001 	li	v0,1
    8f04:	4616b102 	mul.s	$f4,$f22,$f22
    8f08:	00009025 	move	s2,zero
    8f0c:	4618c282 	mul.s	$f10,$f24,$f24
    8f10:	0c000000 	jal	0 <func_800FF5E0_ovl2>
    8f14:	460a2300 	add.s	$f12,$f4,$f10
    8f18:	c7a8016c 	lwc1	$f8,364(sp)
    8f1c:	4600f083 	div.s	$f2,$f30,$f0
    8f20:	c7b00130 	lwc1	$f16,304(sp)
    8f24:	3c01c120 	lui	at,0xc120
    8f28:	c7b2012c 	lwc1	$f18,300(sp)
    8f2c:	4608d03c 	c.lt.s	$f26,$f8
    8f30:	27a400c4 	addiu	a0,sp,196
    8f34:	27a500b8 	addiu	a1,sp,184
    8f38:	00003025 	move	a2,zero
    8f3c:	45020006 	bc1fl	8f58 <func_80108078+0x470>
    8f40:	44810000 	mtc1	at,$f0
    8f44:	3c014120 	lui	at,0x4120
    8f48:	44810000 	mtc1	at,$f0
    8f4c:	10000003 	b	8f5c <func_80108078+0x474>
    8f50:	00000000 	nop
    8f54:	44810000 	mtc1	at,$f0
    8f58:	00000000 	nop
    8f5c:	4602b182 	mul.s	$f6,$f22,$f2
    8f60:	c7a80134 	lwc1	$f8,308(sp)
    8f64:	46008100 	add.s	$f4,$f16,$f0
    8f68:	4602c282 	mul.s	$f10,$f24,$f2
    8f6c:	00003825 	move	a3,zero
    8f70:	afa00010 	sw	zero,16(sp)
    8f74:	e7a400c8 	swc1	$f4,200(sp)
    8f78:	afb70014 	sw	s7,20(sp)
    8f7c:	46123300 	add.s	$f12,$f6,$f18
    8f80:	afa00018 	sw	zero,24(sp)
    8f84:	afa0001c 	sw	zero,28(sp)
    8f88:	46085380 	add.s	$f14,$f10,$f8
    8f8c:	e7ac00b8 	swc1	$f12,184(sp)
    8f90:	e7ac00c4 	swc1	$f12,196(sp)
    8f94:	46008181 	sub.s	$f6,$f16,$f0
    8f98:	e7ae00c0 	swc1	$f14,192(sp)
    8f9c:	e7ae00cc 	swc1	$f14,204(sp)
    8fa0:	0c000000 	jal	0 <func_800FF5E0_ovl2>
    8fa4:	e7a600bc 	swc1	$f6,188(sp)
    8fa8:	1040001b 	beqz	v0,9018 <func_80108078+0x530>
    8fac:	8fad00f0 	lw	t5,240(sp)
    8fb0:	c5b20000 	lwc1	$f18,0(t5)
    8fb4:	c7a4012c 	lwc1	$f4,300(sp)
    8fb8:	c5a80004 	lwc1	$f8,4(t5)
    8fbc:	c7a60130 	lwc1	$f6,304(sp)
    8fc0:	46049282 	mul.s	$f10,$f18,$f4
    8fc4:	00000000 	nop
    8fc8:	46064482 	mul.s	$f18,$f8,$f6
    8fcc:	c7a60134 	lwc1	$f6,308(sp)
    8fd0:	c5a80008 	lwc1	$f8,8(t5)
    8fd4:	46125100 	add.s	$f4,$f10,$f18
    8fd8:	46064282 	mul.s	$f10,$f8,$f6
    8fdc:	c5a8000c 	lwc1	$f8,12(t5)
    8fe0:	460a2480 	add.s	$f18,$f4,$f10
    8fe4:	46089000 	add.s	$f0,$f18,$f8
    8fe8:	461a003c 	c.lt.s	$f0,$f26
    8fec:	00000000 	nop
    8ff0:	45000003 	bc1f	9000 <func_80108078+0x518>
    8ff4:	00000000 	nop
    8ff8:	10000002 	b	9004 <func_80108078+0x51c>
    8ffc:	46000087 	neg.s	$f2,$f0
    9000:	46000086 	mov.s	$f2,$f0
    9004:	461e103c 	c.lt.s	$f2,$f30
    9008:	00000000 	nop
    900c:	45000002 	bc1f	9018 <func_80108078+0x530>
    9010:	00000000 	nop
    9014:	24120001 	li	s2,1
    9018:	16400019 	bnez	s2,9080 <func_80108078+0x598>
    901c:	00000000 	nop
    9020:	8fa30170 	lw	v1,368(sp)
    9024:	8eaf0000 	lw	t7,0(s5)
    9028:	ac6f0000 	sw	t7,0(v1)
    902c:	8eae0004 	lw	t6,4(s5)
    9030:	ac6e0004 	sw	t6,4(v1)
    9034:	8eaf0008 	lw	t7,8(s5)
    9038:	ac6f0008 	sw	t7,8(v1)
    903c:	c7a600f8 	lwc1	$f6,248(sp)
    9040:	8fb80174 	lw	t8,372(sp)
    9044:	4606e101 	sub.s	$f4,$f28,$f6
    9048:	e7040000 	swc1	$f4,0(t8)
    904c:	8fb90108 	lw	t9,264(sp)
    9050:	8fa80178 	lw	t0,376(sp)
    9054:	13200008 	beqz	t9,9078 <func_80108078+0x590>
    9058:	00000000 	nop
    905c:	ad100000 	sw	s0,0(t0)
    9060:	8faa017c 	lw	t2,380(sp)
    9064:	8fa90114 	lw	t1,276(sp)
    9068:	ad490000 	sw	t1,0(t2)
    906c:	8fac0180 	lw	t4,384(sp)
    9070:	8fab010c 	lw	t3,268(sp)
    9074:	ad8b0000 	sw	t3,0(t4)
    9078:	10000082 	b	9284 <func_80108078+0x79c>
    907c:	24020002 	li	v0,2
    9080:	52110031 	beql	s0,s1,9148 <func_80108078+0x660>
    9084:	8fb10128 	lw	s1,296(sp)
    9088:	c6200000 	lwc1	$f0,0(s1)
    908c:	c6100000 	lwc1	$f16,0(s0)
    9090:	46100032 	c.eq.s	$f0,$f16
    9094:	00000000 	nop
    9098:	45020014 	bc1fl	90ec <func_80108078+0x604>
    909c:	c632000c 	lwc1	$f18,12(s1)
    90a0:	c62a0004 	lwc1	$f10,4(s1)
    90a4:	c6120004 	lwc1	$f18,4(s0)
    90a8:	46125032 	c.eq.s	$f10,$f18
    90ac:	00000000 	nop
    90b0:	4502000e 	bc1fl	90ec <func_80108078+0x604>
    90b4:	c632000c 	lwc1	$f18,12(s1)
    90b8:	c6280008 	lwc1	$f8,8(s1)
    90bc:	c6060008 	lwc1	$f6,8(s0)
    90c0:	46064032 	c.eq.s	$f8,$f6
    90c4:	00000000 	nop
    90c8:	45020008 	bc1fl	90ec <func_80108078+0x604>
    90cc:	c632000c 	lwc1	$f18,12(s1)
    90d0:	c624000c 	lwc1	$f4,12(s1)
    90d4:	c60a000c 	lwc1	$f10,12(s0)
    90d8:	460a2032 	c.eq.s	$f4,$f10
    90dc:	00000000 	nop
    90e0:	45030019 	bc1tl	9148 <func_80108078+0x660>
    90e4:	8fb10128 	lw	s1,296(sp)
    90e8:	c632000c 	lwc1	$f18,12(s1)
    90ec:	c606000c 	lwc1	$f6,12(s0)
    90f0:	46009207 	neg.s	$f8,$f18
    90f4:	46064032 	c.eq.s	$f8,$f6
    90f8:	00000000 	nop
    90fc:	45020011 	bc1fl	9144 <func_80108078+0x65c>
    9100:	02209825 	move	s3,s1
    9104:	c60a0004 	lwc1	$f10,4(s0)
    9108:	c6320004 	lwc1	$f18,4(s1)
    910c:	3c01bf80 	lui	at,0xbf80
    9110:	44812000 	mtc1	at,$f4
    9114:	46125202 	mul.s	$f8,$f10,$f18
    9118:	c6120008 	lwc1	$f18,8(s0)
    911c:	46008182 	mul.s	$f6,$f16,$f0
    9120:	46083280 	add.s	$f10,$f6,$f8
    9124:	c6260008 	lwc1	$f6,8(s1)
    9128:	46069202 	mul.s	$f8,$f18,$f6
    912c:	46085480 	add.s	$f18,$f10,$f8
    9130:	46122032 	c.eq.s	$f4,$f18
    9134:	00000000 	nop
    9138:	45030003 	bc1tl	9148 <func_80108078+0x660>
    913c:	8fb10128 	lw	s1,296(sp)
    9140:	02209825 	move	s3,s1
    9144:	8fb10128 	lw	s1,296(sp)
    9148:	c6100000 	lwc1	$f16,0(s0)
    914c:	c6020008 	lwc1	$f2,8(s0)
    9150:	c60c000c 	lwc1	$f12,12(s0)
    9154:	1000feb1 	b	8c1c <func_80108078+0x134>
    9158:	c60e0004 	lwc1	$f14,4(s0)
    915c:	8eae0000 	lw	t6,0(s5)
    9160:	8ead0004 	lw	t5,4(s5)
    9164:	02009825 	move	s3,s0
    9168:	ae8e0000 	sw	t6,0(s4)
    916c:	8eae0008 	lw	t6,8(s5)
    9170:	ae8d0004 	sw	t5,4(s4)
    9174:	4600e701 	sub.s	$f28,$f28,$f0
    9178:	ae8e0008 	sw	t6,8(s4)
    917c:	8fb00128 	lw	s0,296(sp)
    9180:	8fb80118 	lw	t8,280(sp)
    9184:	8fb90110 	lw	t9,272(sp)
    9188:	afa80108 	sw	t0,264(sp)
    918c:	afb80114 	sw	t8,276(sp)
    9190:	afb9010c 	sw	t9,268(sp)
    9194:	02008825 	move	s1,s0
    9198:	c60e0004 	lwc1	$f14,4(s0)
    919c:	c60c000c 	lwc1	$f12,12(s0)
    91a0:	c6020008 	lwc1	$f2,8(s0)
    91a4:	1000fe9d 	b	8c1c <func_80108078+0x134>
    91a8:	c6100000 	lwc1	$f16,0(s0)
    91ac:	c7a60138 	lwc1	$f6,312(sp)
    91b0:	c7aa0144 	lwc1	$f10,324(sp)
    91b4:	c7a8013c 	lwc1	$f8,316(sp)
    91b8:	c7a40148 	lwc1	$f4,328(sp)
    91bc:	460a3001 	sub.s	$f0,$f6,$f10
    91c0:	c7a6014c 	lwc1	$f6,332(sp)
    91c4:	c7b20140 	lwc1	$f18,320(sp)
    91c8:	46044581 	sub.s	$f22,$f8,$f4
    91cc:	46000282 	mul.s	$f10,$f0,$f0
    91d0:	46000506 	mov.s	$f20,$f0
    91d4:	46069601 	sub.s	$f24,$f18,$f6
    91d8:	4616b202 	mul.s	$f8,$f22,$f22
    91dc:	46085100 	add.s	$f4,$f10,$f8
    91e0:	4618c482 	mul.s	$f18,$f24,$f24
    91e4:	0c000000 	jal	0 <func_800FF5E0_ovl2>
    91e8:	46122300 	add.s	$f12,$f4,$f18
    91ec:	4600e03e 	c.le.s	$f28,$f0
    91f0:	8fa30170 	lw	v1,368(sp)
    91f4:	27a90138 	addiu	t1,sp,312
    91f8:	00001025 	move	v0,zero
    91fc:	45020011 	bc1fl	9244 <func_80108078+0x75c>
    9200:	8d2b0000 	lw	t3,0(t1)
    9204:	4600e083 	div.s	$f2,$f28,$f0
    9208:	c7aa0144 	lwc1	$f10,324(sp)
    920c:	8fa30170 	lw	v1,368(sp)
    9210:	4602a182 	mul.s	$f6,$f20,$f2
    9214:	460a3200 	add.s	$f8,$f6,$f10
    9218:	4602b102 	mul.s	$f4,$f22,$f2
    921c:	e4680000 	swc1	$f8,0(v1)
    9220:	c7b20148 	lwc1	$f18,328(sp)
    9224:	4602c282 	mul.s	$f10,$f24,$f2
    9228:	46122180 	add.s	$f6,$f4,$f18
    922c:	e4660004 	swc1	$f6,4(v1)
    9230:	c7a8014c 	lwc1	$f8,332(sp)
    9234:	46085100 	add.s	$f4,$f10,$f8
    9238:	10000007 	b	9258 <func_80108078+0x770>
    923c:	e4640008 	swc1	$f4,8(v1)
    9240:	8d2b0000 	lw	t3,0(t1)
    9244:	ac6b0000 	sw	t3,0(v1)
    9248:	8d2a0004 	lw	t2,4(t1)
    924c:	ac6a0004 	sw	t2,4(v1)
    9250:	8d2b0008 	lw	t3,8(t1)
    9254:	ac6b0008 	sw	t3,8(v1)
    9258:	8fac0108 	lw	t4,264(sp)
    925c:	8fad0178 	lw	t5,376(sp)
    9260:	11800008 	beqz	t4,9284 <func_80108078+0x79c>
    9264:	00000000 	nop
    9268:	adb00000 	sw	s0,0(t5)
    926c:	8faf017c 	lw	t7,380(sp)
    9270:	8fae0114 	lw	t6,276(sp)
    9274:	adee0000 	sw	t6,0(t7)
    9278:	8fb90180 	lw	t9,384(sp)
    927c:	8fb8010c 	lw	t8,268(sp)
    9280:	af380000 	sw	t8,0(t9)
    9284:	8fbf007c 	lw	ra,124(sp)
    9288:	d7b40028 	ldc1	$f20,40(sp)
    928c:	d7b60030 	ldc1	$f22,48(sp)
    9290:	d7b80038 	ldc1	$f24,56(sp)
    9294:	d7ba0040 	ldc1	$f26,64(sp)
    9298:	d7bc0048 	ldc1	$f28,72(sp)
    929c:	d7be0050 	ldc1	$f30,80(sp)
    92a0:	8fb0005c 	lw	s0,92(sp)
    92a4:	8fb10060 	lw	s1,96(sp)
    92a8:	8fb20064 	lw	s2,100(sp)
    92ac:	8fb30068 	lw	s3,104(sp)
    92b0:	8fb4006c 	lw	s4,108(sp)
    92b4:	8fb50070 	lw	s5,112(sp)
    92b8:	8fb60074 	lw	s6,116(sp)
    92bc:	8fb70078 	lw	s7,120(sp)
    92c0:	03e00008 	jr	ra
    92c4:	27bd0160 	addiu	sp,sp,352

000092c8 <func_80108858>:
func_80108858():
    92c8:	27bdfec8 	addiu	sp,sp,-312
    92cc:	afbf007c 	sw	ra,124(sp)
    92d0:	afb60078 	sw	s6,120(sp)
    92d4:	afb50074 	sw	s5,116(sp)
    92d8:	afb40070 	sw	s4,112(sp)
    92dc:	afb3006c 	sw	s3,108(sp)
    92e0:	afb20068 	sw	s2,104(sp)
    92e4:	afb10064 	sw	s1,100(sp)
    92e8:	afb00060 	sw	s0,96(sp)
    92ec:	f7be0058 	sdc1	$f30,88(sp)
    92f0:	f7bc0050 	sdc1	$f28,80(sp)
    92f4:	f7ba0048 	sdc1	$f26,72(sp)
    92f8:	f7b80040 	sdc1	$f24,64(sp)
    92fc:	f7b60038 	sdc1	$f22,56(sp)
    9300:	f7b40030 	sdc1	$f20,48(sp)
    9304:	afa70144 	sw	a3,324(sp)
    9308:	c4860000 	lwc1	$f6,0(a0)
    930c:	c4a40000 	lwc1	$f4,0(a1)
    9310:	c48a0004 	lwc1	$f10,4(a0)
    9314:	c4a80004 	lwc1	$f8,4(a1)
    9318:	46062001 	sub.s	$f0,$f4,$f6
    931c:	c4840008 	lwc1	$f4,8(a0)
    9320:	c4b20008 	lwc1	$f18,8(a1)
    9324:	460a4081 	sub.s	$f2,$f8,$f10
    9328:	46000182 	mul.s	$f6,$f0,$f0
    932c:	00a09025 	move	s2,a1
    9330:	46049381 	sub.s	$f14,$f18,$f4
    9334:	46021202 	mul.s	$f8,$f2,$f2
    9338:	00c0a825 	move	s5,a2
    933c:	afa40138 	sw	a0,312(sp)
    9340:	460e7482 	mul.s	$f18,$f14,$f14
    9344:	46083280 	add.s	$f10,$f6,$f8
    9348:	0c000000 	jal	0 <func_800FF5E0_ovl2>
    934c:	46125300 	add.s	$f12,$f10,$f18
    9350:	4480d000 	mtc1	zero,$f26
    9354:	8fa40138 	lw	a0,312(sp)
    9358:	46000786 	mov.s	$f30,$f0
    935c:	461a0032 	c.eq.s	$f0,$f26
    9360:	00000000 	nop
    9364:	45020004 	bc1fl	9378 <func_80108858+0xb0>
    9368:	8c8f0000 	lw	t7,0(a0)
    936c:	10000132 	b	9838 <func_80108858+0x570>
    9370:	00001025 	move	v0,zero
    9374:	8c8f0000 	lw	t7,0(a0)
    9378:	27b4011c 	addiu	s4,sp,284
    937c:	27a50110 	addiu	a1,sp,272
    9380:	ae8f0000 	sw	t7,0(s4)
    9384:	8c8e0004 	lw	t6,4(a0)
    9388:	3c013f80 	lui	at,0x3f80
    938c:	02a08825 	move	s1,s5
    9390:	ae8e0004 	sw	t6,4(s4)
    9394:	8c8f0008 	lw	t7,8(a0)
    9398:	02a09825 	move	s3,s5
    939c:	02a08025 	move	s0,s5
    93a0:	ae8f0008 	sw	t7,8(s4)
    93a4:	8e590000 	lw	t9,0(s2)
    93a8:	4481e000 	mtc1	at,$f28
    93ac:	27b600d8 	addiu	s6,sp,216
    93b0:	acb90000 	sw	t9,0(a1)
    93b4:	8e580004 	lw	t8,4(s2)
    93b8:	acb80004 	sw	t8,4(a1)
    93bc:	8e590008 	lw	t9,8(s2)
    93c0:	acb90008 	sw	t9,8(a1)
    93c4:	c6ae0004 	lwc1	$f14,4(s5)
    93c8:	c6ac000c 	lwc1	$f12,12(s5)
    93cc:	c6a20008 	lwc1	$f2,8(s5)
    93d0:	c6b00000 	lwc1	$f16,0(s5)
    93d4:	27b50104 	addiu	s5,sp,260
    93d8:	c7a40110 	lwc1	$f4,272(sp)
    93dc:	c7a80118 	lwc1	$f8,280(sp)
    93e0:	27a80100 	addiu	t0,sp,256
    93e4:	46048182 	mul.s	$f6,$f16,$f4
    93e8:	afa80018 	sw	t0,24(sp)
    93ec:	02802025 	move	a0,s4
    93f0:	46081282 	mul.s	$f10,$f2,$f8
    93f4:	02203025 	move	a2,s1
    93f8:	02603825 	move	a3,s3
    93fc:	afa00010 	sw	zero,16(sp)
    9400:	afb50014 	sw	s5,20(sp)
    9404:	afa0001c 	sw	zero,28(sp)
    9408:	afa00020 	sw	zero,32(sp)
    940c:	460a3480 	add.s	$f18,$f6,$f10
    9410:	460c9100 	add.s	$f4,$f18,$f12
    9414:	46002207 	neg.s	$f8,$f4
    9418:	460e4183 	div.s	$f6,$f8,$f14
    941c:	0c000000 	jal	0 <func_800FF5E0_ovl2>
    9420:	e7a60114 	swc1	$f6,276(sp)
    9424:	10400103 	beqz	v0,9834 <func_80108858+0x56c>
    9428:	c7aa0104 	lwc1	$f10,260(sp)
    942c:	c7b2011c 	lwc1	$f18,284(sp)
    9430:	c7b00108 	lwc1	$f16,264(sp)
    9434:	c7a40120 	lwc1	$f4,288(sp)
    9438:	46125001 	sub.s	$f0,$f10,$f18
    943c:	c7a8010c 	lwc1	$f8,268(sp)
    9440:	c7a60124 	lwc1	$f6,292(sp)
    9444:	46048081 	sub.s	$f2,$f16,$f4
    9448:	46000282 	mul.s	$f10,$f0,$f0
    944c:	46064381 	sub.s	$f14,$f8,$f6
    9450:	46021482 	mul.s	$f18,$f2,$f2
    9454:	46125100 	add.s	$f4,$f10,$f18
    9458:	460e7202 	mul.s	$f8,$f14,$f14
    945c:	0c000000 	jal	0 <func_800FF5E0_ovl2>
    9460:	46082300 	add.s	$f12,$f4,$f8
    9464:	4600f03e 	c.le.s	$f30,$f0
    9468:	8fa90100 	lw	t1,256(sp)
    946c:	3c013f00 	lui	at,0x3f00
    9470:	c7aa0110 	lwc1	$f10,272(sp)
    9474:	45000003 	bc1f	9484 <func_80108858+0x1bc>
    9478:	c7b2011c 	lwc1	$f18,284(sp)
    947c:	100000ee 	b	9838 <func_80108858+0x570>
    9480:	00001025 	move	v0,zero
    9484:	c52c0004 	lwc1	$f12,4(t1)
    9488:	44813000 	mtc1	at,$f6
    948c:	c7a40114 	lwc1	$f4,276(sp)
    9490:	461a603c 	c.lt.s	$f12,$f26
    9494:	c7a80120 	lwc1	$f8,288(sp)
    9498:	45020004 	bc1fl	94ac <func_80108858+0x1e4>
    949c:	46006086 	mov.s	$f2,$f12
    94a0:	10000002 	b	94ac <func_80108858+0x1e4>
    94a4:	46006087 	neg.s	$f2,$f12
    94a8:	46006086 	mov.s	$f2,$f12
    94ac:	4606103e 	c.le.s	$f2,$f6
    94b0:	00000000 	nop
    94b4:	450200d0 	bc1fl	97f8 <func_80108858+0x530>
    94b8:	8eb90000 	lw	t9,0(s5)
    94bc:	46125001 	sub.s	$f0,$f10,$f18
    94c0:	c7aa0124 	lwc1	$f10,292(sp)
    94c4:	c7a60118 	lwc1	$f6,280(sp)
    94c8:	46082601 	sub.s	$f24,$f4,$f8
    94cc:	46000482 	mul.s	$f18,$f0,$f0
    94d0:	8e8b0000 	lw	t3,0(s4)
    94d4:	460a3581 	sub.s	$f22,$f6,$f10
    94d8:	4618c102 	mul.s	$f4,$f24,$f24
    94dc:	aecb0000 	sw	t3,0(s6)
    94e0:	8e8b0008 	lw	t3,8(s4)
    94e4:	4616b182 	mul.s	$f6,$f22,$f22
    94e8:	8e8a0004 	lw	t2,4(s4)
    94ec:	46000506 	mov.s	$f20,$f0
    94f0:	aecb0008 	sw	t3,8(s6)
    94f4:	aeca0004 	sw	t2,4(s6)
    94f8:	46049200 	add.s	$f8,$f18,$f4
    94fc:	0c000000 	jal	0 <func_800FF5E0_ovl2>
    9500:	46064300 	add.s	$f12,$f8,$f6
    9504:	3c014120 	lui	at,0x4120
    9508:	44815000 	mtc1	at,$f10
    950c:	c7a40104 	lwc1	$f4,260(sp)
    9510:	c7b00108 	lwc1	$f16,264(sp)
    9514:	46005083 	div.s	$f2,$f10,$f0
    9518:	c7ae0144 	lwc1	$f14,324(sp)
    951c:	27ac00c4 	addiu	t4,sp,196
    9520:	afac0014 	sw	t4,20(sp)
    9524:	02c02025 	move	a0,s6
    9528:	27a500cc 	addiu	a1,sp,204
    952c:	00003025 	move	a2,zero
    9530:	00003825 	move	a3,zero
    9534:	afa00010 	sw	zero,16(sp)
    9538:	afa00018 	sw	zero,24(sp)
    953c:	afa0001c 	sw	zero,28(sp)
    9540:	4602a482 	mul.s	$f18,$f20,$f2
    9544:	46049200 	add.s	$f8,$f18,$f4
    9548:	4602c182 	mul.s	$f6,$f24,$f2
    954c:	c7b2010c 	lwc1	$f18,268(sp)
    9550:	4602b282 	mul.s	$f10,$f22,$f2
    9554:	e7a800cc 	swc1	$f8,204(sp)
    9558:	c7a800dc 	lwc1	$f8,220(sp)
    955c:	46103300 	add.s	$f12,$f6,$f16
    9560:	46125100 	add.s	$f4,$f10,$f18
    9564:	460e6300 	add.s	$f12,$f12,$f14
    9568:	e7a400d4 	swc1	$f4,212(sp)
    956c:	460e4180 	add.s	$f6,$f8,$f14
    9570:	e7ac00d0 	swc1	$f12,208(sp)
    9574:	0c000000 	jal	0 <func_800FF5E0_ovl2>
    9578:	e7a600dc 	swc1	$f6,220(sp)
    957c:	1040001c 	beqz	v0,95f0 <func_80108858+0x328>
    9580:	8fad00c4 	lw	t5,196(sp)
    9584:	c5aa0000 	lwc1	$f10,0(t5)
    9588:	c7b20104 	lwc1	$f18,260(sp)
    958c:	c5a80004 	lwc1	$f8,4(t5)
    9590:	c7a60108 	lwc1	$f6,264(sp)
    9594:	46125102 	mul.s	$f4,$f10,$f18
    9598:	00000000 	nop
    959c:	46064282 	mul.s	$f10,$f8,$f6
    95a0:	c7a6010c 	lwc1	$f6,268(sp)
    95a4:	c5a80008 	lwc1	$f8,8(t5)
    95a8:	460a2480 	add.s	$f18,$f4,$f10
    95ac:	46064102 	mul.s	$f4,$f8,$f6
    95b0:	c5a8000c 	lwc1	$f8,12(t5)
    95b4:	46049280 	add.s	$f10,$f18,$f4
    95b8:	46085000 	add.s	$f0,$f10,$f8
    95bc:	461a003c 	c.lt.s	$f0,$f26
    95c0:	00000000 	nop
    95c4:	45000003 	bc1f	95d4 <func_80108858+0x30c>
    95c8:	00000000 	nop
    95cc:	10000002 	b	95d8 <func_80108858+0x310>
    95d0:	46000087 	neg.s	$f2,$f0
    95d4:	46000086 	mov.s	$f2,$f0
    95d8:	461c103c 	c.lt.s	$f2,$f28
    95dc:	00000000 	nop
    95e0:	45000003 	bc1f	95f0 <func_80108858+0x328>
    95e4:	00000000 	nop
    95e8:	10000093 	b	9838 <func_80108858+0x570>
    95ec:	24020001 	li	v0,1
    95f0:	4614a182 	mul.s	$f6,$f20,$f20
    95f4:	00009025 	move	s2,zero
    95f8:	4616b482 	mul.s	$f18,$f22,$f22
    95fc:	0c000000 	jal	0 <func_800FF5E0_ovl2>
    9600:	46123300 	add.s	$f12,$f6,$f18
    9604:	c7a40144 	lwc1	$f4,324(sp)
    9608:	4600e083 	div.s	$f2,$f28,$f0
    960c:	c7b00108 	lwc1	$f16,264(sp)
    9610:	3c01c120 	lui	at,0xc120
    9614:	c7a80104 	lwc1	$f8,260(sp)
    9618:	4604d03c 	c.lt.s	$f26,$f4
    961c:	27a400b4 	addiu	a0,sp,180
    9620:	27a500a8 	addiu	a1,sp,168
    9624:	00003025 	move	a2,zero
    9628:	45000005 	bc1f	9640 <func_80108858+0x378>
    962c:	00003825 	move	a3,zero
    9630:	3c014120 	lui	at,0x4120
    9634:	44810000 	mtc1	at,$f0
    9638:	10000003 	b	9648 <func_80108858+0x380>
    963c:	00000000 	nop
    9640:	44810000 	mtc1	at,$f0
    9644:	00000000 	nop
    9648:	4602a282 	mul.s	$f10,$f20,$f2
    964c:	c7a4010c 	lwc1	$f4,268(sp)
    9650:	46008180 	add.s	$f6,$f16,$f0
    9654:	4602b482 	mul.s	$f18,$f22,$f2
    9658:	27ae009c 	addiu	t6,sp,156
    965c:	afae0014 	sw	t6,20(sp)
    9660:	e7a600b8 	swc1	$f6,184(sp)
    9664:	afa00010 	sw	zero,16(sp)
    9668:	46085300 	add.s	$f12,$f10,$f8
    966c:	afa00018 	sw	zero,24(sp)
    9670:	afa0001c 	sw	zero,28(sp)
    9674:	46049380 	add.s	$f14,$f18,$f4
    9678:	e7ac00a8 	swc1	$f12,168(sp)
    967c:	e7ac00b4 	swc1	$f12,180(sp)
    9680:	46008281 	sub.s	$f10,$f16,$f0
    9684:	e7ae00b0 	swc1	$f14,176(sp)
    9688:	e7ae00bc 	swc1	$f14,188(sp)
    968c:	0c000000 	jal	0 <func_800FF5E0_ovl2>
    9690:	e7aa00ac 	swc1	$f10,172(sp)
    9694:	1040001c 	beqz	v0,9708 <func_80108858+0x440>
    9698:	27a50110 	addiu	a1,sp,272
    969c:	8faf009c 	lw	t7,156(sp)
    96a0:	c7a60104 	lwc1	$f6,260(sp)
    96a4:	c7aa0108 	lwc1	$f10,264(sp)
    96a8:	c5e80000 	lwc1	$f8,0(t7)
    96ac:	c5e40004 	lwc1	$f4,4(t7)
    96b0:	46064482 	mul.s	$f18,$f8,$f6
    96b4:	00000000 	nop
    96b8:	460a2202 	mul.s	$f8,$f4,$f10
    96bc:	c7aa010c 	lwc1	$f10,268(sp)
    96c0:	c5e40008 	lwc1	$f4,8(t7)
    96c4:	46089180 	add.s	$f6,$f18,$f8
    96c8:	460a2482 	mul.s	$f18,$f4,$f10
    96cc:	c5e4000c 	lwc1	$f4,12(t7)
    96d0:	46123200 	add.s	$f8,$f6,$f18
    96d4:	46044000 	add.s	$f0,$f8,$f4
    96d8:	461a003c 	c.lt.s	$f0,$f26
    96dc:	00000000 	nop
    96e0:	45000003 	bc1f	96f0 <func_80108858+0x428>
    96e4:	00000000 	nop
    96e8:	10000002 	b	96f4 <func_80108858+0x42c>
    96ec:	46000087 	neg.s	$f2,$f0
    96f0:	46000086 	mov.s	$f2,$f0
    96f4:	461c103c 	c.lt.s	$f2,$f28
    96f8:	00000000 	nop
    96fc:	45000002 	bc1f	9708 <func_80108858+0x440>
    9700:	00000000 	nop
    9704:	24120001 	li	s2,1
    9708:	16400003 	bnez	s2,9718 <func_80108858+0x450>
    970c:	00000000 	nop
    9710:	10000049 	b	9838 <func_80108858+0x570>
    9714:	24020002 	li	v0,2
    9718:	52110031 	beql	s0,s1,97e0 <func_80108858+0x518>
    971c:	8fb10100 	lw	s1,256(sp)
    9720:	c6200000 	lwc1	$f0,0(s1)
    9724:	c6100000 	lwc1	$f16,0(s0)
    9728:	46100032 	c.eq.s	$f0,$f16
    972c:	00000000 	nop
    9730:	45020014 	bc1fl	9784 <func_80108858+0x4bc>
    9734:	c626000c 	lwc1	$f6,12(s1)
    9738:	c62a0004 	lwc1	$f10,4(s1)
    973c:	c6060004 	lwc1	$f6,4(s0)
    9740:	46065032 	c.eq.s	$f10,$f6
    9744:	00000000 	nop
    9748:	4502000e 	bc1fl	9784 <func_80108858+0x4bc>
    974c:	c626000c 	lwc1	$f6,12(s1)
    9750:	c6320008 	lwc1	$f18,8(s1)
    9754:	c6080008 	lwc1	$f8,8(s0)
    9758:	46089032 	c.eq.s	$f18,$f8
    975c:	00000000 	nop
    9760:	45020008 	bc1fl	9784 <func_80108858+0x4bc>
    9764:	c626000c 	lwc1	$f6,12(s1)
    9768:	c624000c 	lwc1	$f4,12(s1)
    976c:	c60a000c 	lwc1	$f10,12(s0)
    9770:	460a2032 	c.eq.s	$f4,$f10
    9774:	00000000 	nop
    9778:	45030019 	bc1tl	97e0 <func_80108858+0x518>
    977c:	8fb10100 	lw	s1,256(sp)
    9780:	c626000c 	lwc1	$f6,12(s1)
    9784:	c608000c 	lwc1	$f8,12(s0)
    9788:	46003487 	neg.s	$f18,$f6
    978c:	46089032 	c.eq.s	$f18,$f8
    9790:	00000000 	nop
    9794:	45020011 	bc1fl	97dc <func_80108858+0x514>
    9798:	02209825 	move	s3,s1
    979c:	c60a0004 	lwc1	$f10,4(s0)
    97a0:	c6260004 	lwc1	$f6,4(s1)
    97a4:	3c01bf80 	lui	at,0xbf80
    97a8:	44812000 	mtc1	at,$f4
    97ac:	46065482 	mul.s	$f18,$f10,$f6
    97b0:	c6060008 	lwc1	$f6,8(s0)
    97b4:	46008202 	mul.s	$f8,$f16,$f0
    97b8:	46124280 	add.s	$f10,$f8,$f18
    97bc:	c6280008 	lwc1	$f8,8(s1)
    97c0:	46083482 	mul.s	$f18,$f6,$f8
    97c4:	46125180 	add.s	$f6,$f10,$f18
    97c8:	46062032 	c.eq.s	$f4,$f6
    97cc:	00000000 	nop
    97d0:	45030003 	bc1tl	97e0 <func_80108858+0x518>
    97d4:	8fb10100 	lw	s1,256(sp)
    97d8:	02209825 	move	s3,s1
    97dc:	8fb10100 	lw	s1,256(sp)
    97e0:	c6100000 	lwc1	$f16,0(s0)
    97e4:	c6020008 	lwc1	$f2,8(s0)
    97e8:	c60c000c 	lwc1	$f12,12(s0)
    97ec:	1000fefa 	b	93d8 <func_80108858+0x110>
    97f0:	c60e0004 	lwc1	$f14,4(s0)
    97f4:	8eb90000 	lw	t9,0(s5)
    97f8:	8eb80004 	lw	t8,4(s5)
    97fc:	02009825 	move	s3,s0
    9800:	ae990000 	sw	t9,0(s4)
    9804:	8eb90008 	lw	t9,8(s5)
    9808:	ae980004 	sw	t8,4(s4)
    980c:	4600f781 	sub.s	$f30,$f30,$f0
    9810:	ae990008 	sw	t9,8(s4)
    9814:	8fb00100 	lw	s0,256(sp)
    9818:	02008825 	move	s1,s0
    981c:	c6100000 	lwc1	$f16,0(s0)
    9820:	c6020008 	lwc1	$f2,8(s0)
    9824:	c60c000c 	lwc1	$f12,12(s0)
    9828:	c60e0004 	lwc1	$f14,4(s0)
    982c:	1000feea 	b	93d8 <func_80108858+0x110>
    9830:	27a50110 	addiu	a1,sp,272
    9834:	00001025 	move	v0,zero
    9838:	8fbf007c 	lw	ra,124(sp)
    983c:	d7b40030 	ldc1	$f20,48(sp)
    9840:	d7b60038 	ldc1	$f22,56(sp)
    9844:	d7b80040 	ldc1	$f24,64(sp)
    9848:	d7ba0048 	ldc1	$f26,72(sp)
    984c:	d7bc0050 	ldc1	$f28,80(sp)
    9850:	d7be0058 	ldc1	$f30,88(sp)
    9854:	8fb00060 	lw	s0,96(sp)
    9858:	8fb10064 	lw	s1,100(sp)
    985c:	8fb20068 	lw	s2,104(sp)
    9860:	8fb3006c 	lw	s3,108(sp)
    9864:	8fb40070 	lw	s4,112(sp)
    9868:	8fb50074 	lw	s5,116(sp)
    986c:	8fb60078 	lw	s6,120(sp)
    9870:	03e00008 	jr	ra
    9874:	27bd0138 	addiu	sp,sp,312

00009878 <func_80108E08>:
func_80108E08():
    9878:	27bdff48 	addiu	sp,sp,-184
    987c:	afbf0034 	sw	ra,52(sp)
    9880:	afb10030 	sw	s1,48(sp)
    9884:	afb0002c 	sw	s0,44(sp)
    9888:	8caa000c 	lw	t2,12(a1)
    988c:	27ae00a4 	addiu	t6,sp,164
    9890:	27ac0080 	addiu	t4,sp,128
    9894:	afaa00b4 	sw	t2,180(sp)
    9898:	8cab0008 	lw	t3,8(a1)
    989c:	00808825 	move	s1,a0
    98a0:	00a08025 	move	s0,a1
    98a4:	afab00b0 	sw	t3,176(sp)
    98a8:	8cad0004 	lw	t5,4(a1)
    98ac:	24080001 	li	t0,1
    98b0:	3c073f80 	lui	a3,0x3f80
    98b4:	afad007c 	sw	t5,124(sp)
    98b8:	c48a0004 	lwc1	$f10,4(a0)
    98bc:	27ad0098 	addiu	t5,sp,152
    98c0:	e7aa00a4 	swc1	$f10,164(sp)
    98c4:	c4880018 	lwc1	$f8,24(a0)
    98c8:	c4860008 	lwc1	$f6,8(a0)
    98cc:	46083480 	add.s	$f18,$f6,$f8
    98d0:	e7b200a8 	swc1	$f18,168(sp)
    98d4:	c484000c 	lwc1	$f4,12(a0)
    98d8:	3c040000 	lui	a0,0x0
    98dc:	24840000 	addiu	a0,a0,0
    98e0:	e7a400ac 	swc1	$f4,172(sp)
    98e4:	8dc90000 	lw	t1,0(t6)
    98e8:	ad890000 	sw	t1,0(t4)
    98ec:	8dcf0004 	lw	t7,4(t6)
    98f0:	ad8f0004 	sw	t7,4(t4)
    98f4:	8dc90008 	lw	t1,8(t6)
    98f8:	27ae00b4 	addiu	t6,sp,180
    98fc:	27af00b0 	addiu	t7,sp,176
    9900:	ad890008 	sw	t1,8(t4)
    9904:	8cb80000 	lw	t8,0(a1)
    9908:	27a50080 	addiu	a1,sp,128
    990c:	27a9007c 	addiu	t1,sp,124
    9910:	0018ccc2 	srl	t9,t8,0x13
    9914:	332a0200 	andi	t2,t9,0x200
    9918:	15400015 	bnez	t2,9970 <func_80108E08+0xf8>
    991c:	27ac0074 	addiu	t4,sp,116
    9920:	8fab00b4 	lw	t3,180(sp)
    9924:	c7a600a4 	lwc1	$f6,164(sp)
    9928:	c7a400ac 	lwc1	$f4,172(sp)
    992c:	c56a0000 	lwc1	$f10,0(t3)
    9930:	c5720008 	lwc1	$f18,8(t3)
    9934:	46065202 	mul.s	$f8,$f10,$f6
    9938:	00000000 	nop
    993c:	46049282 	mul.s	$f10,$f18,$f4
    9940:	c572000c 	lwc1	$f18,12(t3)
    9944:	460a4180 	add.s	$f6,$f8,$f10
    9948:	c56a0004 	lwc1	$f10,4(t3)
    994c:	46123100 	add.s	$f4,$f6,$f18
    9950:	c7a600a8 	lwc1	$f6,168(sp)
    9954:	46002207 	neg.s	$f8,$f4
    9958:	460a4003 	div.s	$f0,$f8,$f10
    995c:	4600303c 	c.lt.s	$f6,$f0
    9960:	00000000 	nop
    9964:	45000002 	bc1f	9970 <func_80108E08+0xf8>
    9968:	00000000 	nop
    996c:	e7a00084 	swc1	$f0,132(sp)
    9970:	8e06000c 	lw	a2,12(s0)
    9974:	afa80078 	sw	t0,120(sp)
    9978:	afa90020 	sw	t1,32(sp)
    997c:	afaf001c 	sw	t7,28(sp)
    9980:	afae0018 	sw	t6,24(sp)
    9984:	afac0014 	sw	t4,20(sp)
    9988:	0c000000 	jal	0 <func_800FF5E0_ovl2>
    998c:	afad0010 	sw	t5,16(sp)
    9990:	27a30098 	addiu	v1,sp,152
    9994:	10400008 	beqz	v0,99b8 <func_80108E08+0x140>
    9998:	8fa80078 	lw	t0,120(sp)
    999c:	24010001 	li	at,1
    99a0:	10410026 	beq	v0,at,9a3c <func_80108E08+0x1c4>
    99a4:	24010002 	li	at,2
    99a8:	10410035 	beq	v0,at,9a80 <func_80108E08+0x208>
    99ac:	00000000 	nop
    99b0:	100000a9 	b	9c58 <func_80108E08+0x3e0>
    99b4:	8fae00b4 	lw	t6,180(sp)
    99b8:	c7b2009c 	lwc1	$f18,156(sp)
    99bc:	c7a400a8 	lwc1	$f4,168(sp)
    99c0:	4604903c 	c.lt.s	$f18,$f4
    99c4:	00000000 	nop
    99c8:	4502000c 	bc1fl	99fc <func_80108E08+0x184>
    99cc:	8c6a0000 	lw	t2,0(v1)
    99d0:	8e180000 	lw	t8,0(s0)
    99d4:	960e0000 	lhu	t6,0(s0)
    99d8:	00001025 	move	v0,zero
    99dc:	0018ccc2 	srl	t9,t8,0x13
    99e0:	332bf1ff 	andi	t3,t9,0xf1ff
    99e4:	000b60c0 	sll	t4,t3,0x3
    99e8:	31cf0007 	andi	t7,t6,0x7
    99ec:	018f4825 	or	t1,t4,t7
    99f0:	100000aa 	b	9c9c <func_80108E08+0x424>
    99f4:	a6090000 	sh	t1,0(s0)
    99f8:	8c6a0000 	lw	t2,0(v1)
    99fc:	27b8008c 	addiu	t8,sp,140
    9a00:	af0a0000 	sw	t2,0(t8)
    9a04:	8c790004 	lw	t9,4(v1)
    9a08:	af190004 	sw	t9,4(t8)
    9a0c:	8c6a0008 	lw	t2,8(v1)
    9a10:	af0a0008 	sw	t2,8(t8)
    9a14:	8e0b0000 	lw	t3,0(s0)
    9a18:	96190000 	lhu	t9,0(s0)
    9a1c:	000b6cc2 	srl	t5,t3,0x13
    9a20:	31aef1ff 	andi	t6,t5,0xf1ff
    9a24:	35cf0200 	ori	t7,t6,0x200
    9a28:	000fc0c0 	sll	t8,t7,0x3
    9a2c:	332a0007 	andi	t2,t9,0x7
    9a30:	030a5825 	or	t3,t8,t2
    9a34:	10000087 	b	9c54 <func_80108E08+0x3dc>
    9a38:	a60b0000 	sh	t3,0(s0)
    9a3c:	8c6c0000 	lw	t4,0(v1)
    9a40:	27ad008c 	addiu	t5,sp,140
    9a44:	adac0000 	sw	t4,0(t5)
    9a48:	8c6e0004 	lw	t6,4(v1)
    9a4c:	adae0004 	sw	t6,4(t5)
    9a50:	8c6c0008 	lw	t4,8(v1)
    9a54:	adac0008 	sw	t4,8(t5)
    9a58:	8e0f0000 	lw	t7,0(s0)
    9a5c:	960e0000 	lhu	t6,0(s0)
    9a60:	000f4cc2 	srl	t1,t7,0x13
    9a64:	3139f1ff 	andi	t9,t1,0xf1ff
    9a68:	372a0200 	ori	t2,t9,0x200
    9a6c:	000a68c0 	sll	t5,t2,0x3
    9a70:	31cc0007 	andi	t4,t6,0x7
    9a74:	01ac7825 	or	t7,t5,t4
    9a78:	10000076 	b	9c54 <func_80108E08+0x3dc>
    9a7c:	a60f0000 	sh	t7,0(s0)
    9a80:	3c020000 	lui	v0,0x0
    9a84:	24420000 	addiu	v0,v0,0
    9a88:	c44a0034 	lwc1	$f10,52(v0)
    9a8c:	c7a800a4 	lwc1	$f8,164(sp)
    9a90:	c4520038 	lwc1	$f18,56(v0)
    9a94:	c7a600a8 	lwc1	$f6,168(sp)
    9a98:	460a4081 	sub.s	$f2,$f8,$f10
    9a9c:	c448003c 	lwc1	$f8,60(v0)
    9aa0:	c7a400ac 	lwc1	$f4,172(sp)
    9aa4:	46123381 	sub.s	$f14,$f6,$f18
    9aa8:	46021282 	mul.s	$f10,$f2,$f2
    9aac:	e7a20064 	swc1	$f2,100(sp)
    9ab0:	46082401 	sub.s	$f16,$f4,$f8
    9ab4:	460e7182 	mul.s	$f6,$f14,$f14
    9ab8:	e7ae0068 	swc1	$f14,104(sp)
    9abc:	afa80078 	sw	t0,120(sp)
    9ac0:	46108102 	mul.s	$f4,$f16,$f16
    9ac4:	e7b0006c 	swc1	$f16,108(sp)
    9ac8:	46065480 	add.s	$f18,$f10,$f6
    9acc:	0c000000 	jal	0 <func_800FF5E0_ovl2>
    9ad0:	46049300 	add.s	$f12,$f18,$f4
    9ad4:	c7a80074 	lwc1	$f8,116(sp)
    9ad8:	c7a20064 	lwc1	$f2,100(sp)
    9adc:	c7ae0068 	lwc1	$f14,104(sp)
    9ae0:	46004283 	div.s	$f10,$f8,$f0
    9ae4:	c7b20098 	lwc1	$f18,152(sp)
    9ae8:	c7b0006c 	lwc1	$f16,108(sp)
    9aec:	8fa900b4 	lw	t1,180(sp)
    9af0:	8fb800b4 	lw	t8,180(sp)
    9af4:	3c020000 	lui	v0,0x0
    9af8:	24420000 	addiu	v0,v0,0
    9afc:	8fa80078 	lw	t0,120(sp)
    9b00:	460a1182 	mul.s	$f6,$f2,$f10
    9b04:	e7aa0074 	swc1	$f10,116(sp)
    9b08:	460a7202 	mul.s	$f8,$f14,$f10
    9b0c:	46123100 	add.s	$f4,$f6,$f18
    9b10:	c7a6009c 	lwc1	$f6,156(sp)
    9b14:	46064200 	add.s	$f8,$f8,$f6
    9b18:	460a8182 	mul.s	$f6,$f16,$f10
    9b1c:	c7aa00a0 	lwc1	$f10,160(sp)
    9b20:	e7a4008c 	swc1	$f4,140(sp)
    9b24:	e7a80090 	swc1	$f8,144(sp)
    9b28:	460a3180 	add.s	$f6,$f6,$f10
    9b2c:	e7a60094 	swc1	$f6,148(sp)
    9b30:	c5260000 	lwc1	$f6,0(t1)
    9b34:	e7b20038 	swc1	$f18,56(sp)
    9b38:	c5320008 	lwc1	$f18,8(t1)
    9b3c:	e7a8003c 	swc1	$f8,60(sp)
    9b40:	46043182 	mul.s	$f6,$f6,$f4
    9b44:	c7a80094 	lwc1	$f8,148(sp)
    9b48:	46089482 	mul.s	$f18,$f18,$f8
    9b4c:	46123200 	add.s	$f8,$f6,$f18
    9b50:	c706000c 	lwc1	$f6,12(t8)
    9b54:	46064480 	add.s	$f18,$f8,$f6
    9b58:	c7060004 	lwc1	$f6,4(t8)
    9b5c:	46009207 	neg.s	$f8,$f18
    9b60:	c7b2003c 	lwc1	$f18,60(sp)
    9b64:	46064303 	div.s	$f12,$f8,$f6
    9b68:	460c903e 	c.le.s	$f18,$f12
    9b6c:	00000000 	nop
    9b70:	4502002f 	bc1fl	9c30 <func_80108E08+0x3b8>
    9b74:	8e0e0000 	lw	t6,0(s0)
    9b78:	c7a80038 	lwc1	$f8,56(sp)
    9b7c:	c7a60094 	lwc1	$f6,148(sp)
    9b80:	c4520014 	lwc1	$f18,20(v0)
    9b84:	46082001 	sub.s	$f0,$f4,$f8
    9b88:	c4480018 	lwc1	$f8,24(v0)
    9b8c:	e7ac0090 	swc1	$f12,144(sp)
    9b90:	460a3081 	sub.s	$f2,$f6,$f10
    9b94:	46120102 	mul.s	$f4,$f0,$f18
    9b98:	44809000 	mtc1	zero,$f18
    9b9c:	24030800 	li	v1,2048
    9ba0:	46081182 	mul.s	$f6,$f2,$f8
    9ba4:	46062280 	add.s	$f10,$f4,$f6
    9ba8:	460a903e 	c.le.s	$f18,$f10
    9bac:	46000282 	mul.s	$f10,$f0,$f0
    9bb0:	45020006 	bc1fl	9bcc <func_80108E08+0x354>
    9bb4:	c44c0024 	lwc1	$f12,36(v0)
    9bb8:	c44c002c 	lwc1	$f12,44(v0)
    9bbc:	c44e0030 	lwc1	$f14,48(v0)
    9bc0:	10000003 	b	9bd0 <func_80108E08+0x358>
    9bc4:	24030400 	li	v1,1024
    9bc8:	c44c0024 	lwc1	$f12,36(v0)
    9bcc:	c44e0028 	lwc1	$f14,40(v0)
    9bd0:	460c6202 	mul.s	$f8,$f12,$f12
    9bd4:	00000000 	nop
    9bd8:	460e7102 	mul.s	$f4,$f14,$f14
    9bdc:	00000000 	nop
    9be0:	46021482 	mul.s	$f18,$f2,$f2
    9be4:	46044180 	add.s	$f6,$f8,$f4
    9be8:	46125200 	add.s	$f8,$f10,$f18
    9bec:	4608303c 	c.lt.s	$f6,$f8
    9bf0:	00000000 	nop
    9bf4:	45000003 	bc1f	9c04 <func_80108E08+0x38c>
    9bf8:	00000000 	nop
    9bfc:	10000015 	b	9c54 <func_80108E08+0x3dc>
    9c00:	00004025 	move	t0,zero
    9c04:	8e0b0000 	lw	t3,0(s0)
    9c08:	96180000 	lhu	t8,0(s0)
    9c0c:	000b74c2 	srl	t6,t3,0x13
    9c10:	31cdf1ff 	andi	t5,t6,0xf1ff
    9c14:	01a37825 	or	t7,t5,v1
    9c18:	000fc8c0 	sll	t9,t7,0x3
    9c1c:	330a0007 	andi	t2,t8,0x7
    9c20:	032a5825 	or	t3,t9,t2
    9c24:	1000000b 	b	9c54 <func_80108E08+0x3dc>
    9c28:	a60b0000 	sh	t3,0(s0)
    9c2c:	8e0e0000 	lw	t6,0(s0)
    9c30:	96190000 	lhu	t9,0(s0)
    9c34:	00001025 	move	v0,zero
    9c38:	000e6cc2 	srl	t5,t6,0x13
    9c3c:	31aff1ff 	andi	t7,t5,0xf1ff
    9c40:	000fc0c0 	sll	t8,t7,0x3
    9c44:	332a0007 	andi	t2,t9,0x7
    9c48:	030a5825 	or	t3,t8,t2
    9c4c:	10000013 	b	9c9c <func_80108E08+0x424>
    9c50:	a60b0000 	sh	t3,0(s0)
    9c54:	8fae00b4 	lw	t6,180(sp)
    9c58:	3c010000 	lui	at,0x0
    9c5c:	01001025 	move	v0,t0
    9c60:	ae0e000c 	sw	t6,12(s0)
    9c64:	8fad00b0 	lw	t5,176(sp)
    9c68:	ae0d0008 	sw	t5,8(s0)
    9c6c:	8fac007c 	lw	t4,124(sp)
    9c70:	ae0c0004 	sw	t4,4(s0)
    9c74:	c7a4008c 	lwc1	$f4,140(sp)
    9c78:	c6320018 	lwc1	$f18,24(s1)
    9c7c:	e6240004 	swc1	$f4,4(s1)
    9c80:	c7aa0090 	lwc1	$f10,144(sp)
    9c84:	c4280000 	lwc1	$f8,0(at)
    9c88:	46125181 	sub.s	$f6,$f10,$f18
    9c8c:	46083100 	add.s	$f4,$f6,$f8
    9c90:	e6240008 	swc1	$f4,8(s1)
    9c94:	c7aa0094 	lwc1	$f10,148(sp)
    9c98:	e62a000c 	swc1	$f10,12(s1)
    9c9c:	8fbf0034 	lw	ra,52(sp)
    9ca0:	8fb0002c 	lw	s0,44(sp)
    9ca4:	8fb10030 	lw	s1,48(sp)
    9ca8:	03e00008 	jr	ra
    9cac:	27bd00b8 	addiu	sp,sp,184

00009cb0 <func_80109240>:
func_80109240():
    9cb0:	afa40000 	sw	a0,0(sp)
    9cb4:	03e00008 	jr	ra
    9cb8:	afa50004 	sw	a1,4(sp)

00009cbc <func_8010924C>:
func_8010924C():
    9cbc:	8ca20000 	lw	v0,0(a1)
    9cc0:	000214c2 	srl	v0,v0,0x13
    9cc4:	304e0200 	andi	t6,v0,0x200
    9cc8:	51c00010 	beqzl	t6,9d0c <func_8010924C+0x50>
    9ccc:	8ca3000c 	lw	v1,12(a1)
    9cd0:	3c020000 	lui	v0,0x0
    9cd4:	24420000 	addiu	v0,v0,0
    9cd8:	c4440034 	lwc1	$f4,52(v0)
    9cdc:	c4880018 	lwc1	$f8,24(a0)
    9ce0:	3c010000 	lui	at,0x0
    9ce4:	e4840004 	swc1	$f4,4(a0)
    9ce8:	c4460038 	lwc1	$f6,56(v0)
    9cec:	c4300000 	lwc1	$f16,0(at)
    9cf0:	46083281 	sub.s	$f10,$f6,$f8
    9cf4:	46105480 	add.s	$f18,$f10,$f16
    9cf8:	e4920008 	swc1	$f18,8(a0)
    9cfc:	c444003c 	lwc1	$f4,60(v0)
    9d00:	03e00008 	jr	ra
    9d04:	e484000c 	swc1	$f4,12(a0)
    9d08:	8ca3000c 	lw	v1,12(a1)
    9d0c:	c4880004 	lwc1	$f8,4(a0)
    9d10:	c492000c 	lwc1	$f18,12(a0)
    9d14:	c4660000 	lwc1	$f6,0(v1)
    9d18:	c4700008 	lwc1	$f16,8(v1)
    9d1c:	46083282 	mul.s	$f10,$f6,$f8
    9d20:	c468000c 	lwc1	$f8,12(v1)
    9d24:	46128102 	mul.s	$f4,$f16,$f18
    9d28:	46045180 	add.s	$f6,$f10,$f4
    9d2c:	c46a0004 	lwc1	$f10,4(v1)
    9d30:	46083400 	add.s	$f16,$f6,$f8
    9d34:	c4860018 	lwc1	$f6,24(a0)
    9d38:	c4880008 	lwc1	$f8,8(a0)
    9d3c:	46008487 	neg.s	$f18,$f16
    9d40:	460a9103 	div.s	$f4,$f18,$f10
    9d44:	46062001 	sub.s	$f0,$f4,$f6
    9d48:	4600403c 	c.lt.s	$f8,$f0
    9d4c:	00000000 	nop
    9d50:	45000005 	bc1f	9d68 <func_8010924C+0xac>
    9d54:	3c010000 	lui	at,0x0
    9d58:	c4300000 	lwc1	$f16,0(at)
    9d5c:	46100480 	add.s	$f18,$f0,$f16
    9d60:	03e00008 	jr	ra
    9d64:	e4920008 	swc1	$f18,8(a0)
    9d68:	94a90000 	lhu	t1,0(a1)
    9d6c:	3058f1ff 	andi	t8,v0,0xf1ff
    9d70:	001840c0 	sll	t0,t8,0x3
    9d74:	312a0007 	andi	t2,t1,0x7
    9d78:	010a5825 	or	t3,t0,t2
    9d7c:	a4ab0000 	sh	t3,0(a1)
    9d80:	03e00008 	jr	ra
    9d84:	00000000 	nop

00009d88 <func_80109318_ovl2>:
func_80109318_ovl2():
    9d88:	27bdffb0 	addiu	sp,sp,-80
    9d8c:	3c030000 	lui	v1,0x0
    9d90:	24630000 	addiu	v1,v1,0
    9d94:	afbf001c 	sw	ra,28(sp)
    9d98:	afb10018 	sw	s1,24(sp)
    9d9c:	afb00014 	sw	s0,20(sp)
    9da0:	c4840004 	lwc1	$f4,4(a0)
    9da4:	c4660004 	lwc1	$f6,4(v1)
    9da8:	8ca20018 	lw	v0,24(a1)
    9dac:	3c013f80 	lui	at,0x3f80
    9db0:	46062200 	add.s	$f8,$f4,$f6
    9db4:	c4660008 	lwc1	$f6,8(v1)
    9db8:	00808025 	move	s0,a0
    9dbc:	00a08825 	move	s1,a1
    9dc0:	e7a8002c 	swc1	$f8,44(sp)
    9dc4:	c4900010 	lwc1	$f16,16(a0)
    9dc8:	c48a0008 	lwc1	$f10,8(a0)
    9dcc:	27a60038 	addiu	a2,sp,56
    9dd0:	27a70020 	addiu	a3,sp,32
    9dd4:	46105480 	add.s	$f18,$f10,$f16
    9dd8:	c470000c 	lwc1	$f16,12(v1)
    9ddc:	e7b20030 	swc1	$f18,48(sp)
    9de0:	c484000c 	lwc1	$f4,12(a0)
    9de4:	46062200 	add.s	$f8,$f4,$f6
    9de8:	c4660010 	lwc1	$f6,16(v1)
    9dec:	e7a80034 	swc1	$f8,52(sp)
    9df0:	c48a0004 	lwc1	$f10,4(a0)
    9df4:	46105480 	add.s	$f18,$f10,$f16
    9df8:	44815000 	mtc1	at,$f10
    9dfc:	e7b20038 	swc1	$f18,56(sp)
    9e00:	c484000c 	lwc1	$f4,12(a0)
    9e04:	c7b2002c 	lwc1	$f18,44(sp)
    9e08:	46062200 	add.s	$f8,$f4,$f6
    9e0c:	c7a40038 	lwc1	$f4,56(sp)
    9e10:	e7a80040 	swc1	$f8,64(sp)
    9e14:	c4500004 	lwc1	$f16,4(v0)
    9e18:	46049181 	sub.s	$f6,$f18,$f4
    9e1c:	c7b20040 	lwc1	$f18,64(sp)
    9e20:	c4480000 	lwc1	$f8,0(v0)
    9e24:	46105003 	div.s	$f0,$f10,$f16
    9e28:	c7b00034 	lwc1	$f16,52(sp)
    9e2c:	46064282 	mul.s	$f10,$f8,$f6
    9e30:	46128101 	sub.s	$f4,$f16,$f18
    9e34:	c4480008 	lwc1	$f8,8(v0)
    9e38:	46044182 	mul.s	$f6,$f8,$f4
    9e3c:	c7a80030 	lwc1	$f8,48(sp)
    9e40:	46003402 	mul.s	$f16,$f6,$f0
    9e44:	46105480 	add.s	$f18,$f10,$f16
    9e48:	46089100 	add.s	$f4,$f18,$f8
    9e4c:	e7a4003c 	swc1	$f4,60(sp)
    9e50:	8ca40024 	lw	a0,36(a1)
    9e54:	e7a00044 	swc1	$f0,68(sp)
    9e58:	27a5002c 	addiu	a1,sp,44
    9e5c:	0c000000 	jal	0 <func_800FF5E0_ovl2>
    9e60:	afa2004c 	sw	v0,76(sp)
    9e64:	c7a6002c 	lwc1	$f6,44(sp)
    9e68:	c7aa0020 	lwc1	$f10,32(sp)
    9e6c:	3c030000 	lui	v1,0x0
    9e70:	24630000 	addiu	v1,v1,0
    9e74:	460a3401 	sub.s	$f16,$f6,$f10
    9e78:	c7a60028 	lwc1	$f6,40(sp)
    9e7c:	c4720014 	lwc1	$f18,20(v1)
    9e80:	c7a40034 	lwc1	$f4,52(sp)
    9e84:	8fa2004c 	lw	v0,76(sp)
    9e88:	46128202 	mul.s	$f8,$f16,$f18
    9e8c:	46062281 	sub.s	$f10,$f4,$f6
    9e90:	c4700018 	lwc1	$f16,24(v1)
    9e94:	44803000 	mtc1	zero,$f6
    9e98:	c7a00044 	lwc1	$f0,68(sp)
    9e9c:	46105482 	mul.s	$f18,$f10,$f16
    9ea0:	c7aa0020 	lwc1	$f10,32(sp)
    9ea4:	46124100 	add.s	$f4,$f8,$f18
    9ea8:	4606203c 	c.lt.s	$f4,$f6
    9eac:	00000000 	nop
    9eb0:	4502000b 	bc1fl	9ee0 <func_80109318_ovl2+0x158>
    9eb4:	c4700024 	lwc1	$f16,36(v1)
    9eb8:	8e2e0000 	lw	t6,0(s1)
    9ebc:	962a0000 	lhu	t2,0(s1)
    9ec0:	000e7cc2 	srl	t7,t6,0x13
    9ec4:	31f9fff8 	andi	t9,t7,0xfff8
    9ec8:	001948c0 	sll	t1,t9,0x3
    9ecc:	314b0007 	andi	t3,t2,0x7
    9ed0:	012b6025 	or	t4,t1,t3
    9ed4:	10000022 	b	9f60 <func_80109318_ovl2+0x1d8>
    9ed8:	a62c0000 	sh	t4,0(s1)
    9edc:	c4700024 	lwc1	$f16,36(v1)
    9ee0:	3c010000 	lui	at,0x0
    9ee4:	46105201 	sub.s	$f8,$f10,$f16
    9ee8:	e6080004 	swc1	$f8,4(s0)
    9eec:	c4640028 	lwc1	$f4,40(v1)
    9ef0:	c7b20028 	lwc1	$f18,40(sp)
    9ef4:	c6100004 	lwc1	$f16,4(s0)
    9ef8:	46049181 	sub.s	$f6,$f18,$f4
    9efc:	e606000c 	swc1	$f6,12(s0)
    9f00:	c44a0000 	lwc1	$f10,0(v0)
    9f04:	c604000c 	lwc1	$f4,12(s0)
    9f08:	c4520008 	lwc1	$f18,8(v0)
    9f0c:	46105202 	mul.s	$f8,$f10,$f16
    9f10:	c450000c 	lwc1	$f16,12(v0)
    9f14:	46049182 	mul.s	$f6,$f18,$f4
    9f18:	46064280 	add.s	$f10,$f8,$f6
    9f1c:	c6060014 	lwc1	$f6,20(s0)
    9f20:	46105480 	add.s	$f18,$f10,$f16
    9f24:	c4300000 	lwc1	$f16,0(at)
    9f28:	46009107 	neg.s	$f4,$f18
    9f2c:	46002202 	mul.s	$f8,$f4,$f0
    9f30:	46064281 	sub.s	$f10,$f8,$f6
    9f34:	46105481 	sub.s	$f18,$f10,$f16
    9f38:	e6120008 	swc1	$f18,8(s0)
    9f3c:	8e2d0000 	lw	t5,0(s1)
    9f40:	96290000 	lhu	t1,0(s1)
    9f44:	000d74c2 	srl	t6,t5,0x13
    9f48:	31cffff8 	andi	t7,t6,0xfff8
    9f4c:	35f90001 	ori	t9,t7,0x1
    9f50:	001950c0 	sll	t2,t9,0x3
    9f54:	312b0007 	andi	t3,t1,0x7
    9f58:	014b6025 	or	t4,t2,t3
    9f5c:	a62c0000 	sh	t4,0(s1)
    9f60:	8fbf001c 	lw	ra,28(sp)
    9f64:	8fb00014 	lw	s0,20(sp)
    9f68:	8fb10018 	lw	s1,24(sp)
    9f6c:	03e00008 	jr	ra
    9f70:	27bd0050 	addiu	sp,sp,80

00009f74 <func_80109504>:
func_80109504():
    9f74:	27bdffb0 	addiu	sp,sp,-80
    9f78:	3c030000 	lui	v1,0x0
    9f7c:	24630000 	addiu	v1,v1,0
    9f80:	afbf001c 	sw	ra,28(sp)
    9f84:	afb10018 	sw	s1,24(sp)
    9f88:	afb00014 	sw	s0,20(sp)
    9f8c:	c4840004 	lwc1	$f4,4(a0)
    9f90:	c466000c 	lwc1	$f6,12(v1)
    9f94:	8ca20018 	lw	v0,24(a1)
    9f98:	3c013f80 	lui	at,0x3f80
    9f9c:	46062200 	add.s	$f8,$f4,$f6
    9fa0:	c4660010 	lwc1	$f6,16(v1)
    9fa4:	00808025 	move	s0,a0
    9fa8:	00a08825 	move	s1,a1
    9fac:	e7a80038 	swc1	$f8,56(sp)
    9fb0:	c4900010 	lwc1	$f16,16(a0)
    9fb4:	c48a0008 	lwc1	$f10,8(a0)
    9fb8:	27a60038 	addiu	a2,sp,56
    9fbc:	27a70020 	addiu	a3,sp,32
    9fc0:	46105480 	add.s	$f18,$f10,$f16
    9fc4:	c4700004 	lwc1	$f16,4(v1)
    9fc8:	e7b2003c 	swc1	$f18,60(sp)
    9fcc:	c484000c 	lwc1	$f4,12(a0)
    9fd0:	46062200 	add.s	$f8,$f4,$f6
    9fd4:	c4660008 	lwc1	$f6,8(v1)
    9fd8:	e7a80040 	swc1	$f8,64(sp)
    9fdc:	c48a0004 	lwc1	$f10,4(a0)
    9fe0:	46105480 	add.s	$f18,$f10,$f16
    9fe4:	44815000 	mtc1	at,$f10
    9fe8:	e7b2002c 	swc1	$f18,44(sp)
    9fec:	c484000c 	lwc1	$f4,12(a0)
    9ff0:	c7b20038 	lwc1	$f18,56(sp)
    9ff4:	46062200 	add.s	$f8,$f4,$f6
    9ff8:	c7a4002c 	lwc1	$f4,44(sp)
    9ffc:	e7a80034 	swc1	$f8,52(sp)
    a000:	c4500004 	lwc1	$f16,4(v0)
    a004:	46049181 	sub.s	$f6,$f18,$f4
    a008:	c7b20034 	lwc1	$f18,52(sp)
    a00c:	c4480000 	lwc1	$f8,0(v0)
    a010:	46105003 	div.s	$f0,$f10,$f16
    a014:	c7b00040 	lwc1	$f16,64(sp)
    a018:	46064282 	mul.s	$f10,$f8,$f6
    a01c:	46128101 	sub.s	$f4,$f16,$f18
    a020:	c4480008 	lwc1	$f8,8(v0)
    a024:	46044182 	mul.s	$f6,$f8,$f4
    a028:	c7a8003c 	lwc1	$f8,60(sp)
    a02c:	46003402 	mul.s	$f16,$f6,$f0
    a030:	46105480 	add.s	$f18,$f10,$f16
    a034:	46089100 	add.s	$f4,$f18,$f8
    a038:	e7a40030 	swc1	$f4,48(sp)
    a03c:	8ca40030 	lw	a0,48(a1)
    a040:	e7a00044 	swc1	$f0,68(sp)
    a044:	27a5002c 	addiu	a1,sp,44
    a048:	0c000000 	jal	0 <func_800FF5E0_ovl2>
    a04c:	afa2004c 	sw	v0,76(sp)
    a050:	c7a60038 	lwc1	$f6,56(sp)
    a054:	c7aa0020 	lwc1	$f10,32(sp)
    a058:	3c030000 	lui	v1,0x0
    a05c:	24630000 	addiu	v1,v1,0
    a060:	460a3401 	sub.s	$f16,$f6,$f10
    a064:	c7a60028 	lwc1	$f6,40(sp)
    a068:	c472001c 	lwc1	$f18,28(v1)
    a06c:	c7a40040 	lwc1	$f4,64(sp)
    a070:	8fa2004c 	lw	v0,76(sp)
    a074:	46128202 	mul.s	$f8,$f16,$f18
    a078:	46062281 	sub.s	$f10,$f4,$f6
    a07c:	c4700020 	lwc1	$f16,32(v1)
    a080:	44803000 	mtc1	zero,$f6
    a084:	c7a00044 	lwc1	$f0,68(sp)
    a088:	46105482 	mul.s	$f18,$f10,$f16
    a08c:	c7aa0020 	lwc1	$f10,32(sp)
    a090:	46124100 	add.s	$f4,$f8,$f18
    a094:	4606203c 	c.lt.s	$f4,$f6
    a098:	00000000 	nop
    a09c:	4502000b 	bc1fl	a0cc <func_80109504+0x158>
    a0a0:	c470002c 	lwc1	$f16,44(v1)
    a0a4:	8e2e0000 	lw	t6,0(s1)
    a0a8:	962a0000 	lhu	t2,0(s1)
    a0ac:	000e7cc2 	srl	t7,t6,0x13
    a0b0:	31f9ffc7 	andi	t9,t7,0xffc7
    a0b4:	001948c0 	sll	t1,t9,0x3
    a0b8:	314b0007 	andi	t3,t2,0x7
    a0bc:	012b6025 	or	t4,t1,t3
    a0c0:	10000022 	b	a14c <func_80109504+0x1d8>
    a0c4:	a62c0000 	sh	t4,0(s1)
    a0c8:	c470002c 	lwc1	$f16,44(v1)
    a0cc:	3c010000 	lui	at,0x0
    a0d0:	46105201 	sub.s	$f8,$f10,$f16
    a0d4:	e6080004 	swc1	$f8,4(s0)
    a0d8:	c4640030 	lwc1	$f4,48(v1)
    a0dc:	c7b20028 	lwc1	$f18,40(sp)
    a0e0:	c6100004 	lwc1	$f16,4(s0)
    a0e4:	46049181 	sub.s	$f6,$f18,$f4
    a0e8:	e606000c 	swc1	$f6,12(s0)
    a0ec:	c44a0000 	lwc1	$f10,0(v0)
    a0f0:	c604000c 	lwc1	$f4,12(s0)
    a0f4:	c4520008 	lwc1	$f18,8(v0)
    a0f8:	46105202 	mul.s	$f8,$f10,$f16
    a0fc:	c450000c 	lwc1	$f16,12(v0)
    a100:	46049182 	mul.s	$f6,$f18,$f4
    a104:	46064280 	add.s	$f10,$f8,$f6
    a108:	c6060014 	lwc1	$f6,20(s0)
    a10c:	46105480 	add.s	$f18,$f10,$f16
    a110:	c4300000 	lwc1	$f16,0(at)
    a114:	46009107 	neg.s	$f4,$f18
    a118:	46002202 	mul.s	$f8,$f4,$f0
    a11c:	46064281 	sub.s	$f10,$f8,$f6
    a120:	46105481 	sub.s	$f18,$f10,$f16
    a124:	e6120008 	swc1	$f18,8(s0)
    a128:	8e2d0000 	lw	t5,0(s1)
    a12c:	96290000 	lhu	t1,0(s1)
    a130:	000d74c2 	srl	t6,t5,0x13
    a134:	31cfffc7 	andi	t7,t6,0xffc7
    a138:	35f90008 	ori	t9,t7,0x8
    a13c:	001950c0 	sll	t2,t9,0x3
    a140:	312b0007 	andi	t3,t1,0x7
    a144:	014b6025 	or	t4,t2,t3
    a148:	a62c0000 	sh	t4,0(s1)
    a14c:	8fbf001c 	lw	ra,28(sp)
    a150:	8fb00014 	lw	s0,20(sp)
    a154:	8fb10018 	lw	s1,24(sp)
    a158:	03e00008 	jr	ra
    a15c:	27bd0050 	addiu	sp,sp,80

0000a160 <func_801096F0>:
func_801096F0():
    a160:	27bdffe0 	addiu	sp,sp,-32
    a164:	afbf001c 	sw	ra,28(sp)
    a168:	afb10018 	sw	s1,24(sp)
    a16c:	afb00014 	sw	s0,20(sp)
    a170:	8cae0000 	lw	t6,0(a1)
    a174:	00a08025 	move	s0,a1
    a178:	00808825 	move	s1,a0
    a17c:	000e7cc2 	srl	t7,t6,0x13
    a180:	31f801c0 	andi	t8,t7,0x1c0
    a184:	53000017 	beqzl	t8,a1e4 <func_801096F0+0x84>
    a188:	8fbf001c 	lw	ra,28(sp)
    a18c:	0c000000 	jal	0 <func_800FF5E0_ovl2>
    a190:	00000000 	nop
    a194:	14400004 	bnez	v0,a1a8 <func_801096F0+0x48>
    a198:	02202025 	move	a0,s1
    a19c:	0c000000 	jal	0 <func_800FF5E0_ovl2>
    a1a0:	02002825 	move	a1,s0
    a1a4:	10400003 	beqz	v0,a1b4 <func_801096F0+0x54>
    a1a8:	02202025 	move	a0,s1
    a1ac:	0c000000 	jal	0 <func_800FF5E0_ovl2>
    a1b0:	02002825 	move	a1,s0
    a1b4:	02202025 	move	a0,s1
    a1b8:	0c000000 	jal	0 <func_800FF5E0_ovl2>
    a1bc:	02002825 	move	a1,s0
    a1c0:	14400004 	bnez	v0,a1d4 <func_801096F0+0x74>
    a1c4:	02202025 	move	a0,s1
    a1c8:	0c000000 	jal	0 <func_800FF5E0_ovl2>
    a1cc:	02002825 	move	a1,s0
    a1d0:	10400003 	beqz	v0,a1e0 <func_801096F0+0x80>
    a1d4:	02202025 	move	a0,s1
    a1d8:	0c000000 	jal	0 <func_800FF5E0_ovl2>
    a1dc:	02002825 	move	a1,s0
    a1e0:	8fbf001c 	lw	ra,28(sp)
    a1e4:	8fb00014 	lw	s0,20(sp)
    a1e8:	8fb10018 	lw	s1,24(sp)
    a1ec:	03e00008 	jr	ra
    a1f0:	27bd0020 	addiu	sp,sp,32

0000a1f4 <func_80109784>:
func_80109784():
    a1f4:	27bdffb0 	addiu	sp,sp,-80
    a1f8:	3c030000 	lui	v1,0x0
    a1fc:	24630000 	addiu	v1,v1,0
    a200:	afbf001c 	sw	ra,28(sp)
    a204:	afb10018 	sw	s1,24(sp)
    a208:	afb00014 	sw	s0,20(sp)
    a20c:	c4840004 	lwc1	$f4,4(a0)
    a210:	c4660004 	lwc1	$f6,4(v1)
    a214:	8ca2000c 	lw	v0,12(a1)
    a218:	3c013f80 	lui	at,0x3f80
    a21c:	46062200 	add.s	$f8,$f4,$f6
    a220:	c4660008 	lwc1	$f6,8(v1)
    a224:	00808025 	move	s0,a0
    a228:	00a08825 	move	s1,a1
    a22c:	e7a8002c 	swc1	$f8,44(sp)
    a230:	c4900010 	lwc1	$f16,16(a0)
    a234:	c48a0008 	lwc1	$f10,8(a0)
    a238:	27a60038 	addiu	a2,sp,56
    a23c:	27a70020 	addiu	a3,sp,32
    a240:	46105480 	add.s	$f18,$f10,$f16
    a244:	c470000c 	lwc1	$f16,12(v1)
    a248:	e7b20030 	swc1	$f18,48(sp)
    a24c:	c484000c 	lwc1	$f4,12(a0)
    a250:	46062200 	add.s	$f8,$f4,$f6
    a254:	c4660010 	lwc1	$f6,16(v1)
    a258:	e7a80034 	swc1	$f8,52(sp)
    a25c:	c48a0004 	lwc1	$f10,4(a0)
    a260:	46105480 	add.s	$f18,$f10,$f16
    a264:	44815000 	mtc1	at,$f10
    a268:	e7b20038 	swc1	$f18,56(sp)
    a26c:	c484000c 	lwc1	$f4,12(a0)
    a270:	c7b2002c 	lwc1	$f18,44(sp)
    a274:	46062200 	add.s	$f8,$f4,$f6
    a278:	c7a40038 	lwc1	$f4,56(sp)
    a27c:	e7a80040 	swc1	$f8,64(sp)
    a280:	c4500004 	lwc1	$f16,4(v0)
    a284:	46049181 	sub.s	$f6,$f18,$f4
    a288:	c7b20040 	lwc1	$f18,64(sp)
    a28c:	c4480000 	lwc1	$f8,0(v0)
    a290:	46105003 	div.s	$f0,$f10,$f16
    a294:	c7b00034 	lwc1	$f16,52(sp)
    a298:	46064282 	mul.s	$f10,$f8,$f6
    a29c:	46128101 	sub.s	$f4,$f16,$f18
    a2a0:	c4480008 	lwc1	$f8,8(v0)
    a2a4:	46044182 	mul.s	$f6,$f8,$f4
    a2a8:	c7a80030 	lwc1	$f8,48(sp)
    a2ac:	46003402 	mul.s	$f16,$f6,$f0
    a2b0:	46105480 	add.s	$f18,$f10,$f16
    a2b4:	46089100 	add.s	$f4,$f18,$f8
    a2b8:	e7a4003c 	swc1	$f4,60(sp)
    a2bc:	8ca40024 	lw	a0,36(a1)
    a2c0:	e7a00044 	swc1	$f0,68(sp)
    a2c4:	27a5002c 	addiu	a1,sp,44
    a2c8:	0c000000 	jal	0 <func_800FF5E0_ovl2>
    a2cc:	afa2004c 	sw	v0,76(sp)
    a2d0:	c7a6002c 	lwc1	$f6,44(sp)
    a2d4:	c7aa0020 	lwc1	$f10,32(sp)
    a2d8:	3c030000 	lui	v1,0x0
    a2dc:	24630000 	addiu	v1,v1,0
    a2e0:	460a3401 	sub.s	$f16,$f6,$f10
    a2e4:	c7a60028 	lwc1	$f6,40(sp)
    a2e8:	c4720014 	lwc1	$f18,20(v1)
    a2ec:	c7a40034 	lwc1	$f4,52(sp)
    a2f0:	8fa2004c 	lw	v0,76(sp)
    a2f4:	46128202 	mul.s	$f8,$f16,$f18
    a2f8:	46062281 	sub.s	$f10,$f4,$f6
    a2fc:	c4700018 	lwc1	$f16,24(v1)
    a300:	44803000 	mtc1	zero,$f6
    a304:	c7a00044 	lwc1	$f0,68(sp)
    a308:	46105482 	mul.s	$f18,$f10,$f16
    a30c:	c7aa0020 	lwc1	$f10,32(sp)
    a310:	46124100 	add.s	$f4,$f8,$f18
    a314:	4606203c 	c.lt.s	$f4,$f6
    a318:	00000000 	nop
    a31c:	4502000b 	bc1fl	a34c <func_80109784+0x158>
    a320:	c4700024 	lwc1	$f16,36(v1)
    a324:	8e2e0000 	lw	t6,0(s1)
    a328:	962a0000 	lhu	t2,0(s1)
    a32c:	000e7cc2 	srl	t7,t6,0x13
    a330:	31f9fff8 	andi	t9,t7,0xfff8
    a334:	001948c0 	sll	t1,t9,0x3
    a338:	314b0007 	andi	t3,t2,0x7
    a33c:	012b6025 	or	t4,t1,t3
    a340:	10000022 	b	a3cc <func_80109784+0x1d8>
    a344:	a62c0000 	sh	t4,0(s1)
    a348:	c4700024 	lwc1	$f16,36(v1)
    a34c:	3c010000 	lui	at,0x0
    a350:	46105201 	sub.s	$f8,$f10,$f16
    a354:	e6080004 	swc1	$f8,4(s0)
    a358:	c4640028 	lwc1	$f4,40(v1)
    a35c:	c7b20028 	lwc1	$f18,40(sp)
    a360:	c6100004 	lwc1	$f16,4(s0)
    a364:	46049181 	sub.s	$f6,$f18,$f4
    a368:	e606000c 	swc1	$f6,12(s0)
    a36c:	c44a0000 	lwc1	$f10,0(v0)
    a370:	c604000c 	lwc1	$f4,12(s0)
    a374:	c4520008 	lwc1	$f18,8(v0)
    a378:	46105202 	mul.s	$f8,$f10,$f16
    a37c:	c450000c 	lwc1	$f16,12(v0)
    a380:	46049182 	mul.s	$f6,$f18,$f4
    a384:	46064280 	add.s	$f10,$f8,$f6
    a388:	c6060018 	lwc1	$f6,24(s0)
    a38c:	46105480 	add.s	$f18,$f10,$f16
    a390:	c4300000 	lwc1	$f16,0(at)
    a394:	46009107 	neg.s	$f4,$f18
    a398:	46002202 	mul.s	$f8,$f4,$f0
    a39c:	46064281 	sub.s	$f10,$f8,$f6
    a3a0:	46105480 	add.s	$f18,$f10,$f16
    a3a4:	e6120008 	swc1	$f18,8(s0)
    a3a8:	8e2d0000 	lw	t5,0(s1)
    a3ac:	96290000 	lhu	t1,0(s1)
    a3b0:	000d74c2 	srl	t6,t5,0x13
    a3b4:	31cffff8 	andi	t7,t6,0xfff8
    a3b8:	35f90001 	ori	t9,t7,0x1
    a3bc:	001950c0 	sll	t2,t9,0x3
    a3c0:	312b0007 	andi	t3,t1,0x7
    a3c4:	014b6025 	or	t4,t2,t3
    a3c8:	a62c0000 	sh	t4,0(s1)
    a3cc:	8fbf001c 	lw	ra,28(sp)
    a3d0:	8fb00014 	lw	s0,20(sp)
    a3d4:	8fb10018 	lw	s1,24(sp)
    a3d8:	03e00008 	jr	ra
    a3dc:	27bd0050 	addiu	sp,sp,80

0000a3e0 <func_80109970>:
func_80109970():
    a3e0:	27bdffb0 	addiu	sp,sp,-80
    a3e4:	3c030000 	lui	v1,0x0
    a3e8:	24630000 	addiu	v1,v1,0
    a3ec:	afbf001c 	sw	ra,28(sp)
    a3f0:	afb10018 	sw	s1,24(sp)
    a3f4:	afb00014 	sw	s0,20(sp)
    a3f8:	c4840004 	lwc1	$f4,4(a0)
    a3fc:	c466000c 	lwc1	$f6,12(v1)
    a400:	8ca2000c 	lw	v0,12(a1)
    a404:	3c013f80 	lui	at,0x3f80
    a408:	46062200 	add.s	$f8,$f4,$f6
    a40c:	c4660010 	lwc1	$f6,16(v1)
    a410:	00808025 	move	s0,a0
    a414:	00a08825 	move	s1,a1
    a418:	e7a80038 	swc1	$f8,56(sp)
    a41c:	c4900010 	lwc1	$f16,16(a0)
    a420:	c48a0008 	lwc1	$f10,8(a0)
    a424:	27a60038 	addiu	a2,sp,56
    a428:	27a70020 	addiu	a3,sp,32
    a42c:	46105480 	add.s	$f18,$f10,$f16
    a430:	c4700004 	lwc1	$f16,4(v1)
    a434:	e7b2003c 	swc1	$f18,60(sp)
    a438:	c484000c 	lwc1	$f4,12(a0)
    a43c:	46062200 	add.s	$f8,$f4,$f6
    a440:	c4660008 	lwc1	$f6,8(v1)
    a444:	e7a80040 	swc1	$f8,64(sp)
    a448:	c48a0004 	lwc1	$f10,4(a0)
    a44c:	46105480 	add.s	$f18,$f10,$f16
    a450:	44815000 	mtc1	at,$f10
    a454:	e7b2002c 	swc1	$f18,44(sp)
    a458:	c484000c 	lwc1	$f4,12(a0)
    a45c:	c7b20038 	lwc1	$f18,56(sp)
    a460:	46062200 	add.s	$f8,$f4,$f6
    a464:	c7a4002c 	lwc1	$f4,44(sp)
    a468:	e7a80034 	swc1	$f8,52(sp)
    a46c:	c4500004 	lwc1	$f16,4(v0)
    a470:	46049181 	sub.s	$f6,$f18,$f4
    a474:	c7b20034 	lwc1	$f18,52(sp)
    a478:	c4480000 	lwc1	$f8,0(v0)
    a47c:	46105003 	div.s	$f0,$f10,$f16
    a480:	c7b00040 	lwc1	$f16,64(sp)
    a484:	46064282 	mul.s	$f10,$f8,$f6
    a488:	46128101 	sub.s	$f4,$f16,$f18
    a48c:	c4480008 	lwc1	$f8,8(v0)
    a490:	46044182 	mul.s	$f6,$f8,$f4
    a494:	c7a8003c 	lwc1	$f8,60(sp)
    a498:	46003402 	mul.s	$f16,$f6,$f0
    a49c:	46105480 	add.s	$f18,$f10,$f16
    a4a0:	46089100 	add.s	$f4,$f18,$f8
    a4a4:	e7a40030 	swc1	$f4,48(sp)
    a4a8:	8ca40030 	lw	a0,48(a1)
    a4ac:	e7a00044 	swc1	$f0,68(sp)
    a4b0:	27a5002c 	addiu	a1,sp,44
    a4b4:	0c000000 	jal	0 <func_800FF5E0_ovl2>
    a4b8:	afa2004c 	sw	v0,76(sp)
    a4bc:	c7a60038 	lwc1	$f6,56(sp)
    a4c0:	c7aa0020 	lwc1	$f10,32(sp)
    a4c4:	3c030000 	lui	v1,0x0
    a4c8:	24630000 	addiu	v1,v1,0
    a4cc:	460a3401 	sub.s	$f16,$f6,$f10
    a4d0:	c7a60028 	lwc1	$f6,40(sp)
    a4d4:	c472001c 	lwc1	$f18,28(v1)
    a4d8:	c7a40040 	lwc1	$f4,64(sp)
    a4dc:	8fa2004c 	lw	v0,76(sp)
    a4e0:	46128202 	mul.s	$f8,$f16,$f18
    a4e4:	46062281 	sub.s	$f10,$f4,$f6
    a4e8:	c4700020 	lwc1	$f16,32(v1)
    a4ec:	44803000 	mtc1	zero,$f6
    a4f0:	c7a00044 	lwc1	$f0,68(sp)
    a4f4:	46105482 	mul.s	$f18,$f10,$f16
    a4f8:	c7aa0020 	lwc1	$f10,32(sp)
    a4fc:	46124100 	add.s	$f4,$f8,$f18
    a500:	4606203c 	c.lt.s	$f4,$f6
    a504:	00000000 	nop
    a508:	4502000b 	bc1fl	a538 <func_80109970+0x158>
    a50c:	c470002c 	lwc1	$f16,44(v1)
    a510:	8e2e0000 	lw	t6,0(s1)
    a514:	962a0000 	lhu	t2,0(s1)
    a518:	000e7cc2 	srl	t7,t6,0x13
    a51c:	31f9ffc7 	andi	t9,t7,0xffc7
    a520:	001948c0 	sll	t1,t9,0x3
    a524:	314b0007 	andi	t3,t2,0x7
    a528:	012b6025 	or	t4,t1,t3
    a52c:	10000022 	b	a5b8 <func_80109970+0x1d8>
    a530:	a62c0000 	sh	t4,0(s1)
    a534:	c470002c 	lwc1	$f16,44(v1)
    a538:	3c010000 	lui	at,0x0
    a53c:	46105201 	sub.s	$f8,$f10,$f16
    a540:	e6080004 	swc1	$f8,4(s0)
    a544:	c4640030 	lwc1	$f4,48(v1)
    a548:	c7b20028 	lwc1	$f18,40(sp)
    a54c:	c6100004 	lwc1	$f16,4(s0)
    a550:	46049181 	sub.s	$f6,$f18,$f4
    a554:	e606000c 	swc1	$f6,12(s0)
    a558:	c44a0000 	lwc1	$f10,0(v0)
    a55c:	c604000c 	lwc1	$f4,12(s0)
    a560:	c4520008 	lwc1	$f18,8(v0)
    a564:	46105202 	mul.s	$f8,$f10,$f16
    a568:	c450000c 	lwc1	$f16,12(v0)
    a56c:	46049182 	mul.s	$f6,$f18,$f4
    a570:	46064280 	add.s	$f10,$f8,$f6
    a574:	c6060018 	lwc1	$f6,24(s0)
    a578:	46105480 	add.s	$f18,$f10,$f16
    a57c:	c4300000 	lwc1	$f16,0(at)
    a580:	46009107 	neg.s	$f4,$f18
    a584:	46002202 	mul.s	$f8,$f4,$f0
    a588:	46064281 	sub.s	$f10,$f8,$f6
    a58c:	46105480 	add.s	$f18,$f10,$f16
    a590:	e6120008 	swc1	$f18,8(s0)
    a594:	8e2d0000 	lw	t5,0(s1)
    a598:	96290000 	lhu	t1,0(s1)
    a59c:	000d74c2 	srl	t6,t5,0x13
    a5a0:	31cfffc7 	andi	t7,t6,0xffc7
    a5a4:	35f90008 	ori	t9,t7,0x8
    a5a8:	001950c0 	sll	t2,t9,0x3
    a5ac:	312b0007 	andi	t3,t1,0x7
    a5b0:	014b6025 	or	t4,t2,t3
    a5b4:	a62c0000 	sh	t4,0(s1)
    a5b8:	8fbf001c 	lw	ra,28(sp)
    a5bc:	8fb00014 	lw	s0,20(sp)
    a5c0:	8fb10018 	lw	s1,24(sp)
    a5c4:	03e00008 	jr	ra
    a5c8:	27bd0050 	addiu	sp,sp,80

0000a5cc <func_80109B5C>:
func_80109B5C():
    a5cc:	27bdffe0 	addiu	sp,sp,-32
    a5d0:	afbf001c 	sw	ra,28(sp)
    a5d4:	afb10018 	sw	s1,24(sp)
    a5d8:	afb00014 	sw	s0,20(sp)
    a5dc:	8cae0000 	lw	t6,0(a1)
    a5e0:	00a08025 	move	s0,a1
    a5e4:	00808825 	move	s1,a0
    a5e8:	000e7cc2 	srl	t7,t6,0x13
    a5ec:	31f80e00 	andi	t8,t7,0xe00
    a5f0:	53000017 	beqzl	t8,a650 <func_80109B5C+0x84>
    a5f4:	8fbf001c 	lw	ra,28(sp)
    a5f8:	0c000000 	jal	0 <func_800FF5E0_ovl2>
    a5fc:	00000000 	nop
    a600:	14400004 	bnez	v0,a614 <func_80109B5C+0x48>
    a604:	02202025 	move	a0,s1
    a608:	0c000000 	jal	0 <func_800FF5E0_ovl2>
    a60c:	02002825 	move	a1,s0
    a610:	10400003 	beqz	v0,a620 <func_80109B5C+0x54>
    a614:	02202025 	move	a0,s1
    a618:	0c000000 	jal	0 <func_800FF5E0_ovl2>
    a61c:	02002825 	move	a1,s0
    a620:	02202025 	move	a0,s1
    a624:	0c000000 	jal	0 <func_800FF5E0_ovl2>
    a628:	02002825 	move	a1,s0
    a62c:	14400004 	bnez	v0,a640 <func_80109B5C+0x74>
    a630:	02202025 	move	a0,s1
    a634:	0c000000 	jal	0 <func_800FF5E0_ovl2>
    a638:	02002825 	move	a1,s0
    a63c:	10400003 	beqz	v0,a64c <func_80109B5C+0x80>
    a640:	02202025 	move	a0,s1
    a644:	0c000000 	jal	0 <func_800FF5E0_ovl2>
    a648:	02002825 	move	a1,s0
    a64c:	8fbf001c 	lw	ra,28(sp)
    a650:	8fb00014 	lw	s0,20(sp)
    a654:	8fb10018 	lw	s1,24(sp)
    a658:	03e00008 	jr	ra
    a65c:	27bd0020 	addiu	sp,sp,32

0000a660 <func_80109BF0>:
func_80109BF0():
    a660:	27bdffd8 	addiu	sp,sp,-40
    a664:	afbf001c 	sw	ra,28(sp)
    a668:	afb10018 	sw	s1,24(sp)
    a66c:	afb00014 	sw	s0,20(sp)
    a670:	afa60030 	sw	a2,48(sp)
    a674:	afa00024 	sw	zero,36(sp)
    a678:	8c8e0058 	lw	t6,88(a0)
    a67c:	00808825 	move	s1,a0
    a680:	3c010000 	lui	at,0x0
    a684:	00a08025 	move	s0,a1
    a688:	00a02025 	move	a0,a1
    a68c:	0c000000 	jal	0 <func_800FF5E0_ovl2>
    a690:	ac2e0000 	sw	t6,0(at)
    a694:	0c000000 	jal	0 <func_800FF5E0_ovl2>
    a698:	02202025 	move	a0,s1
    a69c:	02202025 	move	a0,s1
    a6a0:	0c000000 	jal	0 <func_800FF5E0_ovl2>
    a6a4:	02002825 	move	a1,s0
    a6a8:	10400003 	beqz	v0,a6b8 <func_80109BF0+0x58>
    a6ac:	02202025 	move	a0,s1
    a6b0:	0c000000 	jal	0 <func_800FF5E0_ovl2>
    a6b4:	02002825 	move	a1,s0
    a6b8:	02202025 	move	a0,s1
    a6bc:	0c000000 	jal	0 <func_800FF5E0_ovl2>
    a6c0:	02002825 	move	a1,s0
    a6c4:	10400003 	beqz	v0,a6d4 <func_80109BF0+0x74>
    a6c8:	02202025 	move	a0,s1
    a6cc:	0c000000 	jal	0 <func_800FF5E0_ovl2>
    a6d0:	02002825 	move	a1,s0
    a6d4:	02202025 	move	a0,s1
    a6d8:	0c000000 	jal	0 <func_800FF5E0_ovl2>
    a6dc:	02002825 	move	a1,s0
    a6e0:	10400006 	beqz	v0,a6fc <func_80109BF0+0x9c>
    a6e4:	02202025 	move	a0,s1
    a6e8:	0c000000 	jal	0 <func_800FF5E0_ovl2>
    a6ec:	02002825 	move	a1,s0
    a6f0:	02202025 	move	a0,s1
    a6f4:	0c000000 	jal	0 <func_800FF5E0_ovl2>
    a6f8:	02002825 	move	a1,s0
    a6fc:	02202025 	move	a0,s1
    a700:	0c000000 	jal	0 <func_800FF5E0_ovl2>
    a704:	02002825 	move	a1,s0
    a708:	1040000e 	beqz	v0,a744 <func_80109BF0+0xe4>
    a70c:	8faf0030 	lw	t7,48(sp)
    a710:	31f80008 	andi	t8,t7,0x8
    a714:	13000006 	beqz	t8,a730 <func_80109BF0+0xd0>
    a718:	02202025 	move	a0,s1
    a71c:	02202025 	move	a0,s1
    a720:	0c000000 	jal	0 <func_800FF5E0_ovl2>
    a724:	02002825 	move	a1,s0
    a728:	10000003 	b	a738 <func_80109BF0+0xd8>
    a72c:	afa20024 	sw	v0,36(sp)
    a730:	0c000000 	jal	0 <func_800FF5E0_ovl2>
    a734:	02002825 	move	a1,s0
    a738:	02202025 	move	a0,s1
    a73c:	0c000000 	jal	0 <func_800FF5E0_ovl2>
    a740:	02002825 	move	a1,s0
    a744:	02202025 	move	a0,s1
    a748:	0c000000 	jal	0 <func_800FF5E0_ovl2>
    a74c:	02002825 	move	a1,s0
    a750:	10400003 	beqz	v0,a760 <func_80109BF0+0x100>
    a754:	02202025 	move	a0,s1
    a758:	0c000000 	jal	0 <func_800FF5E0_ovl2>
    a75c:	02002825 	move	a1,s0
    a760:	02202025 	move	a0,s1
    a764:	0c000000 	jal	0 <func_800FF5E0_ovl2>
    a768:	02002825 	move	a1,s0
    a76c:	10400003 	beqz	v0,a77c <func_80109BF0+0x11c>
    a770:	02202025 	move	a0,s1
    a774:	0c000000 	jal	0 <func_800FF5E0_ovl2>
    a778:	02002825 	move	a1,s0
    a77c:	02202025 	move	a0,s1
    a780:	0c000000 	jal	0 <func_800FF5E0_ovl2>
    a784:	02002825 	move	a1,s0
    a788:	10400003 	beqz	v0,a798 <func_80109BF0+0x138>
    a78c:	02202025 	move	a0,s1
    a790:	0c000000 	jal	0 <func_800FF5E0_ovl2>
    a794:	02002825 	move	a1,s0
    a798:	8e030000 	lw	v1,0(s0)
    a79c:	00031cc2 	srl	v1,v1,0x13
    a7a0:	10600020 	beqz	v1,a824 <func_80109BF0+0x1c4>
    a7a4:	30790e00 	andi	t9,v1,0xe00
    a7a8:	5320000a 	beqzl	t9,a7d4 <func_80109BF0+0x174>
    a7ac:	30690007 	andi	t1,v1,0x7
    a7b0:	8e080004 	lw	t0,4(s0)
    a7b4:	24010014 	li	at,20
    a7b8:	02202025 	move	a0,s1
    a7bc:	11010004 	beq	t0,at,a7d0 <func_80109BF0+0x170>
    a7c0:	02002825 	move	a1,s0
    a7c4:	0c000000 	jal	0 <func_800FF5E0_ovl2>
    a7c8:	afa30020 	sw	v1,32(sp)
    a7cc:	8fa30020 	lw	v1,32(sp)
    a7d0:	30690007 	andi	t1,v1,0x7
    a7d4:	5120000a 	beqzl	t1,a800 <func_80109BF0+0x1a0>
    a7d8:	306b0038 	andi	t3,v1,0x38
    a7dc:	8e0a001c 	lw	t2,28(s0)
    a7e0:	24010014 	li	at,20
    a7e4:	02202025 	move	a0,s1
    a7e8:	11410004 	beq	t2,at,a7fc <func_80109BF0+0x19c>
    a7ec:	02002825 	move	a1,s0
    a7f0:	0c000000 	jal	0 <func_800FF5E0_ovl2>
    a7f4:	afa30020 	sw	v1,32(sp)
    a7f8:	8fa30020 	lw	v1,32(sp)
    a7fc:	306b0038 	andi	t3,v1,0x38
    a800:	11600008 	beqz	t3,a824 <func_80109BF0+0x1c4>
    a804:	00000000 	nop
    a808:	8e0c0028 	lw	t4,40(s0)
    a80c:	24010014 	li	at,20
    a810:	02202025 	move	a0,s1
    a814:	11810003 	beq	t4,at,a824 <func_80109BF0+0x1c4>
    a818:	00000000 	nop
    a81c:	0c000000 	jal	0 <func_800FF5E0_ovl2>
    a820:	02002825 	move	a1,s0
    a824:	3c0d0000 	lui	t5,0x0
    a828:	8dad0000 	lw	t5,0(t5)
    a82c:	ae2d0058 	sw	t5,88(s1)
    a830:	8fbf001c 	lw	ra,28(sp)
    a834:	8fb10018 	lw	s1,24(sp)
    a838:	8fb00014 	lw	s0,20(sp)
    a83c:	8fa20024 	lw	v0,36(sp)
    a840:	03e00008 	jr	ra
    a844:	27bd0028 	addiu	sp,sp,40

0000a848 <func_80109DD8>:
func_80109DD8():
    a848:	27bdffe8 	addiu	sp,sp,-24
    a84c:	afbf0014 	sw	ra,20(sp)
    a850:	3c050000 	lui	a1,0x0
    a854:	24a50000 	addiu	a1,a1,0
    a858:	0c000000 	jal	0 <func_800FF5E0_ovl2>
    a85c:	24060008 	li	a2,8
    a860:	8fbf0014 	lw	ra,20(sp)
    a864:	27bd0018 	addiu	sp,sp,24
    a868:	03e00008 	jr	ra
    a86c:	00000000 	nop

0000a870 <func_80109E00_ovl2>:
func_80109E00_ovl2():
    a870:	3c020000 	lui	v0,0x0
    a874:	24420000 	addiu	v0,v0,0
    a878:	8c4e0000 	lw	t6,0(v0)
    a87c:	27bdffe0 	addiu	sp,sp,-32
    a880:	afbf0014 	sw	ra,20(sp)
    a884:	3c050000 	lui	a1,0x0
    a888:	ac400000 	sw	zero,0(v0)
    a88c:	24a50000 	addiu	a1,a1,0
    a890:	24060008 	li	a2,8
    a894:	0c000000 	jal	0 <func_800FF5E0_ovl2>
    a898:	afae001c 	sw	t6,28(sp)
    a89c:	8fbf0014 	lw	ra,20(sp)
    a8a0:	8faf001c 	lw	t7,28(sp)
    a8a4:	3c018013 	lui	at,0x8013
    a8a8:	27bd0020 	addiu	sp,sp,32
    a8ac:	03e00008 	jr	ra
    a8b0:	ac2fd940 	sw	t7,-9920(at)

0000a8b4 <func_80109E44>:
func_80109E44():
    a8b4:	3c070000 	lui	a3,0x0
    a8b8:	24e70000 	addiu	a3,a3,0
    a8bc:	90ef0000 	lbu	t7,0(a3)
    a8c0:	27bdffe8 	addiu	sp,sp,-24
    a8c4:	afbf0014 	sw	ra,20(sp)
    a8c8:	3c050000 	lui	a1,0x0
    a8cc:	35f80080 	ori	t8,t7,0x80
    a8d0:	24a50000 	addiu	a1,a1,0
    a8d4:	a0f80000 	sb	t8,0(a3)
    a8d8:	0c000000 	jal	0 <func_800FF5E0_ovl2>
    a8dc:	24060008 	li	a2,8
    a8e0:	3c050000 	lui	a1,0x0
    a8e4:	24a50000 	addiu	a1,a1,0
    a8e8:	3c070000 	lui	a3,0x0
    a8ec:	8ca30000 	lw	v1,0(a1)
    a8f0:	24e70000 	addiu	a3,a3,0
    a8f4:	90f90000 	lbu	t9,0(a3)
    a8f8:	00031cc2 	srl	v1,v1,0x13
    a8fc:	30690007 	andi	t1,v1,0x7
    a900:	3328ff7f 	andi	t0,t9,0xff7f
    a904:	00402025 	move	a0,v0
    a908:	1120000e 	beqz	t1,a944 <func_80109E44+0x90>
    a90c:	a0e80000 	sb	t0,0(a3)
    a910:	8caa0020 	lw	t2,32(a1)
    a914:	954b0008 	lhu	t3,8(t2)
    a918:	316c0004 	andi	t4,t3,0x4
    a91c:	5180000a 	beqzl	t4,a948 <func_80109E44+0x94>
    a920:	30690038 	andi	t1,v1,0x38
    a924:	94b80000 	lhu	t8,0(a1)
    a928:	306dfff8 	andi	t5,v1,0xfff8
    a92c:	000d78c0 	sll	t7,t5,0x3
    a930:	33190007 	andi	t9,t8,0x7
    a934:	01f94025 	or	t0,t7,t9
    a938:	a4a80000 	sh	t0,0(a1)
    a93c:	8ca30000 	lw	v1,0(a1)
    a940:	00031cc2 	srl	v1,v1,0x13
    a944:	30690038 	andi	t1,v1,0x38
    a948:	5120000f 	beqzl	t1,a988 <func_80109E44+0xd4>
    a94c:	306901c0 	andi	t1,v1,0x1c0
    a950:	8caa002c 	lw	t2,44(a1)
    a954:	954b0008 	lhu	t3,8(t2)
    a958:	316c0004 	andi	t4,t3,0x4
    a95c:	5180000a 	beqzl	t4,a988 <func_80109E44+0xd4>
    a960:	306901c0 	andi	t1,v1,0x1c0
    a964:	94af0000 	lhu	t7,0(a1)
    a968:	306dffc7 	andi	t5,v1,0xffc7
    a96c:	000dc0c0 	sll	t8,t5,0x3
    a970:	31f90007 	andi	t9,t7,0x7
    a974:	03194025 	or	t0,t8,t9
    a978:	a4a80000 	sh	t0,0(a1)
    a97c:	8ca30000 	lw	v1,0(a1)
    a980:	00031cc2 	srl	v1,v1,0x13
    a984:	306901c0 	andi	t1,v1,0x1c0
    a988:	5120000d 	beqzl	t1,a9c0 <func_80109E44+0x10c>
    a98c:	8fbf0014 	lw	ra,20(sp)
    a990:	8caa0014 	lw	t2,20(a1)
    a994:	954b0008 	lhu	t3,8(t2)
    a998:	316c0004 	andi	t4,t3,0x4
    a99c:	51800008 	beqzl	t4,a9c0 <func_80109E44+0x10c>
    a9a0:	8fbf0014 	lw	ra,20(sp)
    a9a4:	94b80000 	lhu	t8,0(a1)
    a9a8:	306dfe3f 	andi	t5,v1,0xfe3f
    a9ac:	000d78c0 	sll	t7,t5,0x3
    a9b0:	33190007 	andi	t9,t8,0x7
    a9b4:	01f94025 	or	t0,t7,t9
    a9b8:	a4a80000 	sh	t0,0(a1)
    a9bc:	8fbf0014 	lw	ra,20(sp)
    a9c0:	27bd0018 	addiu	sp,sp,24
    a9c4:	00801025 	move	v0,a0
    a9c8:	03e00008 	jr	ra
    a9cc:	00000000 	nop

0000a9d0 <func_80109F60_ovl2>:
func_80109F60_ovl2():
    a9d0:	3c030000 	lui	v1,0x0
    a9d4:	24630000 	addiu	v1,v1,0
    a9d8:	906f0000 	lbu	t7,0(v1)
    a9dc:	27bdffe8 	addiu	sp,sp,-24
    a9e0:	afbf0014 	sw	ra,20(sp)
    a9e4:	3c050000 	lui	a1,0x0
    a9e8:	35f80080 	ori	t8,t7,0x80
    a9ec:	a0780000 	sb	t8,0(v1)
    a9f0:	24a50000 	addiu	a1,a1,0
    a9f4:	0c000000 	jal	0 <func_800FF5E0_ovl2>
    a9f8:	24060008 	li	a2,8
    a9fc:	3c030000 	lui	v1,0x0
    aa00:	24630000 	addiu	v1,v1,0
    aa04:	90790000 	lbu	t9,0(v1)
    aa08:	8fbf0014 	lw	ra,20(sp)
    aa0c:	27bd0018 	addiu	sp,sp,24
    aa10:	3328ff7f 	andi	t0,t9,0xff7f
    aa14:	03e00008 	jr	ra
    aa18:	a0680000 	sb	t0,0(v1)

0000aa1c <func_80109FAC>:
func_80109FAC():
    aa1c:	27bdffa8 	addiu	sp,sp,-88
    aa20:	afbf001c 	sw	ra,28(sp)
    aa24:	afb10018 	sw	s1,24(sp)
    aa28:	afb00014 	sw	s0,20(sp)
    aa2c:	8cae0000 	lw	t6,0(a1)
    aa30:	00808025 	move	s0,a0
    aa34:	00a08825 	move	s1,a1
    aa38:	000e7cc2 	srl	t7,t6,0x13
    aa3c:	31f80001 	andi	t8,t7,0x1
    aa40:	1300000f 	beqz	t8,aa80 <func_80109FAC+0x64>
    aa44:	3c030000 	lui	v1,0x0
    aa48:	24630000 	addiu	v1,v1,0
    aa4c:	c4640034 	lwc1	$f4,52(v1)
    aa50:	c4660024 	lwc1	$f6,36(v1)
    aa54:	46062201 	sub.s	$f8,$f4,$f6
    aa58:	c4840010 	lwc1	$f4,16(a0)
    aa5c:	e4880004 	swc1	$f8,4(a0)
    aa60:	c46a0038 	lwc1	$f10,56(v1)
    aa64:	46045181 	sub.s	$f6,$f10,$f4
    aa68:	e4860008 	swc1	$f6,8(a0)
    aa6c:	c46a0028 	lwc1	$f10,40(v1)
    aa70:	c468003c 	lwc1	$f8,60(v1)
    aa74:	460a4101 	sub.s	$f4,$f8,$f10
    aa78:	10000046 	b	ab94 <func_80109FAC+0x178>
    aa7c:	e484000c 	swc1	$f4,12(a0)
    aa80:	c6060034 	lwc1	$f6,52(s0)
    aa84:	8e240024 	lw	a0,36(s1)
    aa88:	3c030000 	lui	v1,0x0
    aa8c:	e7a6004c 	swc1	$f6,76(sp)
    aa90:	c608002c 	lwc1	$f8,44(s0)
    aa94:	24630000 	addiu	v1,v1,0
    aa98:	c4660024 	lwc1	$f6,36(v1)
    aa9c:	e7a80050 	swc1	$f8,80(sp)
    aaa0:	c60a0038 	lwc1	$f10,56(s0)
    aaa4:	27a5004c 	addiu	a1,sp,76
    aaa8:	27a60040 	addiu	a2,sp,64
    aaac:	e7aa0054 	swc1	$f10,84(sp)
    aab0:	c6040004 	lwc1	$f4,4(s0)
    aab4:	27a70034 	addiu	a3,sp,52
    aab8:	46062200 	add.s	$f8,$f4,$f6
    aabc:	e7a80040 	swc1	$f8,64(sp)
    aac0:	c6040010 	lwc1	$f4,16(s0)
    aac4:	c60a0008 	lwc1	$f10,8(s0)
    aac8:	46045180 	add.s	$f6,$f10,$f4
    aacc:	c46a0028 	lwc1	$f10,40(v1)
    aad0:	e7a60044 	swc1	$f6,68(sp)
    aad4:	c608000c 	lwc1	$f8,12(s0)
    aad8:	460a4100 	add.s	$f4,$f8,$f10
    aadc:	0c000000 	jal	0 <func_800FF5E0_ovl2>
    aae0:	e7a40048 	swc1	$f4,72(sp)
    aae4:	3c030000 	lui	v1,0x0
    aae8:	1040002a 	beqz	v0,ab94 <func_80109FAC+0x178>
    aaec:	24630000 	addiu	v1,v1,0
    aaf0:	c7b0004c 	lwc1	$f16,76(sp)
    aaf4:	c7a60034 	lwc1	$f6,52(sp)
    aaf8:	c7b20054 	lwc1	$f18,84(sp)
    aafc:	c7a8003c 	lwc1	$f8,60(sp)
    ab00:	46103301 	sub.s	$f12,$f6,$f16
    ab04:	c7aa0040 	lwc1	$f10,64(sp)
    ab08:	c7a40048 	lwc1	$f4,72(sp)
    ab0c:	46124381 	sub.s	$f14,$f8,$f18
    ab10:	460c6202 	mul.s	$f8,$f12,$f12
    ab14:	46105001 	sub.s	$f0,$f10,$f16
    ab18:	460e7282 	mul.s	$f10,$f14,$f14
    ab1c:	46122081 	sub.s	$f2,$f4,$f18
    ab20:	460a4100 	add.s	$f4,$f8,$f10
    ab24:	46000202 	mul.s	$f8,$f0,$f0
    ab28:	00000000 	nop
    ab2c:	46021282 	mul.s	$f10,$f2,$f2
    ab30:	460a4200 	add.s	$f8,$f8,$f10
    ab34:	4608203c 	c.lt.s	$f4,$f8
    ab38:	00000000 	nop
    ab3c:	4500000d 	bc1f	ab74 <func_80109FAC+0x158>
    ab40:	00000000 	nop
    ab44:	c46a0024 	lwc1	$f10,36(v1)
    ab48:	460a3101 	sub.s	$f4,$f6,$f10
    ab4c:	c6060010 	lwc1	$f6,16(s0)
    ab50:	e6040004 	swc1	$f4,4(s0)
    ab54:	c7a80038 	lwc1	$f8,56(sp)
    ab58:	46064281 	sub.s	$f10,$f8,$f6
    ab5c:	e60a0008 	swc1	$f10,8(s0)
    ab60:	c4680028 	lwc1	$f8,40(v1)
    ab64:	c7a4003c 	lwc1	$f4,60(sp)
    ab68:	46082181 	sub.s	$f6,$f4,$f8
    ab6c:	10000009 	b	ab94 <func_80109FAC+0x178>
    ab70:	e606000c 	swc1	$f6,12(s0)
    ab74:	8e390000 	lw	t9,0(s1)
    ab78:	962d0000 	lhu	t5,0(s1)
    ab7c:	001944c2 	srl	t0,t9,0x13
    ab80:	310afff8 	andi	t2,t0,0xfff8
    ab84:	000a60c0 	sll	t4,t2,0x3
    ab88:	31ae0007 	andi	t6,t5,0x7
    ab8c:	018e7825 	or	t7,t4,t6
    ab90:	a62f0000 	sh	t7,0(s1)
    ab94:	8fbf001c 	lw	ra,28(sp)
    ab98:	8fb00014 	lw	s0,20(sp)
    ab9c:	8fb10018 	lw	s1,24(sp)
    aba0:	03e00008 	jr	ra
    aba4:	27bd0058 	addiu	sp,sp,88

0000aba8 <func_8010A138>:
func_8010A138():
    aba8:	27bdffa8 	addiu	sp,sp,-88
    abac:	afbf001c 	sw	ra,28(sp)
    abb0:	afb10018 	sw	s1,24(sp)
    abb4:	afb00014 	sw	s0,20(sp)
    abb8:	8cae0000 	lw	t6,0(a1)
    abbc:	00808025 	move	s0,a0
    abc0:	00a08825 	move	s1,a1
    abc4:	000e7cc2 	srl	t7,t6,0x13
    abc8:	31f80008 	andi	t8,t7,0x8
    abcc:	1300000f 	beqz	t8,ac0c <func_8010A138+0x64>
    abd0:	3c030000 	lui	v1,0x0
    abd4:	24630000 	addiu	v1,v1,0
    abd8:	c4640034 	lwc1	$f4,52(v1)
    abdc:	c466002c 	lwc1	$f6,44(v1)
    abe0:	46062201 	sub.s	$f8,$f4,$f6
    abe4:	c4840010 	lwc1	$f4,16(a0)
    abe8:	e4880004 	swc1	$f8,4(a0)
    abec:	c46a0038 	lwc1	$f10,56(v1)
    abf0:	46045181 	sub.s	$f6,$f10,$f4
    abf4:	e4860008 	swc1	$f6,8(a0)
    abf8:	c46a0030 	lwc1	$f10,48(v1)
    abfc:	c468003c 	lwc1	$f8,60(v1)
    ac00:	460a4101 	sub.s	$f4,$f8,$f10
    ac04:	10000046 	b	ad20 <func_8010A138+0x178>
    ac08:	e484000c 	swc1	$f4,12(a0)
    ac0c:	c606003c 	lwc1	$f6,60(s0)
    ac10:	3c030000 	lui	v1,0x0
    ac14:	24630000 	addiu	v1,v1,0
    ac18:	e7a6004c 	swc1	$f6,76(sp)
    ac1c:	c608002c 	lwc1	$f8,44(s0)
    ac20:	c466002c 	lwc1	$f6,44(v1)
    ac24:	27a5004c 	addiu	a1,sp,76
    ac28:	e7a80050 	swc1	$f8,80(sp)
    ac2c:	c60a0040 	lwc1	$f10,64(s0)
    ac30:	27a60040 	addiu	a2,sp,64
    ac34:	27a70034 	addiu	a3,sp,52
    ac38:	e7aa0054 	swc1	$f10,84(sp)
    ac3c:	c6040004 	lwc1	$f4,4(s0)
    ac40:	46062200 	add.s	$f8,$f4,$f6
    ac44:	e7a80040 	swc1	$f8,64(sp)
    ac48:	c6040010 	lwc1	$f4,16(s0)
    ac4c:	c60a0008 	lwc1	$f10,8(s0)
    ac50:	46045180 	add.s	$f6,$f10,$f4
    ac54:	c46a0030 	lwc1	$f10,48(v1)
    ac58:	e7a60044 	swc1	$f6,68(sp)
    ac5c:	c608000c 	lwc1	$f8,12(s0)
    ac60:	460a4100 	add.s	$f4,$f8,$f10
    ac64:	e7a40048 	swc1	$f4,72(sp)
    ac68:	0c000000 	jal	0 <func_800FF5E0_ovl2>
    ac6c:	8e240030 	lw	a0,48(s1)
    ac70:	3c030000 	lui	v1,0x0
    ac74:	1040002a 	beqz	v0,ad20 <func_8010A138+0x178>
    ac78:	24630000 	addiu	v1,v1,0
    ac7c:	c7b0004c 	lwc1	$f16,76(sp)
    ac80:	c7a60034 	lwc1	$f6,52(sp)
    ac84:	c7b20054 	lwc1	$f18,84(sp)
    ac88:	c7a8003c 	lwc1	$f8,60(sp)
    ac8c:	46103301 	sub.s	$f12,$f6,$f16
    ac90:	c7aa0040 	lwc1	$f10,64(sp)
    ac94:	c7a40048 	lwc1	$f4,72(sp)
    ac98:	46124381 	sub.s	$f14,$f8,$f18
    ac9c:	460c6202 	mul.s	$f8,$f12,$f12
    aca0:	46105001 	sub.s	$f0,$f10,$f16
    aca4:	460e7282 	mul.s	$f10,$f14,$f14
    aca8:	46122081 	sub.s	$f2,$f4,$f18
    acac:	460a4100 	add.s	$f4,$f8,$f10
    acb0:	46000202 	mul.s	$f8,$f0,$f0
    acb4:	00000000 	nop
    acb8:	46021282 	mul.s	$f10,$f2,$f2
    acbc:	460a4200 	add.s	$f8,$f8,$f10
    acc0:	4608203c 	c.lt.s	$f4,$f8
    acc4:	00000000 	nop
    acc8:	4500000d 	bc1f	ad00 <func_8010A138+0x158>
    accc:	00000000 	nop
    acd0:	c46a002c 	lwc1	$f10,44(v1)
    acd4:	460a3101 	sub.s	$f4,$f6,$f10
    acd8:	c6060010 	lwc1	$f6,16(s0)
    acdc:	e6040004 	swc1	$f4,4(s0)
    ace0:	c7a80038 	lwc1	$f8,56(sp)
    ace4:	46064281 	sub.s	$f10,$f8,$f6
    ace8:	e60a0008 	swc1	$f10,8(s0)
    acec:	c4680030 	lwc1	$f8,48(v1)
    acf0:	c7a4003c 	lwc1	$f4,60(sp)
    acf4:	46082181 	sub.s	$f6,$f4,$f8
    acf8:	10000009 	b	ad20 <func_8010A138+0x178>
    acfc:	e606000c 	swc1	$f6,12(s0)
    ad00:	8e390000 	lw	t9,0(s1)
    ad04:	962d0000 	lhu	t5,0(s1)
    ad08:	001944c2 	srl	t0,t9,0x13
    ad0c:	310affc7 	andi	t2,t0,0xffc7
    ad10:	000a60c0 	sll	t4,t2,0x3
    ad14:	31ae0007 	andi	t6,t5,0x7
    ad18:	018e7825 	or	t7,t4,t6
    ad1c:	a62f0000 	sh	t7,0(s1)
    ad20:	8fbf001c 	lw	ra,28(sp)
    ad24:	8fb00014 	lw	s0,20(sp)
    ad28:	8fb10018 	lw	s1,24(sp)
    ad2c:	03e00008 	jr	ra
    ad30:	27bd0058 	addiu	sp,sp,88

0000ad34 <func_8010A2C4>:
func_8010A2C4():
    ad34:	27bdff58 	addiu	sp,sp,-168
    ad38:	afbf002c 	sw	ra,44(sp)
    ad3c:	afb10028 	sw	s1,40(sp)
    ad40:	afb00024 	sw	s0,36(sp)
    ad44:	c4840028 	lwc1	$f4,40(a0)
    ad48:	00a08025 	move	s0,a1
    ad4c:	00808825 	move	s1,a0
    ad50:	e7a40098 	swc1	$f4,152(sp)
    ad54:	c4860048 	lwc1	$f6,72(a0)
    ad58:	27a50098 	addiu	a1,sp,152
    ad5c:	27a60068 	addiu	a2,sp,104
    ad60:	e7a6009c 	swc1	$f6,156(sp)
    ad64:	c4880030 	lwc1	$f8,48(a0)
    ad68:	e7a800a0 	swc1	$f8,160(sp)
    ad6c:	0c000000 	jal	0 <func_800FF5E0_ovl2>
    ad70:	90840050 	lbu	a0,80(a0)
    ad74:	c7aa0098 	lwc1	$f10,152(sp)
    ad78:	c7b00068 	lwc1	$f16,104(sp)
    ad7c:	c7a4009c 	lwc1	$f4,156(sp)
    ad80:	c7a6006c 	lwc1	$f6,108(sp)
    ad84:	46105480 	add.s	$f18,$f10,$f16
    ad88:	3c010000 	lui	at,0x0
    ad8c:	c42a0000 	lwc1	$f10,0(at)
    ad90:	46062200 	add.s	$f8,$f4,$f6
    ad94:	e7b2008c 	swc1	$f18,140(sp)
    ad98:	c7b200a0 	lwc1	$f18,160(sp)
    ad9c:	c7a40070 	lwc1	$f4,112(sp)
    ada0:	460a4401 	sub.s	$f16,$f8,$f10
    ada4:	44800000 	mtc1	zero,$f0
    ada8:	3c01bf80 	lui	at,0xbf80
    adac:	46049180 	add.s	$f6,$f18,$f4
    adb0:	44814000 	mtc1	at,$f8
    adb4:	3c0e0000 	lui	t6,0x0
    adb8:	25ce0000 	addiu	t6,t6,0
    adbc:	260f000c 	addiu	t7,s0,12
    adc0:	26180008 	addiu	t8,s0,8
    adc4:	26190004 	addiu	t9,s0,4
    adc8:	e7b00090 	swc1	$f16,144(sp)
    adcc:	e7a60094 	swc1	$f6,148(sp)
    add0:	afb9001c 	sw	t9,28(sp)
    add4:	afb80018 	sw	t8,24(sp)
    add8:	afaf0014 	sw	t7,20(sp)
    addc:	afae0010 	sw	t6,16(sp)
    ade0:	27a40098 	addiu	a0,sp,152
    ade4:	27a5008c 	addiu	a1,sp,140
    ade8:	27a60080 	addiu	a2,sp,128
    adec:	00003825 	move	a3,zero
    adf0:	afa00058 	sw	zero,88(sp)
    adf4:	e7a00080 	swc1	$f0,128(sp)
    adf8:	e7a00088 	swc1	$f0,136(sp)
    adfc:	0c000000 	jal	0 <func_800FF5E0_ovl2>
    ae00:	e7a80084 	swc1	$f8,132(sp)
    ae04:	10400006 	beqz	v0,ae20 <func_8010A2C4+0xec>
    ae08:	8fa90058 	lw	t1,88(sp)
    ae0c:	3c030000 	lui	v1,0x0
    ae10:	24630000 	addiu	v1,v1,0
    ae14:	c46a0038 	lwc1	$f10,56(v1)
    ae18:	24090200 	li	t1,512
    ae1c:	e7aa0054 	swc1	$f10,84(sp)
    ae20:	c6300034 	lwc1	$f16,52(s1)
    ae24:	c7a60068 	lwc1	$f6,104(sp)
    ae28:	27aa0074 	addiu	t2,sp,116
    ae2c:	e7b00098 	swc1	$f16,152(sp)
    ae30:	c6320038 	lwc1	$f18,56(s1)
    ae34:	c7a40098 	lwc1	$f4,152(sp)
    ae38:	c7b00070 	lwc1	$f16,112(sp)
    ae3c:	e7b200a0 	swc1	$f18,160(sp)
    ae40:	c7aa00a0 	lwc1	$f10,160(sp)
    ae44:	46062200 	add.s	$f8,$f4,$f6
    ae48:	27ab0064 	addiu	t3,sp,100
    ae4c:	27ac0060 	addiu	t4,sp,96
    ae50:	46105480 	add.s	$f18,$f10,$f16
    ae54:	27ad005c 	addiu	t5,sp,92
    ae58:	e7a8008c 	swc1	$f8,140(sp)
    ae5c:	afad001c 	sw	t5,28(sp)
    ae60:	e7b20094 	swc1	$f18,148(sp)
    ae64:	afac0018 	sw	t4,24(sp)
    ae68:	afab0014 	sw	t3,20(sp)
    ae6c:	afa90058 	sw	t1,88(sp)
    ae70:	afaa0010 	sw	t2,16(sp)
    ae74:	27a40098 	addiu	a0,sp,152
    ae78:	27a5008c 	addiu	a1,sp,140
    ae7c:	27a60080 	addiu	a2,sp,128
    ae80:	0c000000 	jal	0 <func_800FF5E0_ovl2>
    ae84:	00003825 	move	a3,zero
    ae88:	3c030000 	lui	v1,0x0
    ae8c:	24630000 	addiu	v1,v1,0
    ae90:	1040004e 	beqz	v0,afcc <func_8010A2C4+0x298>
    ae94:	8fa90058 	lw	t1,88(sp)
    ae98:	15200015 	bnez	t1,aef0 <func_8010A2C4+0x1bc>
    ae9c:	00004025 	move	t0,zero
    aea0:	c7a40074 	lwc1	$f4,116(sp)
    aea4:	c4660004 	lwc1	$f6,4(v1)
    aea8:	8fae0064 	lw	t6,100(sp)
    aeac:	c7b2007c 	lwc1	$f18,124(sp)
    aeb0:	46062201 	sub.s	$f8,$f4,$f6
    aeb4:	c4640008 	lwc1	$f4,8(v1)
    aeb8:	c5ca0000 	lwc1	$f10,0(t6)
    aebc:	24080001 	li	t0,1
    aec0:	46049181 	sub.s	$f6,$f18,$f4
    aec4:	46085402 	mul.s	$f16,$f10,$f8
    aec8:	c5ca0008 	lwc1	$f10,8(t6)
    aecc:	c5c4000c 	lwc1	$f4,12(t6)
    aed0:	46065202 	mul.s	$f8,$f10,$f6
    aed4:	46088480 	add.s	$f18,$f16,$f8
    aed8:	c5d00004 	lwc1	$f16,4(t6)
    aedc:	46049280 	add.s	$f10,$f18,$f4
    aee0:	46005187 	neg.s	$f6,$f10
    aee4:	46103203 	div.s	$f8,$f6,$f16
    aee8:	10000025 	b	af80 <func_8010A2C4+0x24c>
    aeec:	e7a8004c 	swc1	$f8,76(sp)
    aef0:	8e06000c 	lw	a2,12(s0)
    aef4:	8faf0064 	lw	t7,100(sp)
    aef8:	c7b20074 	lwc1	$f18,116(sp)
    aefc:	11e60020 	beq	t7,a2,af80 <func_8010A2C4+0x24c>
    af00:	00000000 	nop
    af04:	c4640004 	lwc1	$f4,4(v1)
    af08:	c5e60000 	lwc1	$f6,0(t7)
    af0c:	c7a8007c 	lwc1	$f8,124(sp)
    af10:	46049281 	sub.s	$f10,$f18,$f4
    af14:	c4720008 	lwc1	$f18,8(v1)
    af18:	3c040000 	lui	a0,0x0
    af1c:	24840000 	addiu	a0,a0,0
    af20:	460a3402 	mul.s	$f16,$f6,$f10
    af24:	46124101 	sub.s	$f4,$f8,$f18
    af28:	c5e60008 	lwc1	$f6,8(t7)
    af2c:	c5f2000c 	lwc1	$f18,12(t7)
    af30:	27a50074 	addiu	a1,sp,116
    af34:	46043282 	mul.s	$f10,$f6,$f4
    af38:	3c073f80 	lui	a3,0x3f80
    af3c:	460a8200 	add.s	$f8,$f16,$f10
    af40:	c5f00004 	lwc1	$f16,4(t7)
    af44:	46124180 	add.s	$f6,$f8,$f18
    af48:	c7a80054 	lwc1	$f8,84(sp)
    af4c:	46003107 	neg.s	$f4,$f6
    af50:	46102283 	div.s	$f10,$f4,$f16
    af54:	460a403c 	c.lt.s	$f8,$f10
    af58:	e7aa004c 	swc1	$f10,76(sp)
    af5c:	45000008 	bc1f	af80 <func_8010A2C4+0x24c>
    af60:	00000000 	nop
    af64:	afa80050 	sw	t0,80(sp)
    af68:	0c000000 	jal	0 <func_800FF5E0_ovl2>
    af6c:	afa90058 	sw	t1,88(sp)
    af70:	8fa80050 	lw	t0,80(sp)
    af74:	10400002 	beqz	v0,af80 <func_8010A2C4+0x24c>
    af78:	8fa90058 	lw	t1,88(sp)
    af7c:	24080001 	li	t0,1
    af80:	11000012 	beqz	t0,afcc <func_8010A2C4+0x298>
    af84:	3c180000 	lui	t8,0x0
    af88:	27b90074 	addiu	t9,sp,116
    af8c:	8f2b0000 	lw	t3,0(t9)
    af90:	27180000 	addiu	t8,t8,0
    af94:	8f2a0004 	lw	t2,4(t9)
    af98:	af0b0000 	sw	t3,0(t8)
    af9c:	8f2b0008 	lw	t3,8(t9)
    afa0:	af0a0004 	sw	t2,4(t8)
    afa4:	24090800 	li	t1,2048
    afa8:	af0b0008 	sw	t3,8(t8)
    afac:	8fac0064 	lw	t4,100(sp)
    afb0:	ae0c000c 	sw	t4,12(s0)
    afb4:	8fad0060 	lw	t5,96(sp)
    afb8:	ae0d0008 	sw	t5,8(s0)
    afbc:	8fae005c 	lw	t6,92(sp)
    afc0:	ae0e0004 	sw	t6,4(s0)
    afc4:	c7b2004c 	lwc1	$f18,76(sp)
    afc8:	e7b20054 	swc1	$f18,84(sp)
    afcc:	c626003c 	lwc1	$f6,60(s1)
    afd0:	c7a80068 	lwc1	$f8,104(sp)
    afd4:	27af0074 	addiu	t7,sp,116
    afd8:	e7a60098 	swc1	$f6,152(sp)
    afdc:	c6240040 	lwc1	$f4,64(s1)
    afe0:	c7b00098 	lwc1	$f16,152(sp)
    afe4:	c7a60070 	lwc1	$f6,112(sp)
    afe8:	e7a400a0 	swc1	$f4,160(sp)
    afec:	c7b200a0 	lwc1	$f18,160(sp)
    aff0:	46088280 	add.s	$f10,$f16,$f8
    aff4:	27b80064 	addiu	t8,sp,100
    aff8:	27b90060 	addiu	t9,sp,96
    affc:	46069100 	add.s	$f4,$f18,$f6
    b000:	27aa005c 	addiu	t2,sp,92
    b004:	e7aa008c 	swc1	$f10,140(sp)
    b008:	afaa001c 	sw	t2,28(sp)
    b00c:	e7a40094 	swc1	$f4,148(sp)
    b010:	afb90018 	sw	t9,24(sp)
    b014:	afb80014 	sw	t8,20(sp)
    b018:	afa90058 	sw	t1,88(sp)
    b01c:	afaf0010 	sw	t7,16(sp)
    b020:	27a40098 	addiu	a0,sp,152
    b024:	27a5008c 	addiu	a1,sp,140
    b028:	27a60080 	addiu	a2,sp,128
    b02c:	0c000000 	jal	0 <func_800FF5E0_ovl2>
    b030:	00003825 	move	a3,zero
    b034:	3c030000 	lui	v1,0x0
    b038:	24630000 	addiu	v1,v1,0
    b03c:	10400050 	beqz	v0,b180 <func_8010A2C4+0x44c>
    b040:	8fa90058 	lw	t1,88(sp)
    b044:	15200015 	bnez	t1,b09c <func_8010A2C4+0x368>
    b048:	00004025 	move	t0,zero
    b04c:	c7b00074 	lwc1	$f16,116(sp)
    b050:	c468000c 	lwc1	$f8,12(v1)
    b054:	8fab0064 	lw	t3,100(sp)
    b058:	c7a4007c 	lwc1	$f4,124(sp)
    b05c:	46088281 	sub.s	$f10,$f16,$f8
    b060:	c4700010 	lwc1	$f16,16(v1)
    b064:	c5720000 	lwc1	$f18,0(t3)
    b068:	24080001 	li	t0,1
    b06c:	46102201 	sub.s	$f8,$f4,$f16
    b070:	460a9182 	mul.s	$f6,$f18,$f10
    b074:	c5720008 	lwc1	$f18,8(t3)
    b078:	c570000c 	lwc1	$f16,12(t3)
    b07c:	46089282 	mul.s	$f10,$f18,$f8
    b080:	460a3100 	add.s	$f4,$f6,$f10
    b084:	c5660004 	lwc1	$f6,4(t3)
    b088:	46102480 	add.s	$f18,$f4,$f16
    b08c:	46009207 	neg.s	$f8,$f18
    b090:	46064283 	div.s	$f10,$f8,$f6
    b094:	10000027 	b	b134 <func_8010A2C4+0x400>
    b098:	e7aa0044 	swc1	$f10,68(sp)
    b09c:	8e06000c 	lw	a2,12(s0)
    b0a0:	8fac0064 	lw	t4,100(sp)
    b0a4:	c7a40074 	lwc1	$f4,116(sp)
    b0a8:	11860022 	beq	t4,a2,b134 <func_8010A2C4+0x400>
    b0ac:	00000000 	nop
    b0b0:	c470000c 	lwc1	$f16,12(v1)
    b0b4:	c5880000 	lwc1	$f8,0(t4)
    b0b8:	c7aa007c 	lwc1	$f10,124(sp)
    b0bc:	46102481 	sub.s	$f18,$f4,$f16
    b0c0:	c4640010 	lwc1	$f4,16(v1)
    b0c4:	3c040000 	lui	a0,0x0
    b0c8:	24840000 	addiu	a0,a0,0
    b0cc:	46124182 	mul.s	$f6,$f8,$f18
    b0d0:	46045401 	sub.s	$f16,$f10,$f4
    b0d4:	c5880008 	lwc1	$f8,8(t4)
    b0d8:	c584000c 	lwc1	$f4,12(t4)
    b0dc:	27a50074 	addiu	a1,sp,116
    b0e0:	46104482 	mul.s	$f18,$f8,$f16
    b0e4:	3c073f80 	lui	a3,0x3f80
    b0e8:	46123280 	add.s	$f10,$f6,$f18
    b0ec:	c5860004 	lwc1	$f6,4(t4)
    b0f0:	46045200 	add.s	$f8,$f10,$f4
    b0f4:	c7aa0054 	lwc1	$f10,84(sp)
    b0f8:	46004407 	neg.s	$f16,$f8
    b0fc:	46068483 	div.s	$f18,$f16,$f6
    b100:	4612503c 	c.lt.s	$f10,$f18
    b104:	e7b20044 	swc1	$f18,68(sp)
    b108:	4500000a 	bc1f	b134 <func_8010A2C4+0x400>
    b10c:	00000000 	nop
    b110:	afa80048 	sw	t0,72(sp)
    b114:	0c000000 	jal	0 <func_800FF5E0_ovl2>
    b118:	afa90058 	sw	t1,88(sp)
    b11c:	3c030000 	lui	v1,0x0
    b120:	24630000 	addiu	v1,v1,0
    b124:	8fa80048 	lw	t0,72(sp)
    b128:	10400002 	beqz	v0,b134 <func_8010A2C4+0x400>
    b12c:	8fa90058 	lw	t1,88(sp)
    b130:	24080001 	li	t0,1
    b134:	11000012 	beqz	t0,b180 <func_8010A2C4+0x44c>
    b138:	3c0d0000 	lui	t5,0x0
    b13c:	27ae0074 	addiu	t6,sp,116
    b140:	8dd80000 	lw	t8,0(t6)
    b144:	25ad0000 	addiu	t5,t5,0
    b148:	8dcf0004 	lw	t7,4(t6)
    b14c:	adb80000 	sw	t8,0(t5)
    b150:	8dd80008 	lw	t8,8(t6)
    b154:	adaf0004 	sw	t7,4(t5)
    b158:	24090400 	li	t1,1024
    b15c:	adb80008 	sw	t8,8(t5)
    b160:	8fb90064 	lw	t9,100(sp)
    b164:	ae19000c 	sw	t9,12(s0)
    b168:	8faa0060 	lw	t2,96(sp)
    b16c:	ae0a0008 	sw	t2,8(s0)
    b170:	8fab005c 	lw	t3,92(sp)
    b174:	ae0b0004 	sw	t3,4(s0)
    b178:	c7a40044 	lwc1	$f4,68(sp)
    b17c:	e7a40054 	swc1	$f4,84(sp)
    b180:	c6280004 	lwc1	$f8,4(s1)
    b184:	c4700004 	lwc1	$f16,4(v1)
    b188:	26220010 	addiu	v0,s1,16
    b18c:	27ac0074 	addiu	t4,sp,116
    b190:	46104180 	add.s	$f6,$f8,$f16
    b194:	c4700008 	lwc1	$f16,8(v1)
    b198:	27ad0064 	addiu	t5,sp,100
    b19c:	27ae0060 	addiu	t6,sp,96
    b1a0:	e7a60098 	swc1	$f6,152(sp)
    b1a4:	c62a0008 	lwc1	$f10,8(s1)
    b1a8:	c4520004 	lwc1	$f18,4(v0)
    b1ac:	27af005c 	addiu	t7,sp,92
    b1b0:	27a40098 	addiu	a0,sp,152
    b1b4:	46125100 	add.s	$f4,$f10,$f18
    b1b8:	c7aa0098 	lwc1	$f10,152(sp)
    b1bc:	27a5008c 	addiu	a1,sp,140
    b1c0:	27a60080 	addiu	a2,sp,128
    b1c4:	e7a4009c 	swc1	$f4,156(sp)
    b1c8:	c628000c 	lwc1	$f8,12(s1)
    b1cc:	e7aa008c 	swc1	$f10,140(sp)
    b1d0:	00003825 	move	a3,zero
    b1d4:	46104180 	add.s	$f6,$f8,$f16
    b1d8:	e7a600a0 	swc1	$f6,160(sp)
    b1dc:	c4440008 	lwc1	$f4,8(v0)
    b1e0:	c6320008 	lwc1	$f18,8(s1)
    b1e4:	c7b000a0 	lwc1	$f16,160(sp)
    b1e8:	afa90058 	sw	t1,88(sp)
    b1ec:	46049200 	add.s	$f8,$f18,$f4
    b1f0:	afaf001c 	sw	t7,28(sp)
    b1f4:	afae0018 	sw	t6,24(sp)
    b1f8:	afad0014 	sw	t5,20(sp)
    b1fc:	e7a80090 	swc1	$f8,144(sp)
    b200:	afac0010 	sw	t4,16(sp)
    b204:	0c000000 	jal	0 <func_800FF5E0_ovl2>
    b208:	e7b00094 	swc1	$f16,148(sp)
    b20c:	3c030000 	lui	v1,0x0
    b210:	24630000 	addiu	v1,v1,0
    b214:	10400050 	beqz	v0,b358 <func_8010A2C4+0x624>
    b218:	8fa90058 	lw	t1,88(sp)
    b21c:	15200015 	bnez	t1,b274 <func_8010A2C4+0x540>
    b220:	00004025 	move	t0,zero
    b224:	c7a60074 	lwc1	$f6,116(sp)
    b228:	c46a0004 	lwc1	$f10,4(v1)
    b22c:	8fb80064 	lw	t8,100(sp)
    b230:	c7b0007c 	lwc1	$f16,124(sp)
    b234:	460a3481 	sub.s	$f18,$f6,$f10
    b238:	c4660008 	lwc1	$f6,8(v1)
    b23c:	c7040000 	lwc1	$f4,0(t8)
    b240:	24080001 	li	t0,1
    b244:	46068281 	sub.s	$f10,$f16,$f6
    b248:	46122202 	mul.s	$f8,$f4,$f18
    b24c:	c7040008 	lwc1	$f4,8(t8)
    b250:	c706000c 	lwc1	$f6,12(t8)
    b254:	460a2482 	mul.s	$f18,$f4,$f10
    b258:	46124400 	add.s	$f16,$f8,$f18
    b25c:	c7080004 	lwc1	$f8,4(t8)
    b260:	46068100 	add.s	$f4,$f16,$f6
    b264:	46002287 	neg.s	$f10,$f4
    b268:	46085483 	div.s	$f18,$f10,$f8
    b26c:	10000027 	b	b30c <func_8010A2C4+0x5d8>
    b270:	e7b2003c 	swc1	$f18,60(sp)
    b274:	8e06000c 	lw	a2,12(s0)
    b278:	8fb90064 	lw	t9,100(sp)
    b27c:	c7b00074 	lwc1	$f16,116(sp)
    b280:	13260022 	beq	t9,a2,b30c <func_8010A2C4+0x5d8>
    b284:	00000000 	nop
    b288:	c4660004 	lwc1	$f6,4(v1)
    b28c:	c72a0000 	lwc1	$f10,0(t9)
    b290:	c7b2007c 	lwc1	$f18,124(sp)
    b294:	46068101 	sub.s	$f4,$f16,$f6
    b298:	c4700008 	lwc1	$f16,8(v1)
    b29c:	3c040000 	lui	a0,0x0
    b2a0:	24840000 	addiu	a0,a0,0
    b2a4:	46045202 	mul.s	$f8,$f10,$f4
    b2a8:	46109181 	sub.s	$f6,$f18,$f16
    b2ac:	c72a0008 	lwc1	$f10,8(t9)
    b2b0:	c730000c 	lwc1	$f16,12(t9)
    b2b4:	27a50074 	addiu	a1,sp,116
    b2b8:	46065102 	mul.s	$f4,$f10,$f6
    b2bc:	3c073f80 	lui	a3,0x3f80
    b2c0:	46044480 	add.s	$f18,$f8,$f4
    b2c4:	c7280004 	lwc1	$f8,4(t9)
    b2c8:	46109280 	add.s	$f10,$f18,$f16
    b2cc:	c7b20054 	lwc1	$f18,84(sp)
    b2d0:	46005187 	neg.s	$f6,$f10
    b2d4:	46083103 	div.s	$f4,$f6,$f8
    b2d8:	4604903c 	c.lt.s	$f18,$f4
    b2dc:	e7a4003c 	swc1	$f4,60(sp)
    b2e0:	4500000a 	bc1f	b30c <func_8010A2C4+0x5d8>
    b2e4:	00000000 	nop
    b2e8:	afa80040 	sw	t0,64(sp)
    b2ec:	0c000000 	jal	0 <func_800FF5E0_ovl2>
    b2f0:	afa90058 	sw	t1,88(sp)
    b2f4:	3c030000 	lui	v1,0x0
    b2f8:	24630000 	addiu	v1,v1,0
    b2fc:	8fa80040 	lw	t0,64(sp)
    b300:	10400002 	beqz	v0,b30c <func_8010A2C4+0x5d8>
    b304:	8fa90058 	lw	t1,88(sp)
    b308:	24080001 	li	t0,1
    b30c:	11000012 	beqz	t0,b358 <func_8010A2C4+0x624>
    b310:	3c0a0000 	lui	t2,0x0
    b314:	27ab0074 	addiu	t3,sp,116
    b318:	8d6d0000 	lw	t5,0(t3)
    b31c:	254a0000 	addiu	t2,t2,0
    b320:	8d6c0004 	lw	t4,4(t3)
    b324:	ad4d0000 	sw	t5,0(t2)
    b328:	8d6d0008 	lw	t5,8(t3)
    b32c:	ad4c0004 	sw	t4,4(t2)
    b330:	24090800 	li	t1,2048
    b334:	ad4d0008 	sw	t5,8(t2)
    b338:	8fae0064 	lw	t6,100(sp)
    b33c:	ae0e000c 	sw	t6,12(s0)
    b340:	8faf0060 	lw	t7,96(sp)
    b344:	ae0f0008 	sw	t7,8(s0)
    b348:	8fb8005c 	lw	t8,92(sp)
    b34c:	ae180004 	sw	t8,4(s0)
    b350:	c7b0003c 	lwc1	$f16,60(sp)
    b354:	e7b00054 	swc1	$f16,84(sp)
    b358:	c62a0004 	lwc1	$f10,4(s1)
    b35c:	c466000c 	lwc1	$f6,12(v1)
    b360:	c4640010 	lwc1	$f4,16(v1)
    b364:	27b90074 	addiu	t9,sp,116
    b368:	46065200 	add.s	$f8,$f10,$f6
    b36c:	27aa0064 	addiu	t2,sp,100
    b370:	27ab0060 	addiu	t3,sp,96
    b374:	27ac005c 	addiu	t4,sp,92
    b378:	e7a80098 	swc1	$f8,152(sp)
    b37c:	c632000c 	lwc1	$f18,12(s1)
    b380:	c7aa0098 	lwc1	$f10,152(sp)
    b384:	afa90058 	sw	t1,88(sp)
    b388:	46049400 	add.s	$f16,$f18,$f4
    b38c:	afac001c 	sw	t4,28(sp)
    b390:	afab0018 	sw	t3,24(sp)
    b394:	afaa0014 	sw	t2,20(sp)
    b398:	e7b000a0 	swc1	$f16,160(sp)
    b39c:	c7a600a0 	lwc1	$f6,160(sp)
    b3a0:	afb90010 	sw	t9,16(sp)
    b3a4:	27a40098 	addiu	a0,sp,152
    b3a8:	27a5008c 	addiu	a1,sp,140
    b3ac:	27a60080 	addiu	a2,sp,128
    b3b0:	00003825 	move	a3,zero
    b3b4:	e7aa008c 	swc1	$f10,140(sp)
    b3b8:	0c000000 	jal	0 <func_800FF5E0_ovl2>
    b3bc:	e7a60094 	swc1	$f6,148(sp)
    b3c0:	3c030000 	lui	v1,0x0
    b3c4:	24630000 	addiu	v1,v1,0
    b3c8:	10400038 	beqz	v0,b4ac <func_8010A2C4+0x778>
    b3cc:	8fa90058 	lw	t1,88(sp)
    b3d0:	15200003 	bnez	t1,b3e0 <func_8010A2C4+0x6ac>
    b3d4:	00008825 	move	s1,zero
    b3d8:	10000023 	b	b468 <func_8010A2C4+0x734>
    b3dc:	24110001 	li	s1,1
    b3e0:	8e06000c 	lw	a2,12(s0)
    b3e4:	8fad0064 	lw	t5,100(sp)
    b3e8:	c7a80074 	lwc1	$f8,116(sp)
    b3ec:	11a6001e 	beq	t5,a2,b468 <func_8010A2C4+0x734>
    b3f0:	00000000 	nop
    b3f4:	c472000c 	lwc1	$f18,12(v1)
    b3f8:	c5b00000 	lwc1	$f16,0(t5)
    b3fc:	c7a6007c 	lwc1	$f6,124(sp)
    b400:	46124101 	sub.s	$f4,$f8,$f18
    b404:	c4680010 	lwc1	$f8,16(v1)
    b408:	3c040000 	lui	a0,0x0
    b40c:	24840000 	addiu	a0,a0,0
    b410:	46048282 	mul.s	$f10,$f16,$f4
    b414:	46083481 	sub.s	$f18,$f6,$f8
    b418:	c5b00008 	lwc1	$f16,8(t5)
    b41c:	c5a8000c 	lwc1	$f8,12(t5)
    b420:	27a50074 	addiu	a1,sp,116
    b424:	46128102 	mul.s	$f4,$f16,$f18
    b428:	3c073f80 	lui	a3,0x3f80
    b42c:	46045180 	add.s	$f6,$f10,$f4
    b430:	c5aa0004 	lwc1	$f10,4(t5)
    b434:	c7a40054 	lwc1	$f4,84(sp)
    b438:	46083400 	add.s	$f16,$f6,$f8
    b43c:	46008487 	neg.s	$f18,$f16
    b440:	460a9003 	div.s	$f0,$f18,$f10
    b444:	4600203c 	c.lt.s	$f4,$f0
    b448:	00000000 	nop
    b44c:	45000006 	bc1f	b468 <func_8010A2C4+0x734>
    b450:	00000000 	nop
    b454:	0c000000 	jal	0 <func_800FF5E0_ovl2>
    b458:	afa90058 	sw	t1,88(sp)
    b45c:	10400002 	beqz	v0,b468 <func_8010A2C4+0x734>
    b460:	8fa90058 	lw	t1,88(sp)
    b464:	24110001 	li	s1,1
    b468:	12200010 	beqz	s1,b4ac <func_8010A2C4+0x778>
    b46c:	3c0e0000 	lui	t6,0x0
    b470:	27af0074 	addiu	t7,sp,116
    b474:	8df90000 	lw	t9,0(t7)
    b478:	25ce0000 	addiu	t6,t6,0
    b47c:	8df80004 	lw	t8,4(t7)
    b480:	add90000 	sw	t9,0(t6)
    b484:	8df90008 	lw	t9,8(t7)
    b488:	add80004 	sw	t8,4(t6)
    b48c:	24090400 	li	t1,1024
    b490:	add90008 	sw	t9,8(t6)
    b494:	8faa0064 	lw	t2,100(sp)
    b498:	ae0a000c 	sw	t2,12(s0)
    b49c:	8fab0060 	lw	t3,96(sp)
    b4a0:	ae0b0008 	sw	t3,8(s0)
    b4a4:	8fac005c 	lw	t4,92(sp)
    b4a8:	ae0c0004 	sw	t4,4(s0)
    b4ac:	1120000b 	beqz	t1,b4dc <func_8010A2C4+0x7a8>
    b4b0:	00001025 	move	v0,zero
    b4b4:	8e0d0000 	lw	t5,0(s0)
    b4b8:	960a0000 	lhu	t2,0(s0)
    b4bc:	24020001 	li	v0,1
    b4c0:	000d74c2 	srl	t6,t5,0x13
    b4c4:	01c97825 	or	t7,t6,t1
    b4c8:	000fc8c0 	sll	t9,t7,0x3
    b4cc:	314b0007 	andi	t3,t2,0x7
    b4d0:	032b6025 	or	t4,t9,t3
    b4d4:	10000001 	b	b4dc <func_8010A2C4+0x7a8>
    b4d8:	a60c0000 	sh	t4,0(s0)
    b4dc:	8fbf002c 	lw	ra,44(sp)
    b4e0:	8fb00024 	lw	s0,36(sp)
    b4e4:	8fb10028 	lw	s1,40(sp)
    b4e8:	03e00008 	jr	ra
    b4ec:	27bd00a8 	addiu	sp,sp,168

0000b4f0 <func_8010AA80>:
func_8010AA80():
    b4f0:	27bdffa8 	addiu	sp,sp,-88
    b4f4:	44800000 	mtc1	zero,$f0
    b4f8:	3c01bf80 	lui	at,0xbf80
    b4fc:	44812000 	mtc1	at,$f4
    b500:	afbf002c 	sw	ra,44(sp)
    b504:	afb00028 	sw	s0,40(sp)
    b508:	afa5005c 	sw	a1,92(sp)
    b50c:	e7a00030 	swc1	$f0,48(sp)
    b510:	e7a00038 	swc1	$f0,56(sp)
    b514:	e7a40034 	swc1	$f4,52(sp)
    b518:	c4860004 	lwc1	$f6,4(a0)
    b51c:	3c010000 	lui	at,0x0
    b520:	00808025 	move	s0,a0
    b524:	e7a60048 	swc1	$f6,72(sp)
    b528:	c48a0018 	lwc1	$f10,24(a0)
    b52c:	c4880008 	lwc1	$f8,8(a0)
    b530:	c7a40048 	lwc1	$f4,72(sp)
    b534:	27a5003c 	addiu	a1,sp,60
    b538:	460a4400 	add.s	$f16,$f8,$f10
    b53c:	c4280000 	lwc1	$f8,0(at)
    b540:	27a60030 	addiu	a2,sp,48
    b544:	00003825 	move	a3,zero
    b548:	e7b0004c 	swc1	$f16,76(sp)
    b54c:	c492000c 	lwc1	$f18,12(a0)
    b550:	c7a6004c 	lwc1	$f6,76(sp)
    b554:	afa0001c 	sw	zero,28(sp)
    b558:	e7b20050 	swc1	$f18,80(sp)
    b55c:	46083281 	sub.s	$f10,$f6,$f8
    b560:	c7b00050 	lwc1	$f16,80(sp)
    b564:	afa00018 	sw	zero,24(sp)
    b568:	afa00014 	sw	zero,20(sp)
    b56c:	e7aa0040 	swc1	$f10,64(sp)
    b570:	afa00010 	sw	zero,16(sp)
    b574:	27a40048 	addiu	a0,sp,72
    b578:	e7a4003c 	swc1	$f4,60(sp)
    b57c:	0c000000 	jal	0 <func_800FF5E0_ovl2>
    b580:	e7b00044 	swc1	$f16,68(sp)
    b584:	10400003 	beqz	v0,b594 <func_8010AA80+0xa4>
    b588:	3c030000 	lui	v1,0x0
    b58c:	1000003a 	b	b678 <func_8010AA80+0x188>
    b590:	24020001 	li	v0,1
    b594:	24630000 	addiu	v1,v1,0
    b598:	c4640004 	lwc1	$f4,4(v1)
    b59c:	c6120004 	lwc1	$f18,4(s0)
    b5a0:	27a40048 	addiu	a0,sp,72
    b5a4:	27a5003c 	addiu	a1,sp,60
    b5a8:	46049180 	add.s	$f6,$f18,$f4
    b5ac:	c4640008 	lwc1	$f4,8(v1)
    b5b0:	27a60030 	addiu	a2,sp,48
    b5b4:	00003825 	move	a3,zero
    b5b8:	e7a60048 	swc1	$f6,72(sp)
    b5bc:	c60a0014 	lwc1	$f10,20(s0)
    b5c0:	c6080008 	lwc1	$f8,8(s0)
    b5c4:	460a4400 	add.s	$f16,$f8,$f10
    b5c8:	c7a80048 	lwc1	$f8,72(sp)
    b5cc:	e7b0004c 	swc1	$f16,76(sp)
    b5d0:	c612000c 	lwc1	$f18,12(s0)
    b5d4:	afa0001c 	sw	zero,28(sp)
    b5d8:	afa00018 	sw	zero,24(sp)
    b5dc:	46049180 	add.s	$f6,$f18,$f4
    b5e0:	afa00014 	sw	zero,20(sp)
    b5e4:	afa00010 	sw	zero,16(sp)
    b5e8:	e7a8003c 	swc1	$f8,60(sp)
    b5ec:	e7a60050 	swc1	$f6,80(sp)
    b5f0:	c7aa0050 	lwc1	$f10,80(sp)
    b5f4:	0c000000 	jal	0 <func_800FF5E0_ovl2>
    b5f8:	e7aa0044 	swc1	$f10,68(sp)
    b5fc:	3c030000 	lui	v1,0x0
    b600:	10400003 	beqz	v0,b610 <func_8010AA80+0x120>
    b604:	24630000 	addiu	v1,v1,0
    b608:	1000001b 	b	b678 <func_8010AA80+0x188>
    b60c:	24020001 	li	v0,1
    b610:	c6100004 	lwc1	$f16,4(s0)
    b614:	c472000c 	lwc1	$f18,12(v1)
    b618:	c4680010 	lwc1	$f8,16(v1)
    b61c:	27a40048 	addiu	a0,sp,72
    b620:	46128100 	add.s	$f4,$f16,$f18
    b624:	27a5003c 	addiu	a1,sp,60
    b628:	27a60030 	addiu	a2,sp,48
    b62c:	00003825 	move	a3,zero
    b630:	e7a40048 	swc1	$f4,72(sp)
    b634:	c606000c 	lwc1	$f6,12(s0)
    b638:	c7b00048 	lwc1	$f16,72(sp)
    b63c:	afa0001c 	sw	zero,28(sp)
    b640:	46083280 	add.s	$f10,$f6,$f8
    b644:	afa00018 	sw	zero,24(sp)
    b648:	afa00014 	sw	zero,20(sp)
    b64c:	afa00010 	sw	zero,16(sp)
    b650:	e7aa0050 	swc1	$f10,80(sp)
    b654:	c7b20050 	lwc1	$f18,80(sp)
    b658:	e7b0003c 	swc1	$f16,60(sp)
    b65c:	0c000000 	jal	0 <func_800FF5E0_ovl2>
    b660:	e7b20044 	swc1	$f18,68(sp)
    b664:	50400004 	beqzl	v0,b678 <func_8010AA80+0x188>
    b668:	00001025 	move	v0,zero
    b66c:	10000002 	b	b678 <func_8010AA80+0x188>
    b670:	24020001 	li	v0,1
    b674:	00001025 	move	v0,zero
    b678:	8fbf002c 	lw	ra,44(sp)
    b67c:	8fb00028 	lw	s0,40(sp)
    b680:	27bd0058 	addiu	sp,sp,88
    b684:	03e00008 	jr	ra
    b688:	00000000 	nop

0000b68c <func_8010AC1C_ovl2>:
func_8010AC1C_ovl2():
    b68c:	27bdff68 	addiu	sp,sp,-152
    b690:	afbf0034 	sw	ra,52(sp)
    b694:	afb10030 	sw	s1,48(sp)
    b698:	afb0002c 	sw	s0,44(sp)
    b69c:	8cae000c 	lw	t6,12(a1)
    b6a0:	00808825 	move	s1,a0
    b6a4:	00a08025 	move	s0,a1
    b6a8:	afae0094 	sw	t6,148(sp)
    b6ac:	8caf0008 	lw	t7,8(a1)
    b6b0:	24080001 	li	t0,1
    b6b4:	27ac0078 	addiu	t4,sp,120
    b6b8:	afaf0090 	sw	t7,144(sp)
    b6bc:	8cb80004 	lw	t8,4(a1)
    b6c0:	27af0090 	addiu	t7,sp,144
    b6c4:	27ad0060 	addiu	t5,sp,96
    b6c8:	afb80068 	sw	t8,104(sp)
    b6cc:	c4840004 	lwc1	$f4,4(a0)
    b6d0:	27b80068 	addiu	t8,sp,104
    b6d4:	3c073f80 	lui	a3,0x3f80
    b6d8:	e7a40084 	swc1	$f4,132(sp)
    b6dc:	c4880018 	lwc1	$f8,24(a0)
    b6e0:	c4860008 	lwc1	$f6,8(a0)
    b6e4:	c7a40084 	lwc1	$f4,132(sp)
    b6e8:	46083280 	add.s	$f10,$f6,$f8
    b6ec:	e7aa0088 	swc1	$f10,136(sp)
    b6f0:	c490000c 	lwc1	$f16,12(a0)
    b6f4:	3c040000 	lui	a0,0x0
    b6f8:	24840000 	addiu	a0,a0,0
    b6fc:	e7b0008c 	swc1	$f16,140(sp)
    b700:	8cb90000 	lw	t9,0(a1)
    b704:	27a50084 	addiu	a1,sp,132
    b708:	00194cc2 	srl	t1,t9,0x13
    b70c:	312a0200 	andi	t2,t1,0x200
    b710:	55400013 	bnezl	t2,b760 <func_8010AC1C_ovl2+0xd4>
    b714:	8e06000c 	lw	a2,12(s0)
    b718:	c5d20000 	lwc1	$f18,0(t6)
    b71c:	c5c80008 	lwc1	$f8,8(t6)
    b720:	c7aa008c 	lwc1	$f10,140(sp)
    b724:	46049182 	mul.s	$f6,$f18,$f4
    b728:	c5c4000c 	lwc1	$f4,12(t6)
    b72c:	460a4402 	mul.s	$f16,$f8,$f10
    b730:	46103480 	add.s	$f18,$f6,$f16
    b734:	c5c60004 	lwc1	$f6,4(t6)
    b738:	c7b00088 	lwc1	$f16,136(sp)
    b73c:	46049200 	add.s	$f8,$f18,$f4
    b740:	46004287 	neg.s	$f10,$f8
    b744:	46065003 	div.s	$f0,$f10,$f6
    b748:	4600803c 	c.lt.s	$f16,$f0
    b74c:	00000000 	nop
    b750:	45020003 	bc1fl	b760 <func_8010AC1C_ovl2+0xd4>
    b754:	8e06000c 	lw	a2,12(s0)
    b758:	e7a00088 	swc1	$f0,136(sp)
    b75c:	8e06000c 	lw	a2,12(s0)
    b760:	27ae0094 	addiu	t6,sp,148
    b764:	afae0018 	sw	t6,24(sp)
    b768:	afa80064 	sw	t0,100(sp)
    b76c:	afb80020 	sw	t8,32(sp)
    b770:	afaf001c 	sw	t7,28(sp)
    b774:	afad0014 	sw	t5,20(sp)
    b778:	0c000000 	jal	0 <func_800FF5E0_ovl2>
    b77c:	afac0010 	sw	t4,16(sp)
    b780:	10400008 	beqz	v0,b7a4 <func_8010AC1C_ovl2+0x118>
    b784:	8fa80064 	lw	t0,100(sp)
    b788:	24010001 	li	at,1
    b78c:	10410005 	beq	v0,at,b7a4 <func_8010AC1C_ovl2+0x118>
    b790:	24010002 	li	at,2
    b794:	10410015 	beq	v0,at,b7ec <func_8010AC1C_ovl2+0x160>
    b798:	27ae0084 	addiu	t6,sp,132
    b79c:	10000056 	b	b8f8 <func_8010AC1C_ovl2+0x26c>
    b7a0:	8fa90094 	lw	t1,148(sp)
    b7a4:	27a90078 	addiu	t1,sp,120
    b7a8:	8d2b0000 	lw	t3,0(t1)
    b7ac:	27b9006c 	addiu	t9,sp,108
    b7b0:	af2b0000 	sw	t3,0(t9)
    b7b4:	8d2a0004 	lw	t2,4(t1)
    b7b8:	af2a0004 	sw	t2,4(t9)
    b7bc:	8d2b0008 	lw	t3,8(t1)
    b7c0:	af2b0008 	sw	t3,8(t9)
    b7c4:	8e0c0000 	lw	t4,0(s0)
    b7c8:	960a0000 	lhu	t2,0(s0)
    b7cc:	000c6cc2 	srl	t5,t4,0x13
    b7d0:	31aef1ff 	andi	t6,t5,0xf1ff
    b7d4:	35d80200 	ori	t8,t6,0x200
    b7d8:	001848c0 	sll	t1,t8,0x3
    b7dc:	314b0007 	andi	t3,t2,0x7
    b7e0:	012b6025 	or	t4,t1,t3
    b7e4:	10000043 	b	b8f4 <func_8010AC1C_ovl2+0x268>
    b7e8:	a60c0000 	sh	t4,0(s0)
    b7ec:	8dd80000 	lw	t8,0(t6)
    b7f0:	27ad006c 	addiu	t5,sp,108
    b7f4:	3c020000 	lui	v0,0x0
    b7f8:	adb80000 	sw	t8,0(t5)
    b7fc:	8dcf0004 	lw	t7,4(t6)
    b800:	24420000 	addiu	v0,v0,0
    b804:	24030800 	li	v1,2048
    b808:	adaf0004 	sw	t7,4(t5)
    b80c:	8dd80008 	lw	t8,8(t6)
    b810:	adb80008 	sw	t8,8(t5)
    b814:	8fb90094 	lw	t9,148(sp)
    b818:	c7a4006c 	lwc1	$f4,108(sp)
    b81c:	c7a60074 	lwc1	$f6,116(sp)
    b820:	c7320000 	lwc1	$f18,0(t9)
    b824:	c72a0008 	lwc1	$f10,8(t9)
    b828:	46049202 	mul.s	$f8,$f18,$f4
    b82c:	00000000 	nop
    b830:	46065402 	mul.s	$f16,$f10,$f6
    b834:	c72a000c 	lwc1	$f10,12(t9)
    b838:	46104480 	add.s	$f18,$f8,$f16
    b83c:	460a9200 	add.s	$f8,$f18,$f10
    b840:	c7320004 	lwc1	$f18,4(t9)
    b844:	46004407 	neg.s	$f16,$f8
    b848:	c7a80078 	lwc1	$f8,120(sp)
    b84c:	46128283 	div.s	$f10,$f16,$f18
    b850:	c7b00080 	lwc1	$f16,128(sp)
    b854:	c4520014 	lwc1	$f18,20(v0)
    b858:	46082001 	sub.s	$f0,$f4,$f8
    b85c:	c4440018 	lwc1	$f4,24(v0)
    b860:	46103081 	sub.s	$f2,$f6,$f16
    b864:	44808000 	mtc1	zero,$f16
    b868:	e7aa0070 	swc1	$f10,112(sp)
    b86c:	46120282 	mul.s	$f10,$f0,$f18
    b870:	00000000 	nop
    b874:	46041202 	mul.s	$f8,$f2,$f4
    b878:	46085180 	add.s	$f6,$f10,$f8
    b87c:	46000202 	mul.s	$f8,$f0,$f0
    b880:	4606803e 	c.le.s	$f16,$f6
    b884:	46021182 	mul.s	$f6,$f2,$f2
    b888:	45000005 	bc1f	b8a0 <func_8010AC1C_ovl2+0x214>
    b88c:	00000000 	nop
    b890:	c44c000c 	lwc1	$f12,12(v0)
    b894:	c44e0010 	lwc1	$f14,16(v0)
    b898:	10000003 	b	b8a8 <func_8010AC1C_ovl2+0x21c>
    b89c:	24030400 	li	v1,1024
    b8a0:	c44c0004 	lwc1	$f12,4(v0)
    b8a4:	c44e0008 	lwc1	$f14,8(v0)
    b8a8:	460c6482 	mul.s	$f18,$f12,$f12
    b8ac:	46064400 	add.s	$f16,$f8,$f6
    b8b0:	460e7102 	mul.s	$f4,$f14,$f14
    b8b4:	46049280 	add.s	$f10,$f18,$f4
    b8b8:	4610503c 	c.lt.s	$f10,$f16
    b8bc:	00000000 	nop
    b8c0:	45020004 	bc1fl	b8d4 <func_8010AC1C_ovl2+0x248>
    b8c4:	8e0a0000 	lw	t2,0(s0)
    b8c8:	1000000a 	b	b8f4 <func_8010AC1C_ovl2+0x268>
    b8cc:	00004025 	move	t0,zero
    b8d0:	8e0a0000 	lw	t2,0(s0)
    b8d4:	96180000 	lhu	t8,0(s0)
    b8d8:	000a4cc2 	srl	t1,t2,0x13
    b8dc:	312bf1ff 	andi	t3,t1,0xf1ff
    b8e0:	01636825 	or	t5,t3,v1
    b8e4:	000d78c0 	sll	t7,t5,0x3
    b8e8:	33190007 	andi	t9,t8,0x7
    b8ec:	01f95025 	or	t2,t7,t9
    b8f0:	a60a0000 	sh	t2,0(s0)
    b8f4:	8fa90094 	lw	t1,148(sp)
    b8f8:	3c010000 	lui	at,0x0
    b8fc:	01001025 	move	v0,t0
    b900:	ae09000c 	sw	t1,12(s0)
    b904:	8fab0090 	lw	t3,144(sp)
    b908:	ae0b0008 	sw	t3,8(s0)
    b90c:	8fac0068 	lw	t4,104(sp)
    b910:	ae0c0004 	sw	t4,4(s0)
    b914:	c7b2006c 	lwc1	$f18,108(sp)
    b918:	c6280018 	lwc1	$f8,24(s1)
    b91c:	e6320004 	swc1	$f18,4(s1)
    b920:	c7a40070 	lwc1	$f4,112(sp)
    b924:	c42a0000 	lwc1	$f10,0(at)
    b928:	46082181 	sub.s	$f6,$f4,$f8
    b92c:	460a3400 	add.s	$f16,$f6,$f10
    b930:	e6300008 	swc1	$f16,8(s1)
    b934:	c7b20074 	lwc1	$f18,116(sp)
    b938:	e632000c 	swc1	$f18,12(s1)
    b93c:	8fbf0034 	lw	ra,52(sp)
    b940:	8fb10030 	lw	s1,48(sp)
    b944:	8fb0002c 	lw	s0,44(sp)
    b948:	03e00008 	jr	ra
    b94c:	27bd0098 	addiu	sp,sp,152

0000b950 <func_8010AEE0>:
func_8010AEE0():
    b950:	afa40000 	sw	a0,0(sp)
    b954:	afa50004 	sw	a1,4(sp)
    b958:	03e00008 	jr	ra
    b95c:	00001025 	move	v0,zero

0000b960 <func_8010AEF0>:
func_8010AEF0():
    b960:	27bdff78 	addiu	sp,sp,-136
    b964:	afbf001c 	sw	ra,28(sp)
    b968:	afb10018 	sw	s1,24(sp)
    b96c:	afb00014 	sw	s0,20(sp)
    b970:	afa60090 	sw	a2,144(sp)
    b974:	afa00084 	sw	zero,132(sp)
    b978:	8c8e0058 	lw	t6,88(a0)
    b97c:	00808825 	move	s1,a0
    b980:	3c010000 	lui	at,0x0
    b984:	00a08025 	move	s0,a1
    b988:	00a02025 	move	a0,a1
    b98c:	0c000000 	jal	0 <func_800FF5E0_ovl2>
    b990:	ac2e0000 	sw	t6,0(at)
    b994:	0c000000 	jal	0 <func_800FF5E0_ovl2>
    b998:	02202025 	move	a0,s1
    b99c:	02202025 	move	a0,s1
    b9a0:	0c000000 	jal	0 <func_800FF5E0_ovl2>
    b9a4:	02002825 	move	a1,s0
    b9a8:	10400003 	beqz	v0,b9b8 <func_8010AEF0+0x58>
    b9ac:	02202025 	move	a0,s1
    b9b0:	0c000000 	jal	0 <func_800FF5E0_ovl2>
    b9b4:	02002825 	move	a1,s0
    b9b8:	02202025 	move	a0,s1
    b9bc:	0c000000 	jal	0 <func_800FF5E0_ovl2>
    b9c0:	02002825 	move	a1,s0
    b9c4:	10400003 	beqz	v0,b9d4 <func_8010AEF0+0x74>
    b9c8:	02202025 	move	a0,s1
    b9cc:	0c000000 	jal	0 <func_800FF5E0_ovl2>
    b9d0:	02002825 	move	a1,s0
    b9d4:	02202025 	move	a0,s1
    b9d8:	0c000000 	jal	0 <func_800FF5E0_ovl2>
    b9dc:	02002825 	move	a1,s0
    b9e0:	1040000f 	beqz	v0,ba20 <func_8010AEF0+0xc0>
    b9e4:	8faf0090 	lw	t7,144(sp)
    b9e8:	31f80008 	andi	t8,t7,0x8
    b9ec:	13000006 	beqz	t8,ba08 <func_8010AEF0+0xa8>
    b9f0:	02202025 	move	a0,s1
    b9f4:	02202025 	move	a0,s1
    b9f8:	0c000000 	jal	0 <func_800FF5E0_ovl2>
    b9fc:	02002825 	move	a1,s0
    ba00:	10000004 	b	ba14 <func_8010AEF0+0xb4>
    ba04:	afa20084 	sw	v0,132(sp)
    ba08:	0c000000 	jal	0 <func_800FF5E0_ovl2>
    ba0c:	02002825 	move	a1,s0
    ba10:	afa20084 	sw	v0,132(sp)
    ba14:	02202025 	move	a0,s1
    ba18:	0c000000 	jal	0 <func_800FF5E0_ovl2>
    ba1c:	02002825 	move	a1,s0
    ba20:	02202025 	move	a0,s1
    ba24:	0c000000 	jal	0 <func_800FF5E0_ovl2>
    ba28:	02002825 	move	a1,s0
    ba2c:	10400003 	beqz	v0,ba3c <func_8010AEF0+0xdc>
    ba30:	02202025 	move	a0,s1
    ba34:	0c000000 	jal	0 <func_800FF5E0_ovl2>
    ba38:	02002825 	move	a1,s0
    ba3c:	02202025 	move	a0,s1
    ba40:	0c000000 	jal	0 <func_800FF5E0_ovl2>
    ba44:	02002825 	move	a1,s0
    ba48:	10400003 	beqz	v0,ba58 <func_8010AEF0+0xf8>
    ba4c:	02202025 	move	a0,s1
    ba50:	0c000000 	jal	0 <func_800FF5E0_ovl2>
    ba54:	02002825 	move	a1,s0
    ba58:	8e190000 	lw	t9,0(s0)
    ba5c:	02202025 	move	a0,s1
    ba60:	02002825 	move	a1,s0
    ba64:	001944c2 	srl	t0,t9,0x13
    ba68:	0c000000 	jal	0 <func_800FF5E0_ovl2>
    ba6c:	afa80024 	sw	t0,36(sp)
    ba70:	5040000c 	beqzl	v0,baa4 <func_8010AEF0+0x144>
    ba74:	8fa20024 	lw	v0,36(sp)
    ba78:	8fa20024 	lw	v0,36(sp)
    ba7c:	02202025 	move	a0,s1
    ba80:	30490e00 	andi	t1,v0,0xe00
    ba84:	55200007 	bnezl	t1,baa4 <func_8010AEF0+0x144>
    ba88:	8fa20024 	lw	v0,36(sp)
    ba8c:	0c000000 	jal	0 <func_800FF5E0_ovl2>
    ba90:	02002825 	move	a1,s0
    ba94:	02202025 	move	a0,s1
    ba98:	0c000000 	jal	0 <func_800FF5E0_ovl2>
    ba9c:	02002825 	move	a1,s0
    baa0:	8fa20024 	lw	v0,36(sp)
    baa4:	10400015 	beqz	v0,bafc <func_8010AEF0+0x19c>
    baa8:	304a0038 	andi	t2,v0,0x38
    baac:	5140000a 	beqzl	t2,bad8 <func_8010AEF0+0x178>
    bab0:	304c0007 	andi	t4,v0,0x7
    bab4:	8e0b0028 	lw	t3,40(s0)
    bab8:	24010014 	li	at,20
    babc:	02202025 	move	a0,s1
    bac0:	51610005 	beql	t3,at,bad8 <func_8010AEF0+0x178>
    bac4:	304c0007 	andi	t4,v0,0x7
    bac8:	0c000000 	jal	0 <func_800FF5E0_ovl2>
    bacc:	02002825 	move	a1,s0
    bad0:	8fa20024 	lw	v0,36(sp)
    bad4:	304c0007 	andi	t4,v0,0x7
    bad8:	11800008 	beqz	t4,bafc <func_8010AEF0+0x19c>
    badc:	00000000 	nop
    bae0:	8e0d001c 	lw	t5,28(s0)
    bae4:	24010014 	li	at,20
    bae8:	02202025 	move	a0,s1
    baec:	11a10003 	beq	t5,at,bafc <func_8010AEF0+0x19c>
    baf0:	00000000 	nop
    baf4:	0c000000 	jal	0 <func_800FF5E0_ovl2>
    baf8:	02002825 	move	a1,s0
    bafc:	3c0e0000 	lui	t6,0x0
    bb00:	8dce0000 	lw	t6,0(t6)
    bb04:	ae2e0058 	sw	t6,88(s1)
    bb08:	8fbf001c 	lw	ra,28(sp)
    bb0c:	8fb10018 	lw	s1,24(sp)
    bb10:	8fb00014 	lw	s0,20(sp)
    bb14:	8fa20084 	lw	v0,132(sp)
    bb18:	03e00008 	jr	ra
    bb1c:	27bd0088 	addiu	sp,sp,136

0000bb20 <func_8010B0B0>:
func_8010B0B0():
    bb20:	27bdffe8 	addiu	sp,sp,-24
    bb24:	afbf0014 	sw	ra,20(sp)
    bb28:	3c050000 	lui	a1,0x0
    bb2c:	24a50000 	addiu	a1,a1,0
    bb30:	0c000000 	jal	0 <func_800FF5E0_ovl2>
    bb34:	24060008 	li	a2,8
    bb38:	8fbf0014 	lw	ra,20(sp)
    bb3c:	27bd0018 	addiu	sp,sp,24
    bb40:	03e00008 	jr	ra
    bb44:	00000000 	nop

0000bb48 <func_8010B0D8_ovl2>:
func_8010B0D8_ovl2():
    bb48:	3c020000 	lui	v0,0x0
    bb4c:	24420000 	addiu	v0,v0,0
    bb50:	8c4e0000 	lw	t6,0(v0)
    bb54:	27bdffe0 	addiu	sp,sp,-32
    bb58:	afbf0014 	sw	ra,20(sp)
    bb5c:	3c050000 	lui	a1,0x0
    bb60:	ac400000 	sw	zero,0(v0)
    bb64:	24a50000 	addiu	a1,a1,0
    bb68:	24060008 	li	a2,8
    bb6c:	0c000000 	jal	0 <func_800FF5E0_ovl2>
    bb70:	afae001c 	sw	t6,28(sp)
    bb74:	8fbf0014 	lw	ra,20(sp)
    bb78:	8faf001c 	lw	t7,28(sp)
    bb7c:	3c018013 	lui	at,0x8013
    bb80:	27bd0020 	addiu	sp,sp,32
    bb84:	03e00008 	jr	ra
    bb88:	ac2fd940 	sw	t7,-9920(at)

0000bb8c <func_8010B11C>:
func_8010B11C():
    bb8c:	3c070000 	lui	a3,0x0
    bb90:	24e70000 	addiu	a3,a3,0
    bb94:	90ef0000 	lbu	t7,0(a3)
    bb98:	27bdffe8 	addiu	sp,sp,-24
    bb9c:	afbf0014 	sw	ra,20(sp)
    bba0:	3c050000 	lui	a1,0x0
    bba4:	35f80080 	ori	t8,t7,0x80
    bba8:	24a50000 	addiu	a1,a1,0
    bbac:	a0f80000 	sb	t8,0(a3)
    bbb0:	0c000000 	jal	0 <func_800FF5E0_ovl2>
    bbb4:	24060008 	li	a2,8
    bbb8:	3c050000 	lui	a1,0x0
    bbbc:	24a50000 	addiu	a1,a1,0
    bbc0:	3c070000 	lui	a3,0x0
    bbc4:	8ca30000 	lw	v1,0(a1)
    bbc8:	24e70000 	addiu	a3,a3,0
    bbcc:	90f90000 	lbu	t9,0(a3)
    bbd0:	00031cc2 	srl	v1,v1,0x13
    bbd4:	30690007 	andi	t1,v1,0x7
    bbd8:	3328ff7f 	andi	t0,t9,0xff7f
    bbdc:	00402025 	move	a0,v0
    bbe0:	1120000e 	beqz	t1,bc1c <func_8010B11C+0x90>
    bbe4:	a0e80000 	sb	t0,0(a3)
    bbe8:	8caa0020 	lw	t2,32(a1)
    bbec:	954b0008 	lhu	t3,8(t2)
    bbf0:	316c0004 	andi	t4,t3,0x4
    bbf4:	5180000a 	beqzl	t4,bc20 <func_8010B11C+0x94>
    bbf8:	30690038 	andi	t1,v1,0x38
    bbfc:	94b80000 	lhu	t8,0(a1)
    bc00:	306dfff8 	andi	t5,v1,0xfff8
    bc04:	000d78c0 	sll	t7,t5,0x3
    bc08:	33190007 	andi	t9,t8,0x7
    bc0c:	01f94025 	or	t0,t7,t9
    bc10:	a4a80000 	sh	t0,0(a1)
    bc14:	8ca30000 	lw	v1,0(a1)
    bc18:	00031cc2 	srl	v1,v1,0x13
    bc1c:	30690038 	andi	t1,v1,0x38
    bc20:	5120000f 	beqzl	t1,bc60 <func_8010B11C+0xd4>
    bc24:	306901c0 	andi	t1,v1,0x1c0
    bc28:	8caa002c 	lw	t2,44(a1)
    bc2c:	954b0008 	lhu	t3,8(t2)
    bc30:	316c0004 	andi	t4,t3,0x4
    bc34:	5180000a 	beqzl	t4,bc60 <func_8010B11C+0xd4>
    bc38:	306901c0 	andi	t1,v1,0x1c0
    bc3c:	94af0000 	lhu	t7,0(a1)
    bc40:	306dffc7 	andi	t5,v1,0xffc7
    bc44:	000dc0c0 	sll	t8,t5,0x3
    bc48:	31f90007 	andi	t9,t7,0x7
    bc4c:	03194025 	or	t0,t8,t9
    bc50:	a4a80000 	sh	t0,0(a1)
    bc54:	8ca30000 	lw	v1,0(a1)
    bc58:	00031cc2 	srl	v1,v1,0x13
    bc5c:	306901c0 	andi	t1,v1,0x1c0
    bc60:	5120000d 	beqzl	t1,bc98 <func_8010B11C+0x10c>
    bc64:	8fbf0014 	lw	ra,20(sp)
    bc68:	8caa0014 	lw	t2,20(a1)
    bc6c:	954b0008 	lhu	t3,8(t2)
    bc70:	316c0004 	andi	t4,t3,0x4
    bc74:	51800008 	beqzl	t4,bc98 <func_8010B11C+0x10c>
    bc78:	8fbf0014 	lw	ra,20(sp)
    bc7c:	94b80000 	lhu	t8,0(a1)
    bc80:	306dfe3f 	andi	t5,v1,0xfe3f
    bc84:	000d78c0 	sll	t7,t5,0x3
    bc88:	33190007 	andi	t9,t8,0x7
    bc8c:	01f94025 	or	t0,t7,t9
    bc90:	a4a80000 	sh	t0,0(a1)
    bc94:	8fbf0014 	lw	ra,20(sp)
    bc98:	27bd0018 	addiu	sp,sp,24
    bc9c:	00801025 	move	v0,a0
    bca0:	03e00008 	jr	ra
    bca4:	00000000 	nop

0000bca8 <func_8010B238_ovl2>:
func_8010B238_ovl2():
    bca8:	3c030000 	lui	v1,0x0
    bcac:	24630000 	addiu	v1,v1,0
    bcb0:	906f0000 	lbu	t7,0(v1)
    bcb4:	27bdffe8 	addiu	sp,sp,-24
    bcb8:	afbf0014 	sw	ra,20(sp)
    bcbc:	3c050000 	lui	a1,0x0
    bcc0:	35f80080 	ori	t8,t7,0x80
    bcc4:	a0780000 	sb	t8,0(v1)
    bcc8:	24a50000 	addiu	a1,a1,0
    bccc:	0c000000 	jal	0 <func_800FF5E0_ovl2>
    bcd0:	24060008 	li	a2,8
    bcd4:	3c030000 	lui	v1,0x0
    bcd8:	24630000 	addiu	v1,v1,0
    bcdc:	90790000 	lbu	t9,0(v1)
    bce0:	8fbf0014 	lw	ra,20(sp)
    bce4:	27bd0018 	addiu	sp,sp,24
    bce8:	3328ff7f 	andi	t0,t9,0xff7f
    bcec:	03e00008 	jr	ra
    bcf0:	a0680000 	sb	t0,0(v1)

0000bcf4 <func_8010B284>:
func_8010B284():
    bcf4:	27bdffa0 	addiu	sp,sp,-96
    bcf8:	afb00028 	sw	s0,40(sp)
    bcfc:	00808025 	move	s0,a0
    bd00:	afbf002c 	sw	ra,44(sp)
    bd04:	3c040000 	lui	a0,0x0
    bd08:	0c000000 	jal	0 <func_800FF5E0_ovl2>
    bd0c:	24840000 	addiu	a0,a0,0
    bd10:	0c000000 	jal	0 <func_800FF5E0_ovl2>
    bd14:	02002025 	move	a0,s0
    bd18:	44800000 	mtc1	zero,$f0
    bd1c:	3c01bf80 	lui	at,0xbf80
    bd20:	44812000 	mtc1	at,$f4
    bd24:	e7a00034 	swc1	$f0,52(sp)
    bd28:	e7a0003c 	swc1	$f0,60(sp)
    bd2c:	e7a40038 	swc1	$f4,56(sp)
    bd30:	c6060004 	lwc1	$f6,4(s0)
    bd34:	26030010 	addiu	v1,s0,16
    bd38:	3c010000 	lui	at,0x0
    bd3c:	e7a6004c 	swc1	$f6,76(sp)
    bd40:	c46a0008 	lwc1	$f10,8(v1)
    bd44:	c6080008 	lwc1	$f8,8(s0)
    bd48:	c7a4004c 	lwc1	$f4,76(sp)
    bd4c:	27a4004c 	addiu	a0,sp,76
    bd50:	460a4400 	add.s	$f16,$f8,$f10
    bd54:	c4280000 	lwc1	$f8,0(at)
    bd58:	27a50040 	addiu	a1,sp,64
    bd5c:	27a60034 	addiu	a2,sp,52
    bd60:	e7b00050 	swc1	$f16,80(sp)
    bd64:	c612000c 	lwc1	$f18,12(s0)
    bd68:	c7a60050 	lwc1	$f6,80(sp)
    bd6c:	afa30030 	sw	v1,48(sp)
    bd70:	e7b20054 	swc1	$f18,84(sp)
    bd74:	46083281 	sub.s	$f10,$f6,$f8
    bd78:	c7b00054 	lwc1	$f16,84(sp)
    bd7c:	afa0001c 	sw	zero,28(sp)
    bd80:	afa00018 	sw	zero,24(sp)
    bd84:	e7aa0044 	swc1	$f10,68(sp)
    bd88:	afa00014 	sw	zero,20(sp)
    bd8c:	afa00010 	sw	zero,16(sp)
    bd90:	00003825 	move	a3,zero
    bd94:	e7a40040 	swc1	$f4,64(sp)
    bd98:	0c000000 	jal	0 <func_800FF5E0_ovl2>
    bd9c:	e7b00048 	swc1	$f16,72(sp)
    bda0:	10400009 	beqz	v0,bdc8 <func_8010B284+0xd4>
    bda4:	8fa30030 	lw	v1,48(sp)
    bda8:	3c0e0000 	lui	t6,0x0
    bdac:	95ce0000 	lhu	t6,0(t6)
    bdb0:	3c010000 	lui	at,0x0
    bdb4:	24020001 	li	v0,1
    bdb8:	31cf0007 	andi	t7,t6,0x7
    bdbc:	35f81000 	ori	t8,t7,0x1000
    bdc0:	10000046 	b	bedc <func_8010B284+0x1e8>
    bdc4:	a4380000 	sh	t8,0(at)
    bdc8:	3c080000 	lui	t0,0x0
    bdcc:	25080000 	addiu	t0,t0,0
    bdd0:	c5040004 	lwc1	$f4,4(t0)
    bdd4:	c6120004 	lwc1	$f18,4(s0)
    bdd8:	27a4004c 	addiu	a0,sp,76
    bddc:	27a50040 	addiu	a1,sp,64
    bde0:	46049180 	add.s	$f6,$f18,$f4
    bde4:	c5040008 	lwc1	$f4,8(t0)
    bde8:	27a60034 	addiu	a2,sp,52
    bdec:	00003825 	move	a3,zero
    bdf0:	e7a6004c 	swc1	$f6,76(sp)
    bdf4:	c46a0004 	lwc1	$f10,4(v1)
    bdf8:	c6080008 	lwc1	$f8,8(s0)
    bdfc:	460a4400 	add.s	$f16,$f8,$f10
    be00:	c7a8004c 	lwc1	$f8,76(sp)
    be04:	e7b00050 	swc1	$f16,80(sp)
    be08:	c612000c 	lwc1	$f18,12(s0)
    be0c:	afa0001c 	sw	zero,28(sp)
    be10:	afa00018 	sw	zero,24(sp)
    be14:	46049180 	add.s	$f6,$f18,$f4
    be18:	afa00014 	sw	zero,20(sp)
    be1c:	afa00010 	sw	zero,16(sp)
    be20:	e7a80040 	swc1	$f8,64(sp)
    be24:	e7a60054 	swc1	$f6,84(sp)
    be28:	c7aa0054 	lwc1	$f10,84(sp)
    be2c:	0c000000 	jal	0 <func_800FF5E0_ovl2>
    be30:	e7aa0048 	swc1	$f10,72(sp)
    be34:	3c080000 	lui	t0,0x0
    be38:	10400009 	beqz	v0,be60 <func_8010B284+0x16c>
    be3c:	25080000 	addiu	t0,t0,0
    be40:	3c190000 	lui	t9,0x0
    be44:	97390000 	lhu	t9,0(t9)
    be48:	3c010000 	lui	at,0x0
    be4c:	24020001 	li	v0,1
    be50:	33290007 	andi	t1,t9,0x7
    be54:	352a4000 	ori	t2,t1,0x4000
    be58:	10000020 	b	bedc <func_8010B284+0x1e8>
    be5c:	a42a0000 	sh	t2,0(at)
    be60:	c6100004 	lwc1	$f16,4(s0)
    be64:	c512000c 	lwc1	$f18,12(t0)
    be68:	c5080010 	lwc1	$f8,16(t0)
    be6c:	27a4004c 	addiu	a0,sp,76
    be70:	46128100 	add.s	$f4,$f16,$f18
    be74:	27a50040 	addiu	a1,sp,64
    be78:	27a60034 	addiu	a2,sp,52
    be7c:	00003825 	move	a3,zero
    be80:	e7a4004c 	swc1	$f4,76(sp)
    be84:	c606000c 	lwc1	$f6,12(s0)
    be88:	c7b0004c 	lwc1	$f16,76(sp)
    be8c:	afa0001c 	sw	zero,28(sp)
    be90:	46083280 	add.s	$f10,$f6,$f8
    be94:	afa00018 	sw	zero,24(sp)
    be98:	afa00014 	sw	zero,20(sp)
    be9c:	afa00010 	sw	zero,16(sp)
    bea0:	e7aa0054 	swc1	$f10,84(sp)
    bea4:	c7b20054 	lwc1	$f18,84(sp)
    bea8:	e7b00040 	swc1	$f16,64(sp)
    beac:	0c000000 	jal	0 <func_800FF5E0_ovl2>
    beb0:	e7b20048 	swc1	$f18,72(sp)
    beb4:	10400008 	beqz	v0,bed8 <func_8010B284+0x1e4>
    beb8:	3c0b0000 	lui	t3,0x0
    bebc:	956b0000 	lhu	t3,0(t3)
    bec0:	3c010000 	lui	at,0x0
    bec4:	24020001 	li	v0,1
    bec8:	316c0007 	andi	t4,t3,0x7
    becc:	358d2000 	ori	t5,t4,0x2000
    bed0:	10000002 	b	bedc <func_8010B284+0x1e8>
    bed4:	a42d0000 	sh	t5,0(at)
    bed8:	00001025 	move	v0,zero
    bedc:	8fbf002c 	lw	ra,44(sp)
    bee0:	8fb00028 	lw	s0,40(sp)
    bee4:	27bd0060 	addiu	sp,sp,96
    bee8:	03e00008 	jr	ra
    beec:	00000000 	nop

0000bef0 <func_8010B480_ovl2>:
func_8010B480_ovl2():
    bef0:	27bdffa0 	addiu	sp,sp,-96
    bef4:	afb00028 	sw	s0,40(sp)
    bef8:	00808025 	move	s0,a0
    befc:	afbf002c 	sw	ra,44(sp)
    bf00:	3c040000 	lui	a0,0x0
    bf04:	0c000000 	jal	0 <func_800FF5E0_ovl2>
    bf08:	24840000 	addiu	a0,a0,0
    bf0c:	0c000000 	jal	0 <func_800FF5E0_ovl2>
    bf10:	02002025 	move	a0,s0
    bf14:	44800000 	mtc1	zero,$f0
    bf18:	3c013f80 	lui	at,0x3f80
    bf1c:	44812000 	mtc1	at,$f4
    bf20:	e7a00034 	swc1	$f0,52(sp)
    bf24:	e7a0003c 	swc1	$f0,60(sp)
    bf28:	e7a40038 	swc1	$f4,56(sp)
    bf2c:	c6060004 	lwc1	$f6,4(s0)
    bf30:	26030010 	addiu	v1,s0,16
    bf34:	3c010000 	lui	at,0x0
    bf38:	e7a6004c 	swc1	$f6,76(sp)
    bf3c:	c46a0004 	lwc1	$f10,4(v1)
    bf40:	c6080008 	lwc1	$f8,8(s0)
    bf44:	c7a4004c 	lwc1	$f4,76(sp)
    bf48:	27a4004c 	addiu	a0,sp,76
    bf4c:	460a4400 	add.s	$f16,$f8,$f10
    bf50:	c4280000 	lwc1	$f8,0(at)
    bf54:	27a50040 	addiu	a1,sp,64
    bf58:	27a60034 	addiu	a2,sp,52
    bf5c:	e7b00050 	swc1	$f16,80(sp)
    bf60:	c612000c 	lwc1	$f18,12(s0)
    bf64:	c7a60050 	lwc1	$f6,80(sp)
    bf68:	afa30030 	sw	v1,48(sp)
    bf6c:	e7b20054 	swc1	$f18,84(sp)
    bf70:	46083280 	add.s	$f10,$f6,$f8
    bf74:	c7b00054 	lwc1	$f16,84(sp)
    bf78:	afa0001c 	sw	zero,28(sp)
    bf7c:	afa00018 	sw	zero,24(sp)
    bf80:	e7aa0044 	swc1	$f10,68(sp)
    bf84:	afa00014 	sw	zero,20(sp)
    bf88:	afa00010 	sw	zero,16(sp)
    bf8c:	00003825 	move	a3,zero
    bf90:	e7a40040 	swc1	$f4,64(sp)
    bf94:	0c000000 	jal	0 <func_800FF5E0_ovl2>
    bf98:	e7b00048 	swc1	$f16,72(sp)
    bf9c:	10400009 	beqz	v0,bfc4 <func_8010B480_ovl2+0xd4>
    bfa0:	8fa30030 	lw	v1,48(sp)
    bfa4:	3c0e0000 	lui	t6,0x0
    bfa8:	95ce0000 	lhu	t6,0(t6)
    bfac:	3c010000 	lui	at,0x0
    bfb0:	24020001 	li	v0,1
    bfb4:	31cf0007 	andi	t7,t6,0x7
    bfb8:	35f80200 	ori	t8,t7,0x200
    bfbc:	10000046 	b	c0d8 <func_8010B480_ovl2+0x1e8>
    bfc0:	a4380000 	sh	t8,0(at)
    bfc4:	3c080000 	lui	t0,0x0
    bfc8:	25080000 	addiu	t0,t0,0
    bfcc:	c5040004 	lwc1	$f4,4(t0)
    bfd0:	c6120004 	lwc1	$f18,4(s0)
    bfd4:	27a4004c 	addiu	a0,sp,76
    bfd8:	27a50040 	addiu	a1,sp,64
    bfdc:	46049180 	add.s	$f6,$f18,$f4
    bfe0:	c5040008 	lwc1	$f4,8(t0)
    bfe4:	27a60034 	addiu	a2,sp,52
    bfe8:	00003825 	move	a3,zero
    bfec:	e7a6004c 	swc1	$f6,76(sp)
    bff0:	c46a0008 	lwc1	$f10,8(v1)
    bff4:	c6080008 	lwc1	$f8,8(s0)
    bff8:	460a4400 	add.s	$f16,$f8,$f10
    bffc:	c7a8004c 	lwc1	$f8,76(sp)
    c000:	e7b00050 	swc1	$f16,80(sp)
    c004:	c612000c 	lwc1	$f18,12(s0)
    c008:	afa0001c 	sw	zero,28(sp)
    c00c:	afa00018 	sw	zero,24(sp)
    c010:	46049180 	add.s	$f6,$f18,$f4
    c014:	afa00014 	sw	zero,20(sp)
    c018:	afa00010 	sw	zero,16(sp)
    c01c:	e7a80040 	swc1	$f8,64(sp)
    c020:	e7a60054 	swc1	$f6,84(sp)
    c024:	c7aa0054 	lwc1	$f10,84(sp)
    c028:	0c000000 	jal	0 <func_800FF5E0_ovl2>
    c02c:	e7aa0048 	swc1	$f10,72(sp)
    c030:	3c080000 	lui	t0,0x0
    c034:	10400009 	beqz	v0,c05c <func_8010B480_ovl2+0x16c>
    c038:	25080000 	addiu	t0,t0,0
    c03c:	3c190000 	lui	t9,0x0
    c040:	97390000 	lhu	t9,0(t9)
    c044:	3c010000 	lui	at,0x0
    c048:	24020001 	li	v0,1
    c04c:	33290007 	andi	t1,t9,0x7
    c050:	352a0800 	ori	t2,t1,0x800
    c054:	10000020 	b	c0d8 <func_8010B480_ovl2+0x1e8>
    c058:	a42a0000 	sh	t2,0(at)
    c05c:	c6100004 	lwc1	$f16,4(s0)
    c060:	c512000c 	lwc1	$f18,12(t0)
    c064:	c5080010 	lwc1	$f8,16(t0)
    c068:	27a4004c 	addiu	a0,sp,76
    c06c:	46128100 	add.s	$f4,$f16,$f18
    c070:	27a50040 	addiu	a1,sp,64
    c074:	27a60034 	addiu	a2,sp,52
    c078:	00003825 	move	a3,zero
    c07c:	e7a4004c 	swc1	$f4,76(sp)
    c080:	c606000c 	lwc1	$f6,12(s0)
    c084:	c7b0004c 	lwc1	$f16,76(sp)
    c088:	afa0001c 	sw	zero,28(sp)
    c08c:	46083280 	add.s	$f10,$f6,$f8
    c090:	afa00018 	sw	zero,24(sp)
    c094:	afa00014 	sw	zero,20(sp)
    c098:	afa00010 	sw	zero,16(sp)
    c09c:	e7aa0054 	swc1	$f10,84(sp)
    c0a0:	c7b20054 	lwc1	$f18,84(sp)
    c0a4:	e7b00040 	swc1	$f16,64(sp)
    c0a8:	0c000000 	jal	0 <func_800FF5E0_ovl2>
    c0ac:	e7b20048 	swc1	$f18,72(sp)
    c0b0:	10400008 	beqz	v0,c0d4 <func_8010B480_ovl2+0x1e4>
    c0b4:	3c0b0000 	lui	t3,0x0
    c0b8:	956b0000 	lhu	t3,0(t3)
    c0bc:	3c010000 	lui	at,0x0
    c0c0:	24020001 	li	v0,1
    c0c4:	316c0007 	andi	t4,t3,0x7
    c0c8:	358d0400 	ori	t5,t4,0x400
    c0cc:	10000002 	b	c0d8 <func_8010B480_ovl2+0x1e8>
    c0d0:	a42d0000 	sh	t5,0(at)
    c0d4:	00001025 	move	v0,zero
    c0d8:	8fbf002c 	lw	ra,44(sp)
    c0dc:	8fb00028 	lw	s0,40(sp)
    c0e0:	27bd0060 	addiu	sp,sp,96
    c0e4:	03e00008 	jr	ra
    c0e8:	00000000 	nop

0000c0ec <func_8010B67C_ovl2>:
func_8010B67C_ovl2():
    c0ec:	27bdffa0 	addiu	sp,sp,-96
    c0f0:	afb00028 	sw	s0,40(sp)
    c0f4:	00808025 	move	s0,a0
    c0f8:	afbf002c 	sw	ra,44(sp)
    c0fc:	3c040000 	lui	a0,0x0
    c100:	0c000000 	jal	0 <func_800FF5E0_ovl2>
    c104:	24840000 	addiu	a0,a0,0
    c108:	0c000000 	jal	0 <func_800FF5E0_ovl2>
    c10c:	02002025 	move	a0,s0
    c110:	3c030000 	lui	v1,0x0
    c114:	24630000 	addiu	v1,v1,0
    c118:	c4640014 	lwc1	$f4,20(v1)
    c11c:	44803000 	mtc1	zero,$f6
    c120:	c4680018 	lwc1	$f8,24(v1)
    c124:	e7a40034 	swc1	$f4,52(sp)
    c128:	e7a60038 	swc1	$f6,56(sp)
    c12c:	e7a8003c 	swc1	$f8,60(sp)
    c130:	c60a0004 	lwc1	$f10,4(s0)
    c134:	26020010 	addiu	v0,s0,16
    c138:	27a4004c 	addiu	a0,sp,76
    c13c:	e7aa004c 	swc1	$f10,76(sp)
    c140:	c4520000 	lwc1	$f18,0(v0)
    c144:	c6100008 	lwc1	$f16,8(s0)
    c148:	c7a8004c 	lwc1	$f8,76(sp)
    c14c:	c46a0004 	lwc1	$f10,4(v1)
    c150:	46128100 	add.s	$f4,$f16,$f18
    c154:	27a50040 	addiu	a1,sp,64
    c158:	27a60034 	addiu	a2,sp,52
    c15c:	460a4400 	add.s	$f16,$f8,$f10
    c160:	e7a40050 	swc1	$f4,80(sp)
    c164:	c606000c 	lwc1	$f6,12(s0)
    c168:	c7b20050 	lwc1	$f18,80(sp)
    c16c:	e7b00040 	swc1	$f16,64(sp)
    c170:	e7a60054 	swc1	$f6,84(sp)
    c174:	c7a40054 	lwc1	$f4,84(sp)
    c178:	c4660008 	lwc1	$f6,8(v1)
    c17c:	afa20030 	sw	v0,48(sp)
    c180:	afa0001c 	sw	zero,28(sp)
    c184:	46062200 	add.s	$f8,$f4,$f6
    c188:	afa00018 	sw	zero,24(sp)
    c18c:	afa00014 	sw	zero,20(sp)
    c190:	afa00010 	sw	zero,16(sp)
    c194:	e7a80048 	swc1	$f8,72(sp)
    c198:	00003825 	move	a3,zero
    c19c:	0c000000 	jal	0 <func_800FF5E0_ovl2>
    c1a0:	e7b20044 	swc1	$f18,68(sp)
    c1a4:	3c030000 	lui	v1,0x0
    c1a8:	10400009 	beqz	v0,c1d0 <func_8010B67C_ovl2+0xe4>
    c1ac:	24630000 	addiu	v1,v1,0
    c1b0:	3c0e0000 	lui	t6,0x0
    c1b4:	95ce0000 	lhu	t6,0(t6)
    c1b8:	3c010000 	lui	at,0x0
    c1bc:	24020001 	li	v0,1
    c1c0:	31cf0007 	andi	t7,t6,0x7
    c1c4:	35f80008 	ori	t8,t7,0x8
    c1c8:	1000003c 	b	c2bc <func_8010B67C_ovl2+0x1d0>
    c1cc:	a4380000 	sh	t8,0(at)
    c1d0:	c7aa004c 	lwc1	$f10,76(sp)
    c1d4:	c470000c 	lwc1	$f16,12(v1)
    c1d8:	8fb90030 	lw	t9,48(sp)
    c1dc:	27a4004c 	addiu	a0,sp,76
    c1e0:	46105480 	add.s	$f18,$f10,$f16
    c1e4:	c4700010 	lwc1	$f16,16(v1)
    c1e8:	c7aa0054 	lwc1	$f10,84(sp)
    c1ec:	27a50040 	addiu	a1,sp,64
    c1f0:	e7b2004c 	swc1	$f18,76(sp)
    c1f4:	c6040008 	lwc1	$f4,8(s0)
    c1f8:	c7260008 	lwc1	$f6,8(t9)
    c1fc:	46105480 	add.s	$f18,$f10,$f16
    c200:	afa0001c 	sw	zero,28(sp)
    c204:	afa00018 	sw	zero,24(sp)
    c208:	46062200 	add.s	$f8,$f4,$f6
    c20c:	e7b20054 	swc1	$f18,84(sp)
    c210:	afa00014 	sw	zero,20(sp)
    c214:	afa00010 	sw	zero,16(sp)
    c218:	e7a80050 	swc1	$f8,80(sp)
    c21c:	c7a40050 	lwc1	$f4,80(sp)
    c220:	27a60034 	addiu	a2,sp,52
    c224:	00003825 	move	a3,zero
    c228:	0c000000 	jal	0 <func_800FF5E0_ovl2>
    c22c:	e7a40044 	swc1	$f4,68(sp)
    c230:	10400009 	beqz	v0,c258 <func_8010B67C_ovl2+0x16c>
    c234:	8fab0030 	lw	t3,48(sp)
    c238:	3c080000 	lui	t0,0x0
    c23c:	95080000 	lhu	t0,0(t0)
    c240:	3c010000 	lui	at,0x0
    c244:	24020001 	li	v0,1
    c248:	31090007 	andi	t1,t0,0x7
    c24c:	352a0020 	ori	t2,t1,0x20
    c250:	1000001a 	b	c2bc <func_8010B67C_ovl2+0x1d0>
    c254:	a42a0000 	sh	t2,0(at)
    c258:	c6060008 	lwc1	$f6,8(s0)
    c25c:	c5680004 	lwc1	$f8,4(t3)
    c260:	afa0001c 	sw	zero,28(sp)
    c264:	afa00018 	sw	zero,24(sp)
    c268:	46083280 	add.s	$f10,$f6,$f8
    c26c:	afa00014 	sw	zero,20(sp)
    c270:	afa00010 	sw	zero,16(sp)
    c274:	27a4004c 	addiu	a0,sp,76
    c278:	e7aa0044 	swc1	$f10,68(sp)
    c27c:	c7b00044 	lwc1	$f16,68(sp)
    c280:	27a50040 	addiu	a1,sp,64
    c284:	27a60034 	addiu	a2,sp,52
    c288:	00003825 	move	a3,zero
    c28c:	0c000000 	jal	0 <func_800FF5E0_ovl2>
    c290:	e7b00050 	swc1	$f16,80(sp)
    c294:	10400008 	beqz	v0,c2b8 <func_8010B67C_ovl2+0x1cc>
    c298:	3c0c0000 	lui	t4,0x0
    c29c:	958c0000 	lhu	t4,0(t4)
    c2a0:	3c010000 	lui	at,0x0
    c2a4:	24020001 	li	v0,1
    c2a8:	318d0007 	andi	t5,t4,0x7
    c2ac:	35ae0010 	ori	t6,t5,0x10
    c2b0:	10000002 	b	c2bc <func_8010B67C_ovl2+0x1d0>
    c2b4:	a42e0000 	sh	t6,0(at)
    c2b8:	00001025 	move	v0,zero
    c2bc:	8fbf002c 	lw	ra,44(sp)
    c2c0:	8fb00028 	lw	s0,40(sp)
    c2c4:	27bd0060 	addiu	sp,sp,96
    c2c8:	03e00008 	jr	ra
    c2cc:	00000000 	nop

0000c2d0 <func_8010B860_ovl2>:
func_8010B860_ovl2():
    c2d0:	27bdffa0 	addiu	sp,sp,-96
    c2d4:	afb00028 	sw	s0,40(sp)
    c2d8:	00808025 	move	s0,a0
    c2dc:	afbf002c 	sw	ra,44(sp)
    c2e0:	3c040000 	lui	a0,0x0
    c2e4:	0c000000 	jal	0 <func_800FF5E0_ovl2>
    c2e8:	24840000 	addiu	a0,a0,0
    c2ec:	0c000000 	jal	0 <func_800FF5E0_ovl2>
    c2f0:	02002025 	move	a0,s0
    c2f4:	3c030000 	lui	v1,0x0
    c2f8:	24630000 	addiu	v1,v1,0
    c2fc:	c464001c 	lwc1	$f4,28(v1)
    c300:	44803000 	mtc1	zero,$f6
    c304:	c4680020 	lwc1	$f8,32(v1)
    c308:	e7a40034 	swc1	$f4,52(sp)
    c30c:	e7a60038 	swc1	$f6,56(sp)
    c310:	e7a8003c 	swc1	$f8,60(sp)
    c314:	c60a0004 	lwc1	$f10,4(s0)
    c318:	26020010 	addiu	v0,s0,16
    c31c:	27a4004c 	addiu	a0,sp,76
    c320:	e7aa004c 	swc1	$f10,76(sp)
    c324:	c4520000 	lwc1	$f18,0(v0)
    c328:	c6100008 	lwc1	$f16,8(s0)
    c32c:	c7a8004c 	lwc1	$f8,76(sp)
    c330:	c46a000c 	lwc1	$f10,12(v1)
    c334:	46128100 	add.s	$f4,$f16,$f18
    c338:	27a50040 	addiu	a1,sp,64
    c33c:	27a60034 	addiu	a2,sp,52
    c340:	460a4400 	add.s	$f16,$f8,$f10
    c344:	e7a40050 	swc1	$f4,80(sp)
    c348:	c606000c 	lwc1	$f6,12(s0)
    c34c:	c7b20050 	lwc1	$f18,80(sp)
    c350:	e7b00040 	swc1	$f16,64(sp)
    c354:	e7a60054 	swc1	$f6,84(sp)
    c358:	c7a40054 	lwc1	$f4,84(sp)
    c35c:	c4660010 	lwc1	$f6,16(v1)
    c360:	afa20030 	sw	v0,48(sp)
    c364:	afa0001c 	sw	zero,28(sp)
    c368:	46062200 	add.s	$f8,$f4,$f6
    c36c:	afa00018 	sw	zero,24(sp)
    c370:	afa00014 	sw	zero,20(sp)
    c374:	afa00010 	sw	zero,16(sp)
    c378:	e7a80048 	swc1	$f8,72(sp)
    c37c:	00003825 	move	a3,zero
    c380:	0c000000 	jal	0 <func_800FF5E0_ovl2>
    c384:	e7b20044 	swc1	$f18,68(sp)
    c388:	3c030000 	lui	v1,0x0
    c38c:	10400009 	beqz	v0,c3b4 <func_8010B860_ovl2+0xe4>
    c390:	24630000 	addiu	v1,v1,0
    c394:	3c0e0000 	lui	t6,0x0
    c398:	95ce0000 	lhu	t6,0(t6)
    c39c:	3c010000 	lui	at,0x0
    c3a0:	24020001 	li	v0,1
    c3a4:	31cf0007 	andi	t7,t6,0x7
    c3a8:	35f80040 	ori	t8,t7,0x40
    c3ac:	1000003c 	b	c4a0 <func_8010B860_ovl2+0x1d0>
    c3b0:	a4380000 	sh	t8,0(at)
    c3b4:	c7aa004c 	lwc1	$f10,76(sp)
    c3b8:	c4700004 	lwc1	$f16,4(v1)
    c3bc:	8fb90030 	lw	t9,48(sp)
    c3c0:	27a4004c 	addiu	a0,sp,76
    c3c4:	46105480 	add.s	$f18,$f10,$f16
    c3c8:	c4700008 	lwc1	$f16,8(v1)
    c3cc:	c7aa0054 	lwc1	$f10,84(sp)
    c3d0:	27a50040 	addiu	a1,sp,64
    c3d4:	e7b2004c 	swc1	$f18,76(sp)
    c3d8:	c6040008 	lwc1	$f4,8(s0)
    c3dc:	c7260008 	lwc1	$f6,8(t9)
    c3e0:	46105480 	add.s	$f18,$f10,$f16
    c3e4:	afa0001c 	sw	zero,28(sp)
    c3e8:	afa00018 	sw	zero,24(sp)
    c3ec:	46062200 	add.s	$f8,$f4,$f6
    c3f0:	e7b20054 	swc1	$f18,84(sp)
    c3f4:	afa00014 	sw	zero,20(sp)
    c3f8:	afa00010 	sw	zero,16(sp)
    c3fc:	e7a80050 	swc1	$f8,80(sp)
    c400:	c7a40050 	lwc1	$f4,80(sp)
    c404:	27a60034 	addiu	a2,sp,52
    c408:	00003825 	move	a3,zero
    c40c:	0c000000 	jal	0 <func_800FF5E0_ovl2>
    c410:	e7a40044 	swc1	$f4,68(sp)
    c414:	10400009 	beqz	v0,c43c <func_8010B860_ovl2+0x16c>
    c418:	8fab0030 	lw	t3,48(sp)
    c41c:	3c080000 	lui	t0,0x0
    c420:	95080000 	lhu	t0,0(t0)
    c424:	3c010000 	lui	at,0x0
    c428:	24020001 	li	v0,1
    c42c:	31090007 	andi	t1,t0,0x7
    c430:	352a0100 	ori	t2,t1,0x100
    c434:	1000001a 	b	c4a0 <func_8010B860_ovl2+0x1d0>
    c438:	a42a0000 	sh	t2,0(at)
    c43c:	c6060008 	lwc1	$f6,8(s0)
    c440:	c5680004 	lwc1	$f8,4(t3)
    c444:	afa0001c 	sw	zero,28(sp)
    c448:	afa00018 	sw	zero,24(sp)
    c44c:	46083280 	add.s	$f10,$f6,$f8
    c450:	afa00014 	sw	zero,20(sp)
    c454:	afa00010 	sw	zero,16(sp)
    c458:	27a4004c 	addiu	a0,sp,76
    c45c:	e7aa0044 	swc1	$f10,68(sp)
    c460:	c7b00044 	lwc1	$f16,68(sp)
    c464:	27a50040 	addiu	a1,sp,64
    c468:	27a60034 	addiu	a2,sp,52
    c46c:	00003825 	move	a3,zero
    c470:	0c000000 	jal	0 <func_800FF5E0_ovl2>
    c474:	e7b00050 	swc1	$f16,80(sp)
    c478:	10400008 	beqz	v0,c49c <func_8010B860_ovl2+0x1cc>
    c47c:	3c0c0000 	lui	t4,0x0
    c480:	958c0000 	lhu	t4,0(t4)
    c484:	3c010000 	lui	at,0x0
    c488:	24020001 	li	v0,1
    c48c:	318d0007 	andi	t5,t4,0x7
    c490:	35ae0080 	ori	t6,t5,0x80
    c494:	10000002 	b	c4a0 <func_8010B860_ovl2+0x1d0>
    c498:	a42e0000 	sh	t6,0(at)
    c49c:	00001025 	move	v0,zero
    c4a0:	8fbf002c 	lw	ra,44(sp)
    c4a4:	8fb00028 	lw	s0,40(sp)
    c4a8:	27bd0060 	addiu	sp,sp,96
    c4ac:	03e00008 	jr	ra
    c4b0:	00000000 	nop

0000c4b4 <func_8010BA44_ovl2>:
func_8010BA44_ovl2():
    c4b4:	27bdffe0 	addiu	sp,sp,-32
    c4b8:	afb10018 	sw	s1,24(sp)
    c4bc:	afbf001c 	sw	ra,28(sp)
    c4c0:	afb00014 	sw	s0,20(sp)
    c4c4:	8c8e0058 	lw	t6,88(a0)
    c4c8:	3c110000 	lui	s1,0x0
    c4cc:	26310000 	addiu	s1,s1,0
    c4d0:	00808025 	move	s0,a0
    c4d4:	3c010000 	lui	at,0x0
    c4d8:	02202025 	move	a0,s1
    c4dc:	0c000000 	jal	0 <func_800FF5E0_ovl2>
    c4e0:	ac2e0000 	sw	t6,0(at)
    c4e4:	02002025 	move	a0,s0
    c4e8:	0c000000 	jal	0 <func_800FF5E0_ovl2>
    c4ec:	02202825 	move	a1,s1
    c4f0:	10400003 	beqz	v0,c500 <func_8010BA44_ovl2+0x4c>
    c4f4:	02002025 	move	a0,s0
    c4f8:	0c000000 	jal	0 <func_800FF5E0_ovl2>
    c4fc:	02202825 	move	a1,s1
    c500:	02002025 	move	a0,s0
    c504:	0c000000 	jal	0 <func_800FF5E0_ovl2>
    c508:	02202825 	move	a1,s1
    c50c:	10400003 	beqz	v0,c51c <func_8010BA44_ovl2+0x68>
    c510:	02002025 	move	a0,s0
    c514:	0c000000 	jal	0 <func_800FF5E0_ovl2>
    c518:	02202825 	move	a1,s1
    c51c:	3c020000 	lui	v0,0x0
    c520:	8c420000 	lw	v0,0(v0)
    c524:	000214c2 	srl	v0,v0,0x13
    c528:	1040000a 	beqz	v0,c554 <func_8010BA44_ovl2+0xa0>
    c52c:	304f0e00 	andi	t7,v0,0xe00
    c530:	11e00008 	beqz	t7,c554 <func_8010BA44_ovl2+0xa0>
    c534:	3c180000 	lui	t8,0x0
    c538:	8f180000 	lw	t8,0(t8)
    c53c:	24010014 	li	at,20
    c540:	02002025 	move	a0,s0
    c544:	13010003 	beq	t8,at,c554 <func_8010BA44_ovl2+0xa0>
    c548:	00000000 	nop
    c54c:	0c000000 	jal	0 <func_800FF5E0_ovl2>
    c550:	02202825 	move	a1,s1
    c554:	3c190000 	lui	t9,0x0
    c558:	8f390000 	lw	t9,0(t9)
    c55c:	00001025 	move	v0,zero
    c560:	ae190058 	sw	t9,88(s0)
    c564:	8fbf001c 	lw	ra,28(sp)
    c568:	8fb10018 	lw	s1,24(sp)
    c56c:	8fb00014 	lw	s0,20(sp)
    c570:	03e00008 	jr	ra
    c574:	27bd0020 	addiu	sp,sp,32

0000c578 <func_8010BB08>:
func_8010BB08():
    c578:	27bdffe0 	addiu	sp,sp,-32
    c57c:	afb10018 	sw	s1,24(sp)
    c580:	afbf001c 	sw	ra,28(sp)
    c584:	afb00014 	sw	s0,20(sp)
    c588:	8c8e0058 	lw	t6,88(a0)
    c58c:	3c110000 	lui	s1,0x0
    c590:	26310000 	addiu	s1,s1,0
    c594:	00808025 	move	s0,a0
    c598:	3c010000 	lui	at,0x0
    c59c:	02202025 	move	a0,s1
    c5a0:	0c000000 	jal	0 <func_800FF5E0_ovl2>
    c5a4:	ac2e0000 	sw	t6,0(at)
    c5a8:	0c000000 	jal	0 <func_800FF5E0_ovl2>
    c5ac:	02002025 	move	a0,s0
    c5b0:	02002025 	move	a0,s0
    c5b4:	0c000000 	jal	0 <func_800FF5E0_ovl2>
    c5b8:	02202825 	move	a1,s1
    c5bc:	10400003 	beqz	v0,c5cc <func_8010BB08+0x54>
    c5c0:	02002025 	move	a0,s0
    c5c4:	0c000000 	jal	0 <func_800FF5E0_ovl2>
    c5c8:	02202825 	move	a1,s1
    c5cc:	02002025 	move	a0,s0
    c5d0:	0c000000 	jal	0 <func_800FF5E0_ovl2>
    c5d4:	02202825 	move	a1,s1
    c5d8:	10400003 	beqz	v0,c5e8 <func_8010BB08+0x70>
    c5dc:	02002025 	move	a0,s0
    c5e0:	0c000000 	jal	0 <func_800FF5E0_ovl2>
    c5e4:	02202825 	move	a1,s1
    c5e8:	3c020000 	lui	v0,0x0
    c5ec:	8c420000 	lw	v0,0(v0)
    c5f0:	000214c2 	srl	v0,v0,0x13
    c5f4:	1040000a 	beqz	v0,c620 <func_8010BB08+0xa8>
    c5f8:	304f0e00 	andi	t7,v0,0xe00
    c5fc:	11e00008 	beqz	t7,c620 <func_8010BB08+0xa8>
    c600:	3c180000 	lui	t8,0x0
    c604:	8f180000 	lw	t8,0(t8)
    c608:	24010014 	li	at,20
    c60c:	02002025 	move	a0,s0
    c610:	13010003 	beq	t8,at,c620 <func_8010BB08+0xa8>
    c614:	00000000 	nop
    c618:	0c000000 	jal	0 <func_800FF5E0_ovl2>
    c61c:	02202825 	move	a1,s1
    c620:	3c190000 	lui	t9,0x0
    c624:	8f390000 	lw	t9,0(t9)
    c628:	00001025 	move	v0,zero
    c62c:	ae190058 	sw	t9,88(s0)
    c630:	8fbf001c 	lw	ra,28(sp)
    c634:	8fb10018 	lw	s1,24(sp)
    c638:	8fb00014 	lw	s0,20(sp)
    c63c:	03e00008 	jr	ra
    c640:	27bd0020 	addiu	sp,sp,32

0000c644 <func_8010BBD4>:
func_8010BBD4():
    c644:	27bdffd8 	addiu	sp,sp,-40
    c648:	afb20020 	sw	s2,32(sp)
    c64c:	3c120000 	lui	s2,0x0
    c650:	26520000 	addiu	s2,s2,0
    c654:	924f0000 	lbu	t7,0(s2)
    c658:	afb1001c 	sw	s1,28(sp)
    c65c:	afbf0024 	sw	ra,36(sp)
    c660:	35f80080 	ori	t8,t7,0x80
    c664:	afb00018 	sw	s0,24(sp)
    c668:	a2580000 	sb	t8,0(s2)
    c66c:	8c990058 	lw	t9,88(a0)
    c670:	3c110000 	lui	s1,0x0
    c674:	26310000 	addiu	s1,s1,0
    c678:	00808025 	move	s0,a0
    c67c:	02202025 	move	a0,s1
    c680:	0c000000 	jal	0 <func_800FF5E0_ovl2>
    c684:	ae590044 	sw	t9,68(s2)
    c688:	0c000000 	jal	0 <func_800FF5E0_ovl2>
    c68c:	02002025 	move	a0,s0
    c690:	02002025 	move	a0,s0
    c694:	0c000000 	jal	0 <func_800FF5E0_ovl2>
    c698:	02202825 	move	a1,s1
    c69c:	10400003 	beqz	v0,c6ac <func_8010BBD4+0x68>
    c6a0:	02002025 	move	a0,s0
    c6a4:	0c000000 	jal	0 <func_800FF5E0_ovl2>
    c6a8:	02202825 	move	a1,s1
    c6ac:	02002025 	move	a0,s0
    c6b0:	0c000000 	jal	0 <func_800FF5E0_ovl2>
    c6b4:	02202825 	move	a1,s1
    c6b8:	10400003 	beqz	v0,c6c8 <func_8010BBD4+0x84>
    c6bc:	02002025 	move	a0,s0
    c6c0:	0c000000 	jal	0 <func_800FF5E0_ovl2>
    c6c4:	02202825 	move	a1,s1
    c6c8:	8e230000 	lw	v1,0(s1)
    c6cc:	00031cc2 	srl	v1,v1,0x13
    c6d0:	1060000d 	beqz	v1,c708 <func_8010BBD4+0xc4>
    c6d4:	00601025 	move	v0,v1
    c6d8:	30480e00 	andi	t0,v0,0xe00
    c6dc:	1100000a 	beqz	t0,c708 <func_8010BBD4+0xc4>
    c6e0:	3c090000 	lui	t1,0x0
    c6e4:	8d290000 	lw	t1,0(t1)
    c6e8:	24010014 	li	at,20
    c6ec:	02002025 	move	a0,s0
    c6f0:	51210006 	beql	t1,at,c70c <func_8010BBD4+0xc8>
    c6f4:	306a01c0 	andi	t2,v1,0x1c0
    c6f8:	0c000000 	jal	0 <func_800FF5E0_ovl2>
    c6fc:	02202825 	move	a1,s1
    c700:	8e230000 	lw	v1,0(s1)
    c704:	00031cc2 	srl	v1,v1,0x13
    c708:	306a01c0 	andi	t2,v1,0x1c0
    c70c:	1140000f 	beqz	t2,c74c <func_8010BBD4+0x108>
    c710:	3c0b0000 	lui	t3,0x0
    c714:	8d6b0000 	lw	t3,0(t3)
    c718:	3c0e0000 	lui	t6,0x0
    c71c:	956c0008 	lhu	t4,8(t3)
    c720:	318d0004 	andi	t5,t4,0x4
    c724:	51a0000a 	beqzl	t5,c750 <func_8010BBD4+0x10c>
    c728:	924c0000 	lbu	t4,0(s2)
    c72c:	8dce0000 	lw	t6,0(t6)
    c730:	96290000 	lhu	t1,0(s1)
    c734:	000e7cc2 	srl	t7,t6,0x13
    c738:	31f8fe3f 	andi	t8,t7,0xfe3f
    c73c:	001840c0 	sll	t0,t8,0x3
    c740:	312a0007 	andi	t2,t1,0x7
    c744:	010a5825 	or	t3,t0,t2
    c748:	a62b0000 	sh	t3,0(s1)
    c74c:	924c0000 	lbu	t4,0(s2)
    c750:	8e4e0040 	lw	t6,64(s2)
    c754:	00001025 	move	v0,zero
    c758:	318dff7f 	andi	t5,t4,0xff7f
    c75c:	a24d0000 	sb	t5,0(s2)
    c760:	ae0e0058 	sw	t6,88(s0)
    c764:	8fbf0024 	lw	ra,36(sp)
    c768:	8fb20020 	lw	s2,32(sp)
    c76c:	8fb1001c 	lw	s1,28(sp)
    c770:	8fb00018 	lw	s0,24(sp)
    c774:	03e00008 	jr	ra
    c778:	27bd0028 	addiu	sp,sp,40

0000c77c <func_8010BD0C>:
func_8010BD0C():
    c77c:	27bdffe0 	addiu	sp,sp,-32
    c780:	afbf001c 	sw	ra,28(sp)
    c784:	afb00018 	sw	s0,24(sp)
    c788:	8c8e0058 	lw	t6,88(a0)
    c78c:	00808025 	move	s0,a0
    c790:	3c010000 	lui	at,0x0
    c794:	3c040000 	lui	a0,0x0
    c798:	24840000 	addiu	a0,a0,0
    c79c:	0c000000 	jal	0 <func_800FF5E0_ovl2>
    c7a0:	ac2e0000 	sw	t6,0(at)
    c7a4:	0c000000 	jal	0 <func_800FF5E0_ovl2>
    c7a8:	02002025 	move	a0,s0
    c7ac:	3c050000 	lui	a1,0x0
    c7b0:	24a50000 	addiu	a1,a1,0
    c7b4:	0c000000 	jal	0 <func_800FF5E0_ovl2>
    c7b8:	02002025 	move	a0,s0
    c7bc:	10400004 	beqz	v0,c7d0 <func_8010BD0C+0x54>
    c7c0:	02002025 	move	a0,s0
    c7c4:	3c050000 	lui	a1,0x0
    c7c8:	0c000000 	jal	0 <func_800FF5E0_ovl2>
    c7cc:	24a50000 	addiu	a1,a1,0
    c7d0:	3c0f0000 	lui	t7,0x0
    c7d4:	8def0000 	lw	t7,0(t7)
    c7d8:	00001025 	move	v0,zero
    c7dc:	ae0f0058 	sw	t7,88(s0)
    c7e0:	8fbf001c 	lw	ra,28(sp)
    c7e4:	8fb00018 	lw	s0,24(sp)
    c7e8:	27bd0020 	addiu	sp,sp,32
    c7ec:	03e00008 	jr	ra
    c7f0:	00000000 	nop

0000c7f4 <func_8010BD84_ovl2>:
func_8010BD84_ovl2():
    c7f4:	27bdffd8 	addiu	sp,sp,-40
    c7f8:	afb10018 	sw	s1,24(sp)
    c7fc:	afbf001c 	sw	ra,28(sp)
    c800:	afb00014 	sw	s0,20(sp)
    c804:	8c8e0058 	lw	t6,88(a0)
    c808:	3c110000 	lui	s1,0x0
    c80c:	26310000 	addiu	s1,s1,0
    c810:	00808025 	move	s0,a0
    c814:	3c010000 	lui	at,0x0
    c818:	02202025 	move	a0,s1
    c81c:	0c000000 	jal	0 <func_800FF5E0_ovl2>
    c820:	ac2e0000 	sw	t6,0(at)
    c824:	0c000000 	jal	0 <func_800FF5E0_ovl2>
    c828:	02002025 	move	a0,s0
    c82c:	02002025 	move	a0,s0
    c830:	0c000000 	jal	0 <func_800FF5E0_ovl2>
    c834:	02202825 	move	a1,s1
    c838:	10400003 	beqz	v0,c848 <func_8010BD84_ovl2+0x54>
    c83c:	02002025 	move	a0,s0
    c840:	0c000000 	jal	0 <func_800FF5E0_ovl2>
    c844:	02202825 	move	a1,s1
    c848:	02002025 	move	a0,s0
    c84c:	0c000000 	jal	0 <func_800FF5E0_ovl2>
    c850:	02202825 	move	a1,s1
    c854:	10400003 	beqz	v0,c864 <func_8010BD84_ovl2+0x70>
    c858:	02002025 	move	a0,s0
    c85c:	0c000000 	jal	0 <func_800FF5E0_ovl2>
    c860:	02202825 	move	a1,s1
    c864:	3c030000 	lui	v1,0x0
    c868:	8c630000 	lw	v1,0(v1)
    c86c:	00031cc2 	srl	v1,v1,0x13
    c870:	10600015 	beqz	v1,c8c8 <func_8010BD84_ovl2+0xd4>
    c874:	306f0007 	andi	t7,v1,0x7
    c878:	11e00009 	beqz	t7,c8a0 <func_8010BD84_ovl2+0xac>
    c87c:	3c180000 	lui	t8,0x0
    c880:	8f180000 	lw	t8,0(t8)
    c884:	24010014 	li	at,20
    c888:	02002025 	move	a0,s0
    c88c:	13010004 	beq	t8,at,c8a0 <func_8010BD84_ovl2+0xac>
    c890:	02202825 	move	a1,s1
    c894:	0c000000 	jal	0 <func_800FF5E0_ovl2>
    c898:	afa30020 	sw	v1,32(sp)
    c89c:	8fa30020 	lw	v1,32(sp)
    c8a0:	30790038 	andi	t9,v1,0x38
    c8a4:	13200008 	beqz	t9,c8c8 <func_8010BD84_ovl2+0xd4>
    c8a8:	3c080000 	lui	t0,0x0
    c8ac:	8d080000 	lw	t0,0(t0)
    c8b0:	24010014 	li	at,20
    c8b4:	02002025 	move	a0,s0
    c8b8:	11010003 	beq	t0,at,c8c8 <func_8010BD84_ovl2+0xd4>
    c8bc:	00000000 	nop
    c8c0:	0c000000 	jal	0 <func_800FF5E0_ovl2>
    c8c4:	02202825 	move	a1,s1
    c8c8:	3c090000 	lui	t1,0x0
    c8cc:	8d290000 	lw	t1,0(t1)
    c8d0:	00001025 	move	v0,zero
    c8d4:	ae090058 	sw	t1,88(s0)
    c8d8:	8fbf001c 	lw	ra,28(sp)
    c8dc:	8fb10018 	lw	s1,24(sp)
    c8e0:	8fb00014 	lw	s0,20(sp)
    c8e4:	03e00008 	jr	ra
    c8e8:	27bd0028 	addiu	sp,sp,40

0000c8ec <func_8010BE7C>:
func_8010BE7C():
    c8ec:	27bdffd8 	addiu	sp,sp,-40
    c8f0:	afb10018 	sw	s1,24(sp)
    c8f4:	afbf001c 	sw	ra,28(sp)
    c8f8:	afb00014 	sw	s0,20(sp)
    c8fc:	8c8e0058 	lw	t6,88(a0)
    c900:	3c110000 	lui	s1,0x0
    c904:	26310000 	addiu	s1,s1,0
    c908:	00808025 	move	s0,a0
    c90c:	3c010000 	lui	at,0x0
    c910:	02202025 	move	a0,s1
    c914:	0c000000 	jal	0 <func_800FF5E0_ovl2>
    c918:	ac2e0000 	sw	t6,0(at)
    c91c:	0c000000 	jal	0 <func_800FF5E0_ovl2>
    c920:	02002025 	move	a0,s0
    c924:	02002025 	move	a0,s0
    c928:	0c000000 	jal	0 <func_800FF5E0_ovl2>
    c92c:	02202825 	move	a1,s1
    c930:	10400003 	beqz	v0,c940 <func_8010BE7C+0x54>
    c934:	02002025 	move	a0,s0
    c938:	0c000000 	jal	0 <func_800FF5E0_ovl2>
    c93c:	02202825 	move	a1,s1
    c940:	02002025 	move	a0,s0
    c944:	0c000000 	jal	0 <func_800FF5E0_ovl2>
    c948:	02202825 	move	a1,s1
    c94c:	10400003 	beqz	v0,c95c <func_8010BE7C+0x70>
    c950:	02002025 	move	a0,s0
    c954:	0c000000 	jal	0 <func_800FF5E0_ovl2>
    c958:	02202825 	move	a1,s1
    c95c:	02002025 	move	a0,s0
    c960:	0c000000 	jal	0 <func_800FF5E0_ovl2>
    c964:	02202825 	move	a1,s1
    c968:	10400003 	beqz	v0,c978 <func_8010BE7C+0x8c>
    c96c:	02002025 	move	a0,s0
    c970:	0c000000 	jal	0 <func_800FF5E0_ovl2>
    c974:	02202825 	move	a1,s1
    c978:	02002025 	move	a0,s0
    c97c:	0c000000 	jal	0 <func_800FF5E0_ovl2>
    c980:	02202825 	move	a1,s1
    c984:	10400003 	beqz	v0,c994 <func_8010BE7C+0xa8>
    c988:	02002025 	move	a0,s0
    c98c:	0c000000 	jal	0 <func_800FF5E0_ovl2>
    c990:	02202825 	move	a1,s1
    c994:	3c030000 	lui	v1,0x0
    c998:	8c630000 	lw	v1,0(v1)
    c99c:	00031cc2 	srl	v1,v1,0x13
    c9a0:	10600015 	beqz	v1,c9f8 <func_8010BE7C+0x10c>
    c9a4:	306f0007 	andi	t7,v1,0x7
    c9a8:	11e00009 	beqz	t7,c9d0 <func_8010BE7C+0xe4>
    c9ac:	3c180000 	lui	t8,0x0
    c9b0:	8f180000 	lw	t8,0(t8)
    c9b4:	24010014 	li	at,20
    c9b8:	02002025 	move	a0,s0
    c9bc:	13010004 	beq	t8,at,c9d0 <func_8010BE7C+0xe4>
    c9c0:	02202825 	move	a1,s1
    c9c4:	0c000000 	jal	0 <func_800FF5E0_ovl2>
    c9c8:	afa30020 	sw	v1,32(sp)
    c9cc:	8fa30020 	lw	v1,32(sp)
    c9d0:	30790038 	andi	t9,v1,0x38
    c9d4:	13200008 	beqz	t9,c9f8 <func_8010BE7C+0x10c>
    c9d8:	3c080000 	lui	t0,0x0
    c9dc:	8d080000 	lw	t0,0(t0)
    c9e0:	24010014 	li	at,20
    c9e4:	02002025 	move	a0,s0
    c9e8:	11010003 	beq	t0,at,c9f8 <func_8010BE7C+0x10c>
    c9ec:	00000000 	nop
    c9f0:	0c000000 	jal	0 <func_800FF5E0_ovl2>
    c9f4:	02202825 	move	a1,s1
    c9f8:	3c090000 	lui	t1,0x0
    c9fc:	8d290000 	lw	t1,0(t1)
    ca00:	00001025 	move	v0,zero
    ca04:	ae090058 	sw	t1,88(s0)
    ca08:	8fbf001c 	lw	ra,28(sp)
    ca0c:	8fb10018 	lw	s1,24(sp)
    ca10:	8fb00014 	lw	s0,20(sp)
    ca14:	03e00008 	jr	ra
    ca18:	27bd0028 	addiu	sp,sp,40

0000ca1c <func_8010BFAC>:
func_8010BFAC():
    ca1c:	3c020000 	lui	v0,0x0
    ca20:	24420000 	addiu	v0,v0,0
    ca24:	904f0000 	lbu	t7,0(v0)
    ca28:	27bdffd8 	addiu	sp,sp,-40
    ca2c:	afb00014 	sw	s0,20(sp)
    ca30:	35f80080 	ori	t8,t7,0x80
    ca34:	afbf001c 	sw	ra,28(sp)
    ca38:	afb10018 	sw	s1,24(sp)
    ca3c:	a0580000 	sb	t8,0(v0)
    ca40:	8c990058 	lw	t9,88(a0)
    ca44:	3c100000 	lui	s0,0x0
    ca48:	26100000 	addiu	s0,s0,0
    ca4c:	00808825 	move	s1,a0
    ca50:	02002025 	move	a0,s0
    ca54:	0c000000 	jal	0 <func_800FF5E0_ovl2>
    ca58:	ac590044 	sw	t9,68(v0)
    ca5c:	0c000000 	jal	0 <func_800FF5E0_ovl2>
    ca60:	02202025 	move	a0,s1
    ca64:	02202025 	move	a0,s1
    ca68:	0c000000 	jal	0 <func_800FF5E0_ovl2>
    ca6c:	02002825 	move	a1,s0
    ca70:	10400003 	beqz	v0,ca80 <func_8010BFAC+0x64>
    ca74:	02202025 	move	a0,s1
    ca78:	0c000000 	jal	0 <func_800FF5E0_ovl2>
    ca7c:	02002825 	move	a1,s0
    ca80:	02202025 	move	a0,s1
    ca84:	0c000000 	jal	0 <func_800FF5E0_ovl2>
    ca88:	02002825 	move	a1,s0
    ca8c:	10400003 	beqz	v0,ca9c <func_8010BFAC+0x80>
    ca90:	02202025 	move	a0,s1
    ca94:	0c000000 	jal	0 <func_800FF5E0_ovl2>
    ca98:	02002825 	move	a1,s0
    ca9c:	02202025 	move	a0,s1
    caa0:	0c000000 	jal	0 <func_800FF5E0_ovl2>
    caa4:	02002825 	move	a1,s0
    caa8:	10400003 	beqz	v0,cab8 <func_8010BFAC+0x9c>
    caac:	02202025 	move	a0,s1
    cab0:	0c000000 	jal	0 <func_800FF5E0_ovl2>
    cab4:	02002825 	move	a1,s0
    cab8:	02202025 	move	a0,s1
    cabc:	0c000000 	jal	0 <func_800FF5E0_ovl2>
    cac0:	02002825 	move	a1,s0
    cac4:	10400003 	beqz	v0,cad4 <func_8010BFAC+0xb8>
    cac8:	02202025 	move	a0,s1
    cacc:	0c000000 	jal	0 <func_800FF5E0_ovl2>
    cad0:	02002825 	move	a1,s0
    cad4:	8e030000 	lw	v1,0(s0)
    cad8:	00031cc2 	srl	v1,v1,0x13
    cadc:	10600015 	beqz	v1,cb34 <func_8010BFAC+0x118>
    cae0:	30680007 	andi	t0,v1,0x7
    cae4:	11000009 	beqz	t0,cb0c <func_8010BFAC+0xf0>
    cae8:	3c090000 	lui	t1,0x0
    caec:	8d290000 	lw	t1,0(t1)
    caf0:	24010014 	li	at,20
    caf4:	02202025 	move	a0,s1
    caf8:	11210004 	beq	t1,at,cb0c <func_8010BFAC+0xf0>
    cafc:	02002825 	move	a1,s0
    cb00:	0c000000 	jal	0 <func_800FF5E0_ovl2>
    cb04:	afa30020 	sw	v1,32(sp)
    cb08:	8fa30020 	lw	v1,32(sp)
    cb0c:	306a0038 	andi	t2,v1,0x38
    cb10:	11400008 	beqz	t2,cb34 <func_8010BFAC+0x118>
    cb14:	3c0b0000 	lui	t3,0x0
    cb18:	8d6b0000 	lw	t3,0(t3)
    cb1c:	24010014 	li	at,20
    cb20:	02202025 	move	a0,s1
    cb24:	51610004 	beql	t3,at,cb38 <func_8010BFAC+0x11c>
    cb28:	8e020000 	lw	v0,0(s0)
    cb2c:	0c000000 	jal	0 <func_800FF5E0_ovl2>
    cb30:	02002825 	move	a1,s0
    cb34:	8e020000 	lw	v0,0(s0)
    cb38:	3c030000 	lui	v1,0x0
    cb3c:	3c0d0000 	lui	t5,0x0
    cb40:	000214c2 	srl	v0,v0,0x13
    cb44:	304c0007 	andi	t4,v0,0x7
    cb48:	1180000e 	beqz	t4,cb84 <func_8010BFAC+0x168>
    cb4c:	24630000 	addiu	v1,v1,0
    cb50:	8dad0000 	lw	t5,0(t5)
    cb54:	95ae0008 	lhu	t6,8(t5)
    cb58:	31cf0004 	andi	t7,t6,0x4
    cb5c:	51e0000a 	beqzl	t7,cb88 <func_8010BFAC+0x16c>
    cb60:	304c0038 	andi	t4,v0,0x38
    cb64:	96090000 	lhu	t1,0(s0)
    cb68:	3058fff8 	andi	t8,v0,0xfff8
    cb6c:	001840c0 	sll	t0,t8,0x3
    cb70:	312a0007 	andi	t2,t1,0x7
    cb74:	010a5825 	or	t3,t0,t2
    cb78:	a60b0000 	sh	t3,0(s0)
    cb7c:	8e020000 	lw	v0,0(s0)
    cb80:	000214c2 	srl	v0,v0,0x13
    cb84:	304c0038 	andi	t4,v0,0x38
    cb88:	1180000f 	beqz	t4,cbc8 <func_8010BFAC+0x1ac>
    cb8c:	3c0d0000 	lui	t5,0x0
    cb90:	8dad0000 	lw	t5,0(t5)
    cb94:	3c180000 	lui	t8,0x0
    cb98:	95ae0008 	lhu	t6,8(t5)
    cb9c:	31cf0004 	andi	t7,t6,0x4
    cba0:	51e0000a 	beqzl	t7,cbcc <func_8010BFAC+0x1b0>
    cba4:	906e0000 	lbu	t6,0(v1)
    cba8:	8f180000 	lw	t8,0(t8)
    cbac:	960b0000 	lhu	t3,0(s0)
    cbb0:	0018ccc2 	srl	t9,t8,0x13
    cbb4:	3329ffc7 	andi	t1,t9,0xffc7
    cbb8:	000950c0 	sll	t2,t1,0x3
    cbbc:	316c0007 	andi	t4,t3,0x7
    cbc0:	014c6825 	or	t5,t2,t4
    cbc4:	a60d0000 	sh	t5,0(s0)
    cbc8:	906e0000 	lbu	t6,0(v1)
    cbcc:	8c780040 	lw	t8,64(v1)
    cbd0:	00001025 	move	v0,zero
    cbd4:	31cfff7f 	andi	t7,t6,0xff7f
    cbd8:	a06f0000 	sb	t7,0(v1)
    cbdc:	ae380058 	sw	t8,88(s1)
    cbe0:	8fbf001c 	lw	ra,28(sp)
    cbe4:	8fb10018 	lw	s1,24(sp)
    cbe8:	8fb00014 	lw	s0,20(sp)
    cbec:	03e00008 	jr	ra
    cbf0:	27bd0028 	addiu	sp,sp,40

0000cbf4 <func_8010C184>:
func_8010C184():
    cbf4:	27bdffb0 	addiu	sp,sp,-80
    cbf8:	afbf002c 	sw	ra,44(sp)
    cbfc:	afb00028 	sw	s0,40(sp)
    cc00:	8c8e0058 	lw	t6,88(a0)
    cc04:	00808025 	move	s0,a0
    cc08:	3c010000 	lui	at,0x0
    cc0c:	3c040000 	lui	a0,0x0
    cc10:	24840000 	addiu	a0,a0,0
    cc14:	0c000000 	jal	0 <func_800FF5E0_ovl2>
    cc18:	ac2e0000 	sw	t6,0(at)
    cc1c:	c6040028 	lwc1	$f4,40(s0)
    cc20:	3c180000 	lui	t8,0x0
    cc24:	3c190000 	lui	t9,0x0
    cc28:	e7a40040 	swc1	$f4,64(sp)
    cc2c:	c606002c 	lwc1	$f6,44(s0)
    cc30:	3c080000 	lui	t0,0x0
    cc34:	25080000 	addiu	t0,t0,0
    cc38:	e7a60044 	swc1	$f6,68(sp)
    cc3c:	c6080030 	lwc1	$f8,48(s0)
    cc40:	27390000 	addiu	t9,t9,0
    cc44:	27180000 	addiu	t8,t8,0
    cc48:	e7a80048 	swc1	$f8,72(sp)
    cc4c:	c60a0004 	lwc1	$f10,4(s0)
    cc50:	260f0004 	addiu	t7,s0,4
    cc54:	27a40040 	addiu	a0,sp,64
    cc58:	e7aa0034 	swc1	$f10,52(sp)
    cc5c:	c6120010 	lwc1	$f18,16(s0)
    cc60:	c6100008 	lwc1	$f16,8(s0)
    cc64:	27a50034 	addiu	a1,sp,52
    cc68:	00003025 	move	a2,zero
    cc6c:	46128100 	add.s	$f4,$f16,$f18
    cc70:	00003825 	move	a3,zero
    cc74:	e7a40038 	swc1	$f4,56(sp)
    cc78:	c606000c 	lwc1	$f6,12(s0)
    cc7c:	afa8001c 	sw	t0,28(sp)
    cc80:	afb90018 	sw	t9,24(sp)
    cc84:	afb80014 	sw	t8,20(sp)
    cc88:	afaf0010 	sw	t7,16(sp)
    cc8c:	0c000000 	jal	0 <func_800FF5E0_ovl2>
    cc90:	e7a6003c 	swc1	$f6,60(sp)
    cc94:	1040000b 	beqz	v0,ccc4 <func_8010C184+0xd0>
    cc98:	3c0c0000 	lui	t4,0x0
    cc9c:	c6080008 	lwc1	$f8,8(s0)
    cca0:	c60a0010 	lwc1	$f10,16(s0)
    cca4:	3c090000 	lui	t1,0x0
    cca8:	3c010000 	lui	at,0x0
    ccac:	460a4401 	sub.s	$f16,$f8,$f10
    ccb0:	e6100008 	swc1	$f16,8(s0)
    ccb4:	95290000 	lhu	t1,0(t1)
    ccb8:	312a0007 	andi	t2,t1,0x7
    ccbc:	354b8000 	ori	t3,t2,0x8000
    ccc0:	a42b0000 	sh	t3,0(at)
    ccc4:	8d8c0000 	lw	t4,0(t4)
    ccc8:	00001025 	move	v0,zero
    cccc:	ae0c0058 	sw	t4,88(s0)
    ccd0:	8fbf002c 	lw	ra,44(sp)
    ccd4:	8fb00028 	lw	s0,40(sp)
    ccd8:	27bd0050 	addiu	sp,sp,80
    ccdc:	03e00008 	jr	ra
    cce0:	00000000 	nop

0000cce4 <func_8010C274_ovl2>:
func_8010C274_ovl2():
    cce4:	27bdff80 	addiu	sp,sp,-128
    cce8:	3c010000 	lui	at,0x0
    ccec:	c4240000 	lwc1	$f4,0(at)
    ccf0:	afb20030 	sw	s2,48(sp)
    ccf4:	afb1002c 	sw	s1,44(sp)
    ccf8:	afbf0034 	sw	ra,52(sp)
    ccfc:	afb00028 	sw	s0,40(sp)
    cd00:	e7a40078 	swc1	$f4,120(sp)
    cd04:	8c8e0058 	lw	t6,88(a0)
    cd08:	3c110000 	lui	s1,0x0
    cd0c:	3c120000 	lui	s2,0x0
    cd10:	26520000 	addiu	s2,s2,0
    cd14:	26310000 	addiu	s1,s1,0
    cd18:	00808025 	move	s0,a0
    cd1c:	02402025 	move	a0,s2
    cd20:	0c000000 	jal	0 <func_800FF5E0_ovl2>
    cd24:	ae2e0044 	sw	t6,68(s1)
    cd28:	3c010000 	lui	at,0x0
    cd2c:	ac200000 	sw	zero,0(at)
    cd30:	3c010000 	lui	at,0x0
    cd34:	ac200000 	sw	zero,0(at)
    cd38:	3c010000 	lui	at,0x0
    cd3c:	ac200000 	sw	zero,0(at)
    cd40:	3c010000 	lui	at,0x0
    cd44:	ac200000 	sw	zero,0(at)
    cd48:	0c000000 	jal	0 <func_800FF5E0_ovl2>
    cd4c:	02002025 	move	a0,s0
    cd50:	c6060034 	lwc1	$f6,52(s0)
    cd54:	c6320004 	lwc1	$f18,4(s1)
    cd58:	27af0050 	addiu	t7,sp,80
    cd5c:	e7a60068 	swc1	$f6,104(sp)
    cd60:	c6080048 	lwc1	$f8,72(s0)
    cd64:	27a40068 	addiu	a0,sp,104
    cd68:	27a5005c 	addiu	a1,sp,92
    cd6c:	e7a8006c 	swc1	$f8,108(sp)
    cd70:	c60a0038 	lwc1	$f10,56(s0)
    cd74:	00003025 	move	a2,zero
    cd78:	27a70078 	addiu	a3,sp,120
    cd7c:	e7aa0070 	swc1	$f10,112(sp)
    cd80:	c6100004 	lwc1	$f16,4(s0)
    cd84:	46128100 	add.s	$f4,$f16,$f18
    cd88:	c6320008 	lwc1	$f18,8(s1)
    cd8c:	e7a4005c 	swc1	$f4,92(sp)
    cd90:	c6080018 	lwc1	$f8,24(s0)
    cd94:	c6060008 	lwc1	$f6,8(s0)
    cd98:	46083280 	add.s	$f10,$f6,$f8
    cd9c:	e7aa0060 	swc1	$f10,96(sp)
    cda0:	c610000c 	lwc1	$f16,12(s0)
    cda4:	afa0001c 	sw	zero,28(sp)
    cda8:	afa00018 	sw	zero,24(sp)
    cdac:	46128100 	add.s	$f4,$f16,$f18
    cdb0:	afa00014 	sw	zero,20(sp)
    cdb4:	afaf0010 	sw	t7,16(sp)
    cdb8:	0c000000 	jal	0 <func_800FF5E0_ovl2>
    cdbc:	e7a40064 	swc1	$f4,100(sp)
    cdc0:	50400012 	beqzl	v0,ce0c <func_8010C274_ovl2+0x128>
    cdc4:	c610003c 	lwc1	$f16,60(s0)
    cdc8:	c7a60050 	lwc1	$f6,80(sp)
    cdcc:	c6280004 	lwc1	$f8,4(s1)
    cdd0:	96580000 	lhu	t8,0(s2)
    cdd4:	c7b00054 	lwc1	$f16,84(sp)
    cdd8:	46083281 	sub.s	$f10,$f6,$f8
    cddc:	33190007 	andi	t9,t8,0x7
    cde0:	37284020 	ori	t0,t9,0x4020
    cde4:	a6480000 	sh	t0,0(s2)
    cde8:	e7aa0050 	swc1	$f10,80(sp)
    cdec:	c6120018 	lwc1	$f18,24(s0)
    cdf0:	c6280008 	lwc1	$f8,8(s1)
    cdf4:	c7a60058 	lwc1	$f6,88(sp)
    cdf8:	46128101 	sub.s	$f4,$f16,$f18
    cdfc:	46083281 	sub.s	$f10,$f6,$f8
    ce00:	e7a40054 	swc1	$f4,84(sp)
    ce04:	e7aa0058 	swc1	$f10,88(sp)
    ce08:	c610003c 	lwc1	$f16,60(s0)
    ce0c:	c626000c 	lwc1	$f6,12(s1)
    ce10:	27a90044 	addiu	t1,sp,68
    ce14:	e7b00068 	swc1	$f16,104(sp)
    ce18:	c6120040 	lwc1	$f18,64(s0)
    ce1c:	c6300010 	lwc1	$f16,16(s1)
    ce20:	27a40068 	addiu	a0,sp,104
    ce24:	e7b20070 	swc1	$f18,112(sp)
    ce28:	c6040004 	lwc1	$f4,4(s0)
    ce2c:	27a5005c 	addiu	a1,sp,92
    ce30:	00003025 	move	a2,zero
    ce34:	46062200 	add.s	$f8,$f4,$f6
    ce38:	27a70074 	addiu	a3,sp,116
    ce3c:	e7a8005c 	swc1	$f8,92(sp)
    ce40:	c60a000c 	lwc1	$f10,12(s0)
    ce44:	afa0001c 	sw	zero,28(sp)
    ce48:	afa00018 	sw	zero,24(sp)
    ce4c:	46105480 	add.s	$f18,$f10,$f16
    ce50:	afa00014 	sw	zero,20(sp)
    ce54:	afa90010 	sw	t1,16(sp)
    ce58:	0c000000 	jal	0 <func_800FF5E0_ovl2>
    ce5c:	e7b20064 	swc1	$f18,100(sp)
    ce60:	10400019 	beqz	v0,cec8 <func_8010C274_ovl2+0x1e4>
    ce64:	27a40068 	addiu	a0,sp,104
    ce68:	c7a40074 	lwc1	$f4,116(sp)
    ce6c:	c7a60078 	lwc1	$f6,120(sp)
    ce70:	4606203c 	c.lt.s	$f4,$f6
    ce74:	00000000 	nop
    ce78:	45020014 	bc1fl	cecc <func_8010C274_ovl2+0x1e8>
    ce7c:	c6040044 	lwc1	$f4,68(s0)
    ce80:	c7a80044 	lwc1	$f8,68(sp)
    ce84:	c62a000c 	lwc1	$f10,12(s1)
    ce88:	964a0000 	lhu	t2,0(s2)
    ce8c:	c7b20048 	lwc1	$f18,72(sp)
    ce90:	460a4401 	sub.s	$f16,$f8,$f10
    ce94:	314b0007 	andi	t3,t2,0x7
    ce98:	356c2100 	ori	t4,t3,0x2100
    ce9c:	a64c0000 	sh	t4,0(s2)
    cea0:	e7b00050 	swc1	$f16,80(sp)
    cea4:	c6040018 	lwc1	$f4,24(s0)
    cea8:	c62a0010 	lwc1	$f10,16(s1)
    ceac:	c7a8004c 	lwc1	$f8,76(sp)
    ceb0:	46049181 	sub.s	$f6,$f18,$f4
    ceb4:	c7b20074 	lwc1	$f18,116(sp)
    ceb8:	460a4401 	sub.s	$f16,$f8,$f10
    cebc:	e7a60054 	swc1	$f6,84(sp)
    cec0:	e7b20078 	swc1	$f18,120(sp)
    cec4:	e7b00058 	swc1	$f16,88(sp)
    cec8:	c6040044 	lwc1	$f4,68(s0)
    cecc:	27ad0044 	addiu	t5,sp,68
    ced0:	27a5005c 	addiu	a1,sp,92
    ced4:	e7a4006c 	swc1	$f4,108(sp)
    ced8:	c6080014 	lwc1	$f8,20(s0)
    cedc:	c6060008 	lwc1	$f6,8(s0)
    cee0:	afa0001c 	sw	zero,28(sp)
    cee4:	afa00018 	sw	zero,24(sp)
    cee8:	46083280 	add.s	$f10,$f6,$f8
    ceec:	afa00014 	sw	zero,20(sp)
    cef0:	afad0010 	sw	t5,16(sp)
    cef4:	00003025 	move	a2,zero
    cef8:	e7aa0060 	swc1	$f10,96(sp)
    cefc:	0c000000 	jal	0 <func_800FF5E0_ovl2>
    cf00:	27a70074 	addiu	a3,sp,116
    cf04:	10400018 	beqz	v0,cf68 <func_8010C274_ovl2+0x284>
    cf08:	c7b00074 	lwc1	$f16,116(sp)
    cf0c:	c7b20078 	lwc1	$f18,120(sp)
    cf10:	4612803c 	c.lt.s	$f16,$f18
    cf14:	00000000 	nop
    cf18:	45020014 	bc1fl	cf6c <func_8010C274_ovl2+0x288>
    cf1c:	c6100034 	lwc1	$f16,52(s0)
    cf20:	c7a40044 	lwc1	$f4,68(sp)
    cf24:	c626000c 	lwc1	$f6,12(s1)
    cf28:	964e0000 	lhu	t6,0(s2)
    cf2c:	c7aa0048 	lwc1	$f10,72(sp)
    cf30:	46062201 	sub.s	$f8,$f4,$f6
    cf34:	31cf0007 	andi	t7,t6,0x7
    cf38:	35f80480 	ori	t8,t7,0x480
    cf3c:	a6580000 	sh	t8,0(s2)
    cf40:	e7a80050 	swc1	$f8,80(sp)
    cf44:	c6100014 	lwc1	$f16,20(s0)
    cf48:	c6260010 	lwc1	$f6,16(s1)
    cf4c:	c7a4004c 	lwc1	$f4,76(sp)
    cf50:	46105481 	sub.s	$f18,$f10,$f16
    cf54:	c7aa0074 	lwc1	$f10,116(sp)
    cf58:	46062201 	sub.s	$f8,$f4,$f6
    cf5c:	e7b20054 	swc1	$f18,84(sp)
    cf60:	e7aa0078 	swc1	$f10,120(sp)
    cf64:	e7a80058 	swc1	$f8,88(sp)
    cf68:	c6100034 	lwc1	$f16,52(s0)
    cf6c:	c6260004 	lwc1	$f6,4(s1)
    cf70:	27b90044 	addiu	t9,sp,68
    cf74:	e7b00068 	swc1	$f16,104(sp)
    cf78:	c6120038 	lwc1	$f18,56(s0)
    cf7c:	c6300008 	lwc1	$f16,8(s1)
    cf80:	27a40068 	addiu	a0,sp,104
    cf84:	e7b20070 	swc1	$f18,112(sp)
    cf88:	c6040004 	lwc1	$f4,4(s0)
    cf8c:	27a5005c 	addiu	a1,sp,92
    cf90:	00003025 	move	a2,zero
    cf94:	46062200 	add.s	$f8,$f4,$f6
    cf98:	27a70074 	addiu	a3,sp,116
    cf9c:	e7a8005c 	swc1	$f8,92(sp)
    cfa0:	c60a000c 	lwc1	$f10,12(s0)
    cfa4:	afa0001c 	sw	zero,28(sp)
    cfa8:	afa00018 	sw	zero,24(sp)
    cfac:	46105480 	add.s	$f18,$f10,$f16
    cfb0:	afa00014 	sw	zero,20(sp)
    cfb4:	afb90010 	sw	t9,16(sp)
    cfb8:	0c000000 	jal	0 <func_800FF5E0_ovl2>
    cfbc:	e7b20064 	swc1	$f18,100(sp)
    cfc0:	10400019 	beqz	v0,d028 <func_8010C274_ovl2+0x344>
    cfc4:	3c0b0000 	lui	t3,0x0
    cfc8:	c7a40074 	lwc1	$f4,116(sp)
    cfcc:	c7a60078 	lwc1	$f6,120(sp)
    cfd0:	4606203c 	c.lt.s	$f4,$f6
    cfd4:	00000000 	nop
    cfd8:	45000013 	bc1f	d028 <func_8010C274_ovl2+0x344>
    cfdc:	00000000 	nop
    cfe0:	c7a80044 	lwc1	$f8,68(sp)
    cfe4:	c62a0004 	lwc1	$f10,4(s1)
    cfe8:	96480000 	lhu	t0,0(s2)
    cfec:	c7b20048 	lwc1	$f18,72(sp)
    cff0:	460a4401 	sub.s	$f16,$f8,$f10
    cff4:	31090007 	andi	t1,t0,0x7
    cff8:	352a0810 	ori	t2,t1,0x810
    cffc:	a64a0000 	sh	t2,0(s2)
    d000:	e7b00050 	swc1	$f16,80(sp)
    d004:	c6040014 	lwc1	$f4,20(s0)
    d008:	c62a0008 	lwc1	$f10,8(s1)
    d00c:	c7a8004c 	lwc1	$f8,76(sp)
    d010:	46049181 	sub.s	$f6,$f18,$f4
    d014:	c7b20074 	lwc1	$f18,116(sp)
    d018:	460a4401 	sub.s	$f16,$f8,$f10
    d01c:	e7a60054 	swc1	$f6,84(sp)
    d020:	e7b20078 	swc1	$f18,120(sp)
    d024:	e7b00058 	swc1	$f16,88(sp)
    d028:	8d6b0000 	lw	t3,0(t3)
    d02c:	27ad0050 	addiu	t5,sp,80
    d030:	000b64c2 	srl	t4,t3,0x13
    d034:	51800008 	beqzl	t4,d058 <func_8010C274_ovl2+0x374>
    d038:	8e380040 	lw	t8,64(s1)
    d03c:	8daf0000 	lw	t7,0(t5)
    d040:	ae0f0004 	sw	t7,4(s0)
    d044:	8dae0004 	lw	t6,4(t5)
    d048:	ae0e0008 	sw	t6,8(s0)
    d04c:	8daf0008 	lw	t7,8(t5)
    d050:	ae0f000c 	sw	t7,12(s0)
    d054:	8e380040 	lw	t8,64(s1)
    d058:	00001025 	move	v0,zero
    d05c:	ae180058 	sw	t8,88(s0)
    d060:	8fbf0034 	lw	ra,52(sp)
    d064:	8fb20030 	lw	s2,48(sp)
    d068:	8fb1002c 	lw	s1,44(sp)
    d06c:	8fb00028 	lw	s0,40(sp)
    d070:	03e00008 	jr	ra
    d074:	27bd0080 	addiu	sp,sp,128

0000d078 <func_8010C608>:
func_8010C608():
    d078:	27bdffc8 	addiu	sp,sp,-56
    d07c:	afbf0014 	sw	ra,20(sp)
    d080:	44809000 	mtc1	zero,$f18
    d084:	c484001c 	lwc1	$f4,28(a0)
    d088:	3c018013 	lui	at,0x8013
    d08c:	24830010 	addiu	v1,a0,16
    d090:	4612203c 	c.lt.s	$f4,$f18
    d094:	00000000 	nop
    d098:	45000007 	bc1f	d0b8 <func_8010C608+0x40>
    d09c:	00000000 	nop
    d0a0:	3c010000 	lui	at,0x0
    d0a4:	24830010 	addiu	v1,a0,16
    d0a8:	c466000c 	lwc1	$f6,12(v1)
    d0ac:	c4220000 	lwc1	$f2,0(at)
    d0b0:	10000004 	b	d0c4 <func_8010C608+0x4c>
    d0b4:	46023401 	sub.s	$f16,$f6,$f2
    d0b8:	c4220000 	lwc1	$f2,0(at)
    d0bc:	c468000c 	lwc1	$f8,12(v1)
    d0c0:	46024400 	add.s	$f16,$f8,$f2
    d0c4:	c4600010 	lwc1	$f0,16(v1)
    d0c8:	4612003c 	c.lt.s	$f0,$f18
    d0cc:	00000000 	nop
    d0d0:	45020004 	bc1fl	d0e4 <func_8010C608+0x6c>
    d0d4:	46020380 	add.s	$f14,$f0,$f2
    d0d8:	10000002 	b	d0e4 <func_8010C608+0x6c>
    d0dc:	46020381 	sub.s	$f14,$f0,$f2
    d0e0:	46020380 	add.s	$f14,$f0,$f2
    d0e4:	c48c0024 	lwc1	$f12,36(a0)
    d0e8:	e7b00024 	swc1	$f16,36(sp)
    d0ec:	e7ae0020 	swc1	$f14,32(sp)
    d0f0:	afa40038 	sw	a0,56(sp)
    d0f4:	0c000000 	jal	0 <func_800FF5E0_ovl2>
    d0f8:	afa3001c 	sw	v1,28(sp)
    d0fc:	8fa40038 	lw	a0,56(sp)
    d100:	c48c0024 	lwc1	$f12,36(a0)
    d104:	0c000000 	jal	0 <func_800FF5E0_ovl2>
    d108:	e7a0002c 	swc1	$f0,44(sp)
    d10c:	c7b00024 	lwc1	$f16,36(sp)
    d110:	c7a2002c 	lwc1	$f2,44(sp)
    d114:	c7ae0020 	lwc1	$f14,32(sp)
    d118:	46008282 	mul.s	$f10,$f16,$f0
    d11c:	3c020000 	lui	v0,0x0
    d120:	24420000 	addiu	v0,v0,0
    d124:	46028102 	mul.s	$f4,$f16,$f2
    d128:	8fa3001c 	lw	v1,28(sp)
    d12c:	3c018013 	lui	at,0x8013
    d130:	46007182 	mul.s	$f6,$f14,$f0
    d134:	e44a0004 	swc1	$f10,4(v0)
    d138:	44805000 	mtc1	zero,$f10
    d13c:	46027202 	mul.s	$f8,$f14,$f2
    d140:	e4440008 	swc1	$f4,8(v0)
    d144:	e446000c 	swc1	$f6,12(v0)
    d148:	e4480010 	swc1	$f8,16(v0)
    d14c:	c464000c 	lwc1	$f4,12(v1)
    d150:	4604503c 	c.lt.s	$f10,$f4
    d154:	00000000 	nop
    d158:	45020006 	bc1fl	d174 <func_8010C608+0xfc>
    d15c:	46000187 	neg.s	$f6,$f0
    d160:	3c010000 	lui	at,0x0
    d164:	e4200000 	swc1	$f0,0(at)
    d168:	10000005 	b	d180 <func_8010C608+0x108>
    d16c:	e4420018 	swc1	$f2,24(v0)
    d170:	46000187 	neg.s	$f6,$f0
    d174:	46001207 	neg.s	$f8,$f2
    d178:	e4260000 	swc1	$f6,0(at)
    d17c:	e4480018 	swc1	$f8,24(v0)
    d180:	c44a0014 	lwc1	$f10,20(v0)
    d184:	c4460018 	lwc1	$f6,24(v0)
    d188:	8fbf0014 	lw	ra,20(sp)
    d18c:	46005107 	neg.s	$f4,$f10
    d190:	46003207 	neg.s	$f8,$f6
    d194:	e444001c 	swc1	$f4,28(v0)
    d198:	e4480020 	swc1	$f8,32(v0)
    d19c:	03e00008 	jr	ra
    d1a0:	27bd0038 	addiu	sp,sp,56

0000d1a4 <func_8010C734>:
func_8010C734():
    d1a4:	27bdffa0 	addiu	sp,sp,-96
    d1a8:	afb00028 	sw	s0,40(sp)
    d1ac:	3c100000 	lui	s0,0x0
    d1b0:	afb1002c 	sw	s1,44(sp)
    d1b4:	00808825 	move	s1,a0
    d1b8:	26100000 	addiu	s0,s0,0
    d1bc:	afbf0034 	sw	ra,52(sp)
    d1c0:	afb20030 	sw	s2,48(sp)
    d1c4:	0c000000 	jal	0 <func_800FF5E0_ovl2>
    d1c8:	02002025 	move	a0,s0
    d1cc:	0c000000 	jal	0 <func_800FF5E0_ovl2>
    d1d0:	02202025 	move	a0,s1
    d1d4:	c6240004 	lwc1	$f4,4(s1)
    d1d8:	26320010 	addiu	s2,s1,16
    d1dc:	3c020000 	lui	v0,0x0
    d1e0:	e7a4004c 	swc1	$f4,76(sp)
    d1e4:	c6480000 	lwc1	$f8,0(s2)
    d1e8:	c6260008 	lwc1	$f6,8(s1)
    d1ec:	24420000 	addiu	v0,v0,0
    d1f0:	c4440004 	lwc1	$f4,4(v0)
    d1f4:	46083280 	add.s	$f10,$f6,$f8
    d1f8:	c7b2004c 	lwc1	$f18,76(sp)
    d1fc:	3c0e0000 	lui	t6,0x0
    d200:	3c0f0000 	lui	t7,0x0
    d204:	e7aa0050 	swc1	$f10,80(sp)
    d208:	c630000c 	lwc1	$f16,12(s1)
    d20c:	46049180 	add.s	$f6,$f18,$f4
    d210:	c7a80050 	lwc1	$f8,80(sp)
    d214:	e7b00054 	swc1	$f16,84(sp)
    d218:	c7aa0054 	lwc1	$f10,84(sp)
    d21c:	c4500008 	lwc1	$f16,8(v0)
    d220:	3c180000 	lui	t8,0x0
    d224:	27180000 	addiu	t8,t8,0
    d228:	46105480 	add.s	$f18,$f10,$f16
    d22c:	25ef0000 	addiu	t7,t7,0
    d230:	25ce0000 	addiu	t6,t6,0
    d234:	e7a60040 	swc1	$f6,64(sp)
    d238:	e7b20048 	swc1	$f18,72(sp)
    d23c:	afae0010 	sw	t6,16(sp)
    d240:	afaf0014 	sw	t7,20(sp)
    d244:	afb80018 	sw	t8,24(sp)
    d248:	27a4004c 	addiu	a0,sp,76
    d24c:	27a50040 	addiu	a1,sp,64
    d250:	00003025 	move	a2,zero
    d254:	00003825 	move	a3,zero
    d258:	0c000000 	jal	0 <func_800FF5E0_ovl2>
    d25c:	e7a80044 	swc1	$f8,68(sp)
    d260:	10400009 	beqz	v0,d288 <func_8010C734+0xe4>
    d264:	27a4004c 	addiu	a0,sp,76
    d268:	8e190000 	lw	t9,0(s0)
    d26c:	960c0000 	lhu	t4,0(s0)
    d270:	001944c2 	srl	t0,t9,0x13
    d274:	35090001 	ori	t1,t0,0x1
    d278:	000958c0 	sll	t3,t1,0x3
    d27c:	318d0007 	andi	t5,t4,0x7
    d280:	016d7025 	or	t6,t3,t5
    d284:	a60e0000 	sh	t6,0(s0)
    d288:	c6240008 	lwc1	$f4,8(s1)
    d28c:	c6460008 	lwc1	$f6,8(s2)
    d290:	3c0f0000 	lui	t7,0x0
    d294:	3c180000 	lui	t8,0x0
    d298:	46062200 	add.s	$f8,$f4,$f6
    d29c:	3c190000 	lui	t9,0x0
    d2a0:	27390000 	addiu	t9,t9,0
    d2a4:	27180000 	addiu	t8,t8,0
    d2a8:	e7a80050 	swc1	$f8,80(sp)
    d2ac:	c7aa0050 	lwc1	$f10,80(sp)
    d2b0:	25ef0000 	addiu	t7,t7,0
    d2b4:	afaf0010 	sw	t7,16(sp)
    d2b8:	afb80014 	sw	t8,20(sp)
    d2bc:	afb90018 	sw	t9,24(sp)
    d2c0:	27a50040 	addiu	a1,sp,64
    d2c4:	00003025 	move	a2,zero
    d2c8:	00003825 	move	a3,zero
    d2cc:	0c000000 	jal	0 <func_800FF5E0_ovl2>
    d2d0:	e7aa0044 	swc1	$f10,68(sp)
    d2d4:	10400009 	beqz	v0,d2fc <func_8010C734+0x158>
    d2d8:	27a4004c 	addiu	a0,sp,76
    d2dc:	8e080000 	lw	t0,0(s0)
    d2e0:	960d0000 	lhu	t5,0(s0)
    d2e4:	00084cc2 	srl	t1,t0,0x13
    d2e8:	352a0004 	ori	t2,t1,0x4
    d2ec:	000a58c0 	sll	t3,t2,0x3
    d2f0:	31ae0007 	andi	t6,t5,0x7
    d2f4:	016e7825 	or	t7,t3,t6
    d2f8:	a60f0000 	sh	t7,0(s0)
    d2fc:	c6300008 	lwc1	$f16,8(s1)
    d300:	c6520004 	lwc1	$f18,4(s2)
    d304:	3c180000 	lui	t8,0x0
    d308:	3c190000 	lui	t9,0x0
    d30c:	46128100 	add.s	$f4,$f16,$f18
    d310:	3c080000 	lui	t0,0x0
    d314:	25080000 	addiu	t0,t0,0
    d318:	27390000 	addiu	t9,t9,0
    d31c:	e7a40050 	swc1	$f4,80(sp)
    d320:	c7a60050 	lwc1	$f6,80(sp)
    d324:	27180000 	addiu	t8,t8,0
    d328:	afb80010 	sw	t8,16(sp)
    d32c:	afb90014 	sw	t9,20(sp)
    d330:	afa80018 	sw	t0,24(sp)
    d334:	27a50040 	addiu	a1,sp,64
    d338:	00003025 	move	a2,zero
    d33c:	00003825 	move	a3,zero
    d340:	0c000000 	jal	0 <func_800FF5E0_ovl2>
    d344:	e7a60044 	swc1	$f6,68(sp)
    d348:	10400009 	beqz	v0,d370 <func_8010C734+0x1cc>
    d34c:	27a4004c 	addiu	a0,sp,76
    d350:	8e090000 	lw	t1,0(s0)
    d354:	960e0000 	lhu	t6,0(s0)
    d358:	000954c2 	srl	t2,t1,0x13
    d35c:	354c0002 	ori	t4,t2,0x2
    d360:	000c58c0 	sll	t3,t4,0x3
    d364:	31cf0007 	andi	t7,t6,0x7
    d368:	016fc025 	or	t8,t3,t7
    d36c:	a6180000 	sh	t8,0(s0)
    d370:	c6280008 	lwc1	$f8,8(s1)
    d374:	c64a0000 	lwc1	$f10,0(s2)
    d378:	3c020000 	lui	v0,0x0
    d37c:	24420000 	addiu	v0,v0,0
    d380:	460a4400 	add.s	$f16,$f8,$f10
    d384:	c444000c 	lwc1	$f4,12(v0)
    d388:	3c190000 	lui	t9,0x0
    d38c:	3c080000 	lui	t0,0x0
    d390:	e7b00050 	swc1	$f16,80(sp)
    d394:	c6320004 	lwc1	$f18,4(s1)
    d398:	c7a80050 	lwc1	$f8,80(sp)
    d39c:	c4500010 	lwc1	$f16,16(v0)
    d3a0:	46049180 	add.s	$f6,$f18,$f4
    d3a4:	e7a80044 	swc1	$f8,68(sp)
    d3a8:	3c090000 	lui	t1,0x0
    d3ac:	25290000 	addiu	t1,t1,0
    d3b0:	e7a60040 	swc1	$f6,64(sp)
    d3b4:	c62a000c 	lwc1	$f10,12(s1)
    d3b8:	25080000 	addiu	t0,t0,0
    d3bc:	27390000 	addiu	t9,t9,0
    d3c0:	46105480 	add.s	$f18,$f10,$f16
    d3c4:	afb90010 	sw	t9,16(sp)
    d3c8:	afa80014 	sw	t0,20(sp)
    d3cc:	afa90018 	sw	t1,24(sp)
    d3d0:	e7b20048 	swc1	$f18,72(sp)
    d3d4:	27a50040 	addiu	a1,sp,64
    d3d8:	00003025 	move	a2,zero
    d3dc:	0c000000 	jal	0 <func_800FF5E0_ovl2>
    d3e0:	00003825 	move	a3,zero
    d3e4:	10400009 	beqz	v0,d40c <func_8010C734+0x268>
    d3e8:	27a4004c 	addiu	a0,sp,76
    d3ec:	8e0a0000 	lw	t2,0(s0)
    d3f0:	960f0000 	lhu	t7,0(s0)
    d3f4:	000a64c2 	srl	t4,t2,0x13
    d3f8:	358d0008 	ori	t5,t4,0x8
    d3fc:	000d58c0 	sll	t3,t5,0x3
    d400:	31f80007 	andi	t8,t7,0x7
    d404:	0178c825 	or	t9,t3,t8
    d408:	a6190000 	sh	t9,0(s0)
    d40c:	c6240008 	lwc1	$f4,8(s1)
    d410:	c6460008 	lwc1	$f6,8(s2)
    d414:	3c080000 	lui	t0,0x0
    d418:	3c090000 	lui	t1,0x0
    d41c:	46062200 	add.s	$f8,$f4,$f6
    d420:	3c0a0000 	lui	t2,0x0
    d424:	254a0000 	addiu	t2,t2,0
    d428:	25290000 	addiu	t1,t1,0
    d42c:	e7a80050 	swc1	$f8,80(sp)
    d430:	c7aa0050 	lwc1	$f10,80(sp)
    d434:	25080000 	addiu	t0,t0,0
    d438:	afa80010 	sw	t0,16(sp)
    d43c:	afa90014 	sw	t1,20(sp)
    d440:	afaa0018 	sw	t2,24(sp)
    d444:	27a50040 	addiu	a1,sp,64
    d448:	00003025 	move	a2,zero
    d44c:	00003825 	move	a3,zero
    d450:	0c000000 	jal	0 <func_800FF5E0_ovl2>
    d454:	e7aa0044 	swc1	$f10,68(sp)
    d458:	10400009 	beqz	v0,d480 <func_8010C734+0x2dc>
    d45c:	27a4004c 	addiu	a0,sp,76
    d460:	8e0c0000 	lw	t4,0(s0)
    d464:	96180000 	lhu	t8,0(s0)
    d468:	000c6cc2 	srl	t5,t4,0x13
    d46c:	35ae0020 	ori	t6,t5,0x20
    d470:	000e58c0 	sll	t3,t6,0x3
    d474:	33190007 	andi	t9,t8,0x7
    d478:	01794025 	or	t0,t3,t9
    d47c:	a6080000 	sh	t0,0(s0)
    d480:	c6300008 	lwc1	$f16,8(s1)
    d484:	c6520004 	lwc1	$f18,4(s2)
    d488:	3c090000 	lui	t1,0x0
    d48c:	3c0a0000 	lui	t2,0x0
    d490:	46128100 	add.s	$f4,$f16,$f18
    d494:	3c0c0000 	lui	t4,0x0
    d498:	258c0000 	addiu	t4,t4,0
    d49c:	254a0000 	addiu	t2,t2,0
    d4a0:	e7a40050 	swc1	$f4,80(sp)
    d4a4:	c7a60050 	lwc1	$f6,80(sp)
    d4a8:	25290000 	addiu	t1,t1,0
    d4ac:	afa90010 	sw	t1,16(sp)
    d4b0:	afaa0014 	sw	t2,20(sp)
    d4b4:	afac0018 	sw	t4,24(sp)
    d4b8:	27a50040 	addiu	a1,sp,64
    d4bc:	00003025 	move	a2,zero
    d4c0:	00003825 	move	a3,zero
    d4c4:	0c000000 	jal	0 <func_800FF5E0_ovl2>
    d4c8:	e7a60044 	swc1	$f6,68(sp)
    d4cc:	1040000a 	beqz	v0,d4f8 <func_8010C734+0x354>
    d4d0:	3c0a0000 	lui	t2,0x0
    d4d4:	3c0d0000 	lui	t5,0x0
    d4d8:	8dad0000 	lw	t5,0(t5)
    d4dc:	96190000 	lhu	t9,0(s0)
    d4e0:	000d74c2 	srl	t6,t5,0x13
    d4e4:	35cf0010 	ori	t7,t6,0x10
    d4e8:	000f58c0 	sll	t3,t7,0x3
    d4ec:	33280007 	andi	t0,t9,0x7
    d4f0:	01684825 	or	t1,t3,t0
    d4f4:	a6090000 	sh	t1,0(s0)
    d4f8:	8d4a0000 	lw	t2,0(t2)
    d4fc:	8fb00028 	lw	s0,40(sp)
    d500:	8fbf0034 	lw	ra,52(sp)
    d504:	000a64c2 	srl	t4,t2,0x13
    d508:	318d003f 	andi	t5,t4,0x3f
    d50c:	11a00003 	beqz	t5,d51c <func_8010C734+0x378>
    d510:	00001025 	move	v0,zero
    d514:	10000001 	b	d51c <func_8010C734+0x378>
    d518:	24020001 	li	v0,1
    d51c:	8fb1002c 	lw	s1,44(sp)
    d520:	8fb20030 	lw	s2,48(sp)
    d524:	03e00008 	jr	ra
    d528:	27bd0060 	addiu	sp,sp,96

0000d52c <func_8010CABC>:
func_8010CABC():
    d52c:	27bdffa0 	addiu	sp,sp,-96
    d530:	afb00028 	sw	s0,40(sp)
    d534:	3c100000 	lui	s0,0x0
    d538:	afb1002c 	sw	s1,44(sp)
    d53c:	00808825 	move	s1,a0
    d540:	26100000 	addiu	s0,s0,0
    d544:	afbf0034 	sw	ra,52(sp)
    d548:	afb20030 	sw	s2,48(sp)
    d54c:	0c000000 	jal	0 <func_800FF5E0_ovl2>
    d550:	02002025 	move	a0,s0
    d554:	0c000000 	jal	0 <func_800FF5E0_ovl2>
    d558:	02202025 	move	a0,s1
    d55c:	c6240004 	lwc1	$f4,4(s1)
    d560:	26320010 	addiu	s2,s1,16
    d564:	3c020000 	lui	v0,0x0
    d568:	e7a4004c 	swc1	$f4,76(sp)
    d56c:	c6480000 	lwc1	$f8,0(s2)
    d570:	c6260008 	lwc1	$f6,8(s1)
    d574:	24420000 	addiu	v0,v0,0
    d578:	c4440004 	lwc1	$f4,4(v0)
    d57c:	46083280 	add.s	$f10,$f6,$f8
    d580:	c7b2004c 	lwc1	$f18,76(sp)
    d584:	3c0e0000 	lui	t6,0x0
    d588:	3c0f0000 	lui	t7,0x0
    d58c:	e7aa0050 	swc1	$f10,80(sp)
    d590:	c630000c 	lwc1	$f16,12(s1)
    d594:	46049180 	add.s	$f6,$f18,$f4
    d598:	c7a80050 	lwc1	$f8,80(sp)
    d59c:	e7b00054 	swc1	$f16,84(sp)
    d5a0:	c7aa0054 	lwc1	$f10,84(sp)
    d5a4:	c4500008 	lwc1	$f16,8(v0)
    d5a8:	3c180000 	lui	t8,0x0
    d5ac:	27180000 	addiu	t8,t8,0
    d5b0:	46105480 	add.s	$f18,$f10,$f16
    d5b4:	25ef0000 	addiu	t7,t7,0
    d5b8:	25ce0000 	addiu	t6,t6,0
    d5bc:	e7a60040 	swc1	$f6,64(sp)
    d5c0:	e7b20048 	swc1	$f18,72(sp)
    d5c4:	afae0010 	sw	t6,16(sp)
    d5c8:	afaf0014 	sw	t7,20(sp)
    d5cc:	afb80018 	sw	t8,24(sp)
    d5d0:	27a4004c 	addiu	a0,sp,76
    d5d4:	27a50040 	addiu	a1,sp,64
    d5d8:	00003025 	move	a2,zero
    d5dc:	00003825 	move	a3,zero
    d5e0:	0c000000 	jal	0 <func_800FF5E0_ovl2>
    d5e4:	e7a80044 	swc1	$f8,68(sp)
    d5e8:	10400009 	beqz	v0,d610 <func_8010CABC+0xe4>
    d5ec:	27a4004c 	addiu	a0,sp,76
    d5f0:	8e190000 	lw	t9,0(s0)
    d5f4:	960c0000 	lhu	t4,0(s0)
    d5f8:	001944c2 	srl	t0,t9,0x13
    d5fc:	35090001 	ori	t1,t0,0x1
    d600:	000958c0 	sll	t3,t1,0x3
    d604:	318d0007 	andi	t5,t4,0x7
    d608:	016d7025 	or	t6,t3,t5
    d60c:	a60e0000 	sh	t6,0(s0)
    d610:	c6240008 	lwc1	$f4,8(s1)
    d614:	c6460008 	lwc1	$f6,8(s2)
    d618:	3c0f0000 	lui	t7,0x0
    d61c:	3c180000 	lui	t8,0x0
    d620:	46062200 	add.s	$f8,$f4,$f6
    d624:	3c190000 	lui	t9,0x0
    d628:	27390000 	addiu	t9,t9,0
    d62c:	27180000 	addiu	t8,t8,0
    d630:	e7a80050 	swc1	$f8,80(sp)
    d634:	c7aa0050 	lwc1	$f10,80(sp)
    d638:	25ef0000 	addiu	t7,t7,0
    d63c:	afaf0010 	sw	t7,16(sp)
    d640:	afb80014 	sw	t8,20(sp)
    d644:	afb90018 	sw	t9,24(sp)
    d648:	27a50040 	addiu	a1,sp,64
    d64c:	00003025 	move	a2,zero
    d650:	00003825 	move	a3,zero
    d654:	0c000000 	jal	0 <func_800FF5E0_ovl2>
    d658:	e7aa0044 	swc1	$f10,68(sp)
    d65c:	10400009 	beqz	v0,d684 <func_8010CABC+0x158>
    d660:	27a4004c 	addiu	a0,sp,76
    d664:	8e080000 	lw	t0,0(s0)
    d668:	960d0000 	lhu	t5,0(s0)
    d66c:	00084cc2 	srl	t1,t0,0x13
    d670:	352a0004 	ori	t2,t1,0x4
    d674:	000a58c0 	sll	t3,t2,0x3
    d678:	31ae0007 	andi	t6,t5,0x7
    d67c:	016e7825 	or	t7,t3,t6
    d680:	a60f0000 	sh	t7,0(s0)
    d684:	c6300008 	lwc1	$f16,8(s1)
    d688:	c6520004 	lwc1	$f18,4(s2)
    d68c:	3c180000 	lui	t8,0x0
    d690:	3c190000 	lui	t9,0x0
    d694:	46128100 	add.s	$f4,$f16,$f18
    d698:	3c080000 	lui	t0,0x0
    d69c:	25080000 	addiu	t0,t0,0
    d6a0:	27390000 	addiu	t9,t9,0
    d6a4:	e7a40050 	swc1	$f4,80(sp)
    d6a8:	c7a60050 	lwc1	$f6,80(sp)
    d6ac:	27180000 	addiu	t8,t8,0
    d6b0:	afb80010 	sw	t8,16(sp)
    d6b4:	afb90014 	sw	t9,20(sp)
    d6b8:	afa80018 	sw	t0,24(sp)
    d6bc:	27a50040 	addiu	a1,sp,64
    d6c0:	00003025 	move	a2,zero
    d6c4:	00003825 	move	a3,zero
    d6c8:	0c000000 	jal	0 <func_800FF5E0_ovl2>
    d6cc:	e7a60044 	swc1	$f6,68(sp)
    d6d0:	10400009 	beqz	v0,d6f8 <func_8010CABC+0x1cc>
    d6d4:	27a4004c 	addiu	a0,sp,76
    d6d8:	8e090000 	lw	t1,0(s0)
    d6dc:	960e0000 	lhu	t6,0(s0)
    d6e0:	000954c2 	srl	t2,t1,0x13
    d6e4:	354c0002 	ori	t4,t2,0x2
    d6e8:	000c58c0 	sll	t3,t4,0x3
    d6ec:	31cf0007 	andi	t7,t6,0x7
    d6f0:	016fc025 	or	t8,t3,t7
    d6f4:	a6180000 	sh	t8,0(s0)
    d6f8:	c6280008 	lwc1	$f8,8(s1)
    d6fc:	c64a0000 	lwc1	$f10,0(s2)
    d700:	3c020000 	lui	v0,0x0
    d704:	24420000 	addiu	v0,v0,0
    d708:	460a4400 	add.s	$f16,$f8,$f10
    d70c:	c444000c 	lwc1	$f4,12(v0)
    d710:	3c190000 	lui	t9,0x0
    d714:	3c080000 	lui	t0,0x0
    d718:	e7b00050 	swc1	$f16,80(sp)
    d71c:	c6320004 	lwc1	$f18,4(s1)
    d720:	c7a80050 	lwc1	$f8,80(sp)
    d724:	c4500010 	lwc1	$f16,16(v0)
    d728:	46049180 	add.s	$f6,$f18,$f4
    d72c:	e7a80044 	swc1	$f8,68(sp)
    d730:	3c090000 	lui	t1,0x0
    d734:	25290000 	addiu	t1,t1,0
    d738:	e7a60040 	swc1	$f6,64(sp)
    d73c:	c62a000c 	lwc1	$f10,12(s1)
    d740:	25080000 	addiu	t0,t0,0
    d744:	27390000 	addiu	t9,t9,0
    d748:	46105480 	add.s	$f18,$f10,$f16
    d74c:	afb90010 	sw	t9,16(sp)
    d750:	afa80014 	sw	t0,20(sp)
    d754:	afa90018 	sw	t1,24(sp)
    d758:	e7b20048 	swc1	$f18,72(sp)
    d75c:	27a50040 	addiu	a1,sp,64
    d760:	00003025 	move	a2,zero
    d764:	0c000000 	jal	0 <func_800FF5E0_ovl2>
    d768:	00003825 	move	a3,zero
    d76c:	10400009 	beqz	v0,d794 <func_8010CABC+0x268>
    d770:	27a4004c 	addiu	a0,sp,76
    d774:	8e0a0000 	lw	t2,0(s0)
    d778:	960f0000 	lhu	t7,0(s0)
    d77c:	000a64c2 	srl	t4,t2,0x13
    d780:	358d0008 	ori	t5,t4,0x8
    d784:	000d58c0 	sll	t3,t5,0x3
    d788:	31f80007 	andi	t8,t7,0x7
    d78c:	0178c825 	or	t9,t3,t8
    d790:	a6190000 	sh	t9,0(s0)
    d794:	c6240008 	lwc1	$f4,8(s1)
    d798:	c6460008 	lwc1	$f6,8(s2)
    d79c:	3c080000 	lui	t0,0x0
    d7a0:	3c090000 	lui	t1,0x0
    d7a4:	46062200 	add.s	$f8,$f4,$f6
    d7a8:	3c0a0000 	lui	t2,0x0
    d7ac:	254a0000 	addiu	t2,t2,0
    d7b0:	25290000 	addiu	t1,t1,0
    d7b4:	e7a80050 	swc1	$f8,80(sp)
    d7b8:	c7aa0050 	lwc1	$f10,80(sp)
    d7bc:	25080000 	addiu	t0,t0,0
    d7c0:	afa80010 	sw	t0,16(sp)
    d7c4:	afa90014 	sw	t1,20(sp)
    d7c8:	afaa0018 	sw	t2,24(sp)
    d7cc:	27a50040 	addiu	a1,sp,64
    d7d0:	00003025 	move	a2,zero
    d7d4:	00003825 	move	a3,zero
    d7d8:	0c000000 	jal	0 <func_800FF5E0_ovl2>
    d7dc:	e7aa0044 	swc1	$f10,68(sp)
    d7e0:	10400009 	beqz	v0,d808 <func_8010CABC+0x2dc>
    d7e4:	27a4004c 	addiu	a0,sp,76
    d7e8:	8e0c0000 	lw	t4,0(s0)
    d7ec:	96180000 	lhu	t8,0(s0)
    d7f0:	000c6cc2 	srl	t5,t4,0x13
    d7f4:	35ae0020 	ori	t6,t5,0x20
    d7f8:	000e58c0 	sll	t3,t6,0x3
    d7fc:	33190007 	andi	t9,t8,0x7
    d800:	01794025 	or	t0,t3,t9
    d804:	a6080000 	sh	t0,0(s0)
    d808:	c6300008 	lwc1	$f16,8(s1)
    d80c:	c6520004 	lwc1	$f18,4(s2)
    d810:	3c090000 	lui	t1,0x0
    d814:	3c0a0000 	lui	t2,0x0
    d818:	46128100 	add.s	$f4,$f16,$f18
    d81c:	3c0c0000 	lui	t4,0x0
    d820:	258c0000 	addiu	t4,t4,0
    d824:	254a0000 	addiu	t2,t2,0
    d828:	e7a40050 	swc1	$f4,80(sp)
    d82c:	c7a60050 	lwc1	$f6,80(sp)
    d830:	25290000 	addiu	t1,t1,0
    d834:	afa90010 	sw	t1,16(sp)
    d838:	afaa0014 	sw	t2,20(sp)
    d83c:	afac0018 	sw	t4,24(sp)
    d840:	27a50040 	addiu	a1,sp,64
    d844:	00003025 	move	a2,zero
    d848:	00003825 	move	a3,zero
    d84c:	0c000000 	jal	0 <func_800FF5E0_ovl2>
    d850:	e7a60044 	swc1	$f6,68(sp)
    d854:	1040000a 	beqz	v0,d880 <func_8010CABC+0x354>
    d858:	3c0a0000 	lui	t2,0x0
    d85c:	3c0d0000 	lui	t5,0x0
    d860:	8dad0000 	lw	t5,0(t5)
    d864:	96190000 	lhu	t9,0(s0)
    d868:	000d74c2 	srl	t6,t5,0x13
    d86c:	35cf0010 	ori	t7,t6,0x10
    d870:	000f58c0 	sll	t3,t7,0x3
    d874:	33280007 	andi	t0,t9,0x7
    d878:	01684825 	or	t1,t3,t0
    d87c:	a6090000 	sh	t1,0(s0)
    d880:	8d4a0000 	lw	t2,0(t2)
    d884:	8fb00028 	lw	s0,40(sp)
    d888:	8fbf0034 	lw	ra,52(sp)
    d88c:	000a64c2 	srl	t4,t2,0x13
    d890:	318d003f 	andi	t5,t4,0x3f
    d894:	11a00003 	beqz	t5,d8a4 <func_8010CABC+0x378>
    d898:	00001025 	move	v0,zero
    d89c:	10000001 	b	d8a4 <func_8010CABC+0x378>
    d8a0:	24020001 	li	v0,1
    d8a4:	8fb1002c 	lw	s1,44(sp)
    d8a8:	8fb20030 	lw	s2,48(sp)
    d8ac:	03e00008 	jr	ra
    d8b0:	27bd0060 	addiu	sp,sp,96

0000d8b4 <func_8010CE44>:
func_8010CE44():
    d8b4:	27bdff90 	addiu	sp,sp,-112
    d8b8:	afbf002c 	sw	ra,44(sp)
    d8bc:	afb00028 	sw	s0,40(sp)
    d8c0:	00808025 	move	s0,a0
    d8c4:	0c000000 	jal	0 <func_800FF5E0_ovl2>
    d8c8:	afa50074 	sw	a1,116(sp)
    d8cc:	3c080000 	lui	t0,0x0
    d8d0:	25080000 	addiu	t0,t0,0
    d8d4:	c5060004 	lwc1	$f6,4(t0)
    d8d8:	c6040004 	lwc1	$f4,4(s0)
    d8dc:	c7ac0074 	lwc1	$f12,116(sp)
    d8e0:	c5000014 	lwc1	$f0,20(t0)
    d8e4:	46062200 	add.s	$f8,$f4,$f6
    d8e8:	c5060008 	lwc1	$f6,8(t0)
    d8ec:	c5020018 	lwc1	$f2,24(t0)
    d8f0:	27ae0064 	addiu	t6,sp,100
    d8f4:	e7a80058 	swc1	$f8,88(sp)
    d8f8:	c6100010 	lwc1	$f16,16(s0)
    d8fc:	c60a0008 	lwc1	$f10,8(s0)
    d900:	27a40058 	addiu	a0,sp,88
    d904:	27a5004c 	addiu	a1,sp,76
    d908:	46105480 	add.s	$f18,$f10,$f16
    d90c:	460c0282 	mul.s	$f10,$f0,$f12
    d910:	c7b00058 	lwc1	$f16,88(sp)
    d914:	27a60040 	addiu	a2,sp,64
    d918:	e7b2005c 	swc1	$f18,92(sp)
    d91c:	c604000c 	lwc1	$f4,12(s0)
    d920:	afa0001c 	sw	zero,28(sp)
    d924:	afa00018 	sw	zero,24(sp)
    d928:	46062200 	add.s	$f8,$f4,$f6
    d92c:	460c1182 	mul.s	$f6,$f2,$f12
    d930:	c7a4005c 	lwc1	$f4,92(sp)
    d934:	46105480 	add.s	$f18,$f10,$f16
    d938:	e7a80060 	swc1	$f8,96(sp)
    d93c:	c7a80060 	lwc1	$f8,96(sp)
    d940:	44808000 	mtc1	zero,$f16
    d944:	e7b2004c 	swc1	$f18,76(sp)
    d948:	46083280 	add.s	$f10,$f6,$f8
    d94c:	afa00014 	sw	zero,20(sp)
    d950:	afae0010 	sw	t6,16(sp)
    d954:	00003825 	move	a3,zero
    d958:	e7aa0054 	swc1	$f10,84(sp)
    d95c:	e7a00040 	swc1	$f0,64(sp)
    d960:	e7a20048 	swc1	$f2,72(sp)
    d964:	e7a40050 	swc1	$f4,80(sp)
    d968:	0c000000 	jal	0 <func_800FF5E0_ovl2>
    d96c:	e7b00044 	swc1	$f16,68(sp)
    d970:	3c080000 	lui	t0,0x0
    d974:	1040000b 	beqz	v0,d9a4 <func_8010CE44+0xf0>
    d978:	25080000 	addiu	t0,t0,0
    d97c:	c7b20064 	lwc1	$f18,100(sp)
    d980:	c5040024 	lwc1	$f4,36(t0)
    d984:	24020001 	li	v0,1
    d988:	46049181 	sub.s	$f6,$f18,$f4
    d98c:	e6060004 	swc1	$f6,4(s0)
    d990:	c50a0028 	lwc1	$f10,40(t0)
    d994:	c7a8006c 	lwc1	$f8,108(sp)
    d998:	460a4401 	sub.s	$f16,$f8,$f10
    d99c:	1000007d 	b	db94 <func_8010CE44+0x2e0>
    d9a0:	e610000c 	swc1	$f16,12(s0)
    d9a4:	c6120008 	lwc1	$f18,8(s0)
    d9a8:	c6040014 	lwc1	$f4,20(s0)
    d9ac:	27af003c 	addiu	t7,sp,60
    d9b0:	afaf0014 	sw	t7,20(sp)
    d9b4:	46049180 	add.s	$f6,$f18,$f4
    d9b8:	afa00038 	sw	zero,56(sp)
    d9bc:	afa0001c 	sw	zero,28(sp)
    d9c0:	afa00018 	sw	zero,24(sp)
    d9c4:	e7a6005c 	swc1	$f6,92(sp)
    d9c8:	c7a8005c 	lwc1	$f8,92(sp)
    d9cc:	afa00010 	sw	zero,16(sp)
    d9d0:	27a40058 	addiu	a0,sp,88
    d9d4:	27a5004c 	addiu	a1,sp,76
    d9d8:	27a60040 	addiu	a2,sp,64
    d9dc:	00003825 	move	a3,zero
    d9e0:	0c000000 	jal	0 <func_800FF5E0_ovl2>
    d9e4:	e7a80050 	swc1	$f8,80(sp)
    d9e8:	10400003 	beqz	v0,d9f8 <func_8010CE44+0x144>
    d9ec:	8fa30038 	lw	v1,56(sp)
    d9f0:	10000015 	b	da48 <func_8010CE44+0x194>
    d9f4:	24030001 	li	v1,1
    d9f8:	c60a0008 	lwc1	$f10,8(s0)
    d9fc:	c6100018 	lwc1	$f16,24(s0)
    da00:	27b8003c 	addiu	t8,sp,60
    da04:	afb80014 	sw	t8,20(sp)
    da08:	46105480 	add.s	$f18,$f10,$f16
    da0c:	afa30038 	sw	v1,56(sp)
    da10:	afa0001c 	sw	zero,28(sp)
    da14:	afa00018 	sw	zero,24(sp)
    da18:	e7b2005c 	swc1	$f18,92(sp)
    da1c:	c7a4005c 	lwc1	$f4,92(sp)
    da20:	afa00010 	sw	zero,16(sp)
    da24:	27a40058 	addiu	a0,sp,88
    da28:	27a5004c 	addiu	a1,sp,76
    da2c:	27a60040 	addiu	a2,sp,64
    da30:	00003825 	move	a3,zero
    da34:	0c000000 	jal	0 <func_800FF5E0_ovl2>
    da38:	e7a40050 	swc1	$f4,80(sp)
    da3c:	10400002 	beqz	v0,da48 <func_8010CE44+0x194>
    da40:	8fa30038 	lw	v1,56(sp)
    da44:	24030001 	li	v1,1
    da48:	50600052 	beqzl	v1,db94 <func_8010CE44+0x2e0>
    da4c:	00001025 	move	v0,zero
    da50:	c6060008 	lwc1	$f6,8(s0)
    da54:	c6080010 	lwc1	$f8,16(s0)
    da58:	8fa4003c 	lw	a0,60(sp)
    da5c:	27a50058 	addiu	a1,sp,88
    da60:	46083280 	add.s	$f10,$f6,$f8
    da64:	27a6004c 	addiu	a2,sp,76
    da68:	27a70064 	addiu	a3,sp,100
    da6c:	e7aa005c 	swc1	$f10,92(sp)
    da70:	c7b0005c 	lwc1	$f16,92(sp)
    da74:	0c000000 	jal	0 <func_800FF5E0_ovl2>
    da78:	e7b00050 	swc1	$f16,80(sp)
    da7c:	3c080000 	lui	t0,0x0
    da80:	10400043 	beqz	v0,db90 <func_8010CE44+0x2dc>
    da84:	25080000 	addiu	t0,t0,0
    da88:	c7a00058 	lwc1	$f0,88(sp)
    da8c:	c7a2004c 	lwc1	$f2,76(sp)
    da90:	c7ac0064 	lwc1	$f12,100(sp)
    da94:	4600103c 	c.lt.s	$f2,$f0
    da98:	00000000 	nop
    da9c:	4502000d 	bc1fl	dad4 <func_8010CE44+0x220>
    daa0:	4600603c 	c.lt.s	$f12,$f0
    daa4:	c7ac0064 	lwc1	$f12,100(sp)
    daa8:	460c003c 	c.lt.s	$f0,$f12
    daac:	00000000 	nop
    dab0:	45010005 	bc1t	dac8 <func_8010CE44+0x214>
    dab4:	00000000 	nop
    dab8:	4602603c 	c.lt.s	$f12,$f2
    dabc:	00000000 	nop
    dac0:	4502000e 	bc1fl	dafc <func_8010CE44+0x248>
    dac4:	c7a00060 	lwc1	$f0,96(sp)
    dac8:	10000032 	b	db94 <func_8010CE44+0x2e0>
    dacc:	00001025 	move	v0,zero
    dad0:	4600603c 	c.lt.s	$f12,$f0
    dad4:	00000000 	nop
    dad8:	45010005 	bc1t	daf0 <func_8010CE44+0x23c>
    dadc:	00000000 	nop
    dae0:	460c103c 	c.lt.s	$f2,$f12
    dae4:	00000000 	nop
    dae8:	45020004 	bc1fl	dafc <func_8010CE44+0x248>
    daec:	c7a00060 	lwc1	$f0,96(sp)
    daf0:	10000028 	b	db94 <func_8010CE44+0x2e0>
    daf4:	00001025 	move	v0,zero
    daf8:	c7a00060 	lwc1	$f0,96(sp)
    dafc:	c7a20054 	lwc1	$f2,84(sp)
    db00:	c7ac006c 	lwc1	$f12,108(sp)
    db04:	4600103c 	c.lt.s	$f2,$f0
    db08:	00000000 	nop
    db0c:	4502000d 	bc1fl	db44 <func_8010CE44+0x290>
    db10:	4600603c 	c.lt.s	$f12,$f0
    db14:	c7ac006c 	lwc1	$f12,108(sp)
    db18:	460c003c 	c.lt.s	$f0,$f12
    db1c:	00000000 	nop
    db20:	45010005 	bc1t	db38 <func_8010CE44+0x284>
    db24:	00000000 	nop
    db28:	4602603c 	c.lt.s	$f12,$f2
    db2c:	00000000 	nop
    db30:	4502000e 	bc1fl	db6c <func_8010CE44+0x2b8>
    db34:	c7b20064 	lwc1	$f18,100(sp)
    db38:	10000016 	b	db94 <func_8010CE44+0x2e0>
    db3c:	00001025 	move	v0,zero
    db40:	4600603c 	c.lt.s	$f12,$f0
    db44:	00000000 	nop
    db48:	45010005 	bc1t	db60 <func_8010CE44+0x2ac>
    db4c:	00000000 	nop
    db50:	460c103c 	c.lt.s	$f2,$f12
    db54:	00000000 	nop
    db58:	45020004 	bc1fl	db6c <func_8010CE44+0x2b8>
    db5c:	c7b20064 	lwc1	$f18,100(sp)
    db60:	1000000c 	b	db94 <func_8010CE44+0x2e0>
    db64:	00001025 	move	v0,zero
    db68:	c7b20064 	lwc1	$f18,100(sp)
    db6c:	c5040024 	lwc1	$f4,36(t0)
    db70:	24020001 	li	v0,1
    db74:	46049181 	sub.s	$f6,$f18,$f4
    db78:	e6060004 	swc1	$f6,4(s0)
    db7c:	c50a0028 	lwc1	$f10,40(t0)
    db80:	c7a8006c 	lwc1	$f8,108(sp)
    db84:	460a4401 	sub.s	$f16,$f8,$f10
    db88:	10000002 	b	db94 <func_8010CE44+0x2e0>
    db8c:	e610000c 	swc1	$f16,12(s0)
    db90:	00001025 	move	v0,zero
    db94:	8fbf002c 	lw	ra,44(sp)
    db98:	8fb00028 	lw	s0,40(sp)
    db9c:	27bd0070 	addiu	sp,sp,112
    dba0:	03e00008 	jr	ra
    dba4:	00000000 	nop

0000dba8 <func_8010D138_ovl2>:
func_8010D138_ovl2():
    dba8:	27bdff90 	addiu	sp,sp,-112
    dbac:	afbf002c 	sw	ra,44(sp)
    dbb0:	afb00028 	sw	s0,40(sp)
    dbb4:	00808025 	move	s0,a0
    dbb8:	0c000000 	jal	0 <func_800FF5E0_ovl2>
    dbbc:	afa50074 	sw	a1,116(sp)
    dbc0:	3c080000 	lui	t0,0x0
    dbc4:	25080000 	addiu	t0,t0,0
    dbc8:	c506000c 	lwc1	$f6,12(t0)
    dbcc:	c6040004 	lwc1	$f4,4(s0)
    dbd0:	c7ac0074 	lwc1	$f12,116(sp)
    dbd4:	c500001c 	lwc1	$f0,28(t0)
    dbd8:	46062200 	add.s	$f8,$f4,$f6
    dbdc:	c5060010 	lwc1	$f6,16(t0)
    dbe0:	c5020020 	lwc1	$f2,32(t0)
    dbe4:	27ae0064 	addiu	t6,sp,100
    dbe8:	e7a80058 	swc1	$f8,88(sp)
    dbec:	c6100010 	lwc1	$f16,16(s0)
    dbf0:	c60a0008 	lwc1	$f10,8(s0)
    dbf4:	27a40058 	addiu	a0,sp,88
    dbf8:	27a5004c 	addiu	a1,sp,76
    dbfc:	46105480 	add.s	$f18,$f10,$f16
    dc00:	460c0282 	mul.s	$f10,$f0,$f12
    dc04:	c7b00058 	lwc1	$f16,88(sp)
    dc08:	27a60040 	addiu	a2,sp,64
    dc0c:	e7b2005c 	swc1	$f18,92(sp)
    dc10:	c604000c 	lwc1	$f4,12(s0)
    dc14:	afa0001c 	sw	zero,28(sp)
    dc18:	afa00018 	sw	zero,24(sp)
    dc1c:	46062200 	add.s	$f8,$f4,$f6
    dc20:	460c1182 	mul.s	$f6,$f2,$f12
    dc24:	c7a4005c 	lwc1	$f4,92(sp)
    dc28:	46105480 	add.s	$f18,$f10,$f16
    dc2c:	e7a80060 	swc1	$f8,96(sp)
    dc30:	c7a80060 	lwc1	$f8,96(sp)
    dc34:	44808000 	mtc1	zero,$f16
    dc38:	e7b2004c 	swc1	$f18,76(sp)
    dc3c:	46083280 	add.s	$f10,$f6,$f8
    dc40:	afa00014 	sw	zero,20(sp)
    dc44:	afae0010 	sw	t6,16(sp)
    dc48:	00003825 	move	a3,zero
    dc4c:	e7aa0054 	swc1	$f10,84(sp)
    dc50:	e7a00040 	swc1	$f0,64(sp)
    dc54:	e7a20048 	swc1	$f2,72(sp)
    dc58:	e7a40050 	swc1	$f4,80(sp)
    dc5c:	0c000000 	jal	0 <func_800FF5E0_ovl2>
    dc60:	e7b00044 	swc1	$f16,68(sp)
    dc64:	3c080000 	lui	t0,0x0
    dc68:	1040000b 	beqz	v0,dc98 <func_8010D138_ovl2+0xf0>
    dc6c:	25080000 	addiu	t0,t0,0
    dc70:	c7b20064 	lwc1	$f18,100(sp)
    dc74:	c504002c 	lwc1	$f4,44(t0)
    dc78:	24020001 	li	v0,1
    dc7c:	46049181 	sub.s	$f6,$f18,$f4
    dc80:	e6060004 	swc1	$f6,4(s0)
    dc84:	c50a0030 	lwc1	$f10,48(t0)
    dc88:	c7a8006c 	lwc1	$f8,108(sp)
    dc8c:	460a4401 	sub.s	$f16,$f8,$f10
    dc90:	1000007d 	b	de88 <func_8010D138_ovl2+0x2e0>
    dc94:	e610000c 	swc1	$f16,12(s0)
    dc98:	c6120008 	lwc1	$f18,8(s0)
    dc9c:	c6040014 	lwc1	$f4,20(s0)
    dca0:	27af003c 	addiu	t7,sp,60
    dca4:	afaf0014 	sw	t7,20(sp)
    dca8:	46049180 	add.s	$f6,$f18,$f4
    dcac:	afa00038 	sw	zero,56(sp)
    dcb0:	afa0001c 	sw	zero,28(sp)
    dcb4:	afa00018 	sw	zero,24(sp)
    dcb8:	e7a6005c 	swc1	$f6,92(sp)
    dcbc:	c7a8005c 	lwc1	$f8,92(sp)
    dcc0:	afa00010 	sw	zero,16(sp)
    dcc4:	27a40058 	addiu	a0,sp,88
    dcc8:	27a5004c 	addiu	a1,sp,76
    dccc:	27a60040 	addiu	a2,sp,64
    dcd0:	00003825 	move	a3,zero
    dcd4:	0c000000 	jal	0 <func_800FF5E0_ovl2>
    dcd8:	e7a80050 	swc1	$f8,80(sp)
    dcdc:	10400003 	beqz	v0,dcec <func_8010D138_ovl2+0x144>
    dce0:	8fa30038 	lw	v1,56(sp)
    dce4:	10000015 	b	dd3c <func_8010D138_ovl2+0x194>
    dce8:	24030001 	li	v1,1
    dcec:	c60a0008 	lwc1	$f10,8(s0)
    dcf0:	c6100018 	lwc1	$f16,24(s0)
    dcf4:	27b8003c 	addiu	t8,sp,60
    dcf8:	afb80014 	sw	t8,20(sp)
    dcfc:	46105480 	add.s	$f18,$f10,$f16
    dd00:	afa30038 	sw	v1,56(sp)
    dd04:	afa0001c 	sw	zero,28(sp)
    dd08:	afa00018 	sw	zero,24(sp)
    dd0c:	e7b2005c 	swc1	$f18,92(sp)
    dd10:	c7a4005c 	lwc1	$f4,92(sp)
    dd14:	afa00010 	sw	zero,16(sp)
    dd18:	27a40058 	addiu	a0,sp,88
    dd1c:	27a5004c 	addiu	a1,sp,76
    dd20:	27a60040 	addiu	a2,sp,64
    dd24:	00003825 	move	a3,zero
    dd28:	0c000000 	jal	0 <func_800FF5E0_ovl2>
    dd2c:	e7a40050 	swc1	$f4,80(sp)
    dd30:	10400002 	beqz	v0,dd3c <func_8010D138_ovl2+0x194>
    dd34:	8fa30038 	lw	v1,56(sp)
    dd38:	24030001 	li	v1,1
    dd3c:	50600052 	beqzl	v1,de88 <func_8010D138_ovl2+0x2e0>
    dd40:	00001025 	move	v0,zero
    dd44:	c6060008 	lwc1	$f6,8(s0)
    dd48:	c6080010 	lwc1	$f8,16(s0)
    dd4c:	8fa4003c 	lw	a0,60(sp)
    dd50:	27a50058 	addiu	a1,sp,88
    dd54:	46083280 	add.s	$f10,$f6,$f8
    dd58:	27a6004c 	addiu	a2,sp,76
    dd5c:	27a70064 	addiu	a3,sp,100
    dd60:	e7aa005c 	swc1	$f10,92(sp)
    dd64:	c7b0005c 	lwc1	$f16,92(sp)
    dd68:	0c000000 	jal	0 <func_800FF5E0_ovl2>
    dd6c:	e7b00050 	swc1	$f16,80(sp)
    dd70:	3c080000 	lui	t0,0x0
    dd74:	10400043 	beqz	v0,de84 <func_8010D138_ovl2+0x2dc>
    dd78:	25080000 	addiu	t0,t0,0
    dd7c:	c7a00058 	lwc1	$f0,88(sp)
    dd80:	c7a2004c 	lwc1	$f2,76(sp)
    dd84:	c7ac0064 	lwc1	$f12,100(sp)
    dd88:	4600103c 	c.lt.s	$f2,$f0
    dd8c:	00000000 	nop
    dd90:	4502000d 	bc1fl	ddc8 <func_8010D138_ovl2+0x220>
    dd94:	4600603c 	c.lt.s	$f12,$f0
    dd98:	c7ac0064 	lwc1	$f12,100(sp)
    dd9c:	460c003c 	c.lt.s	$f0,$f12
    dda0:	00000000 	nop
    dda4:	45010005 	bc1t	ddbc <func_8010D138_ovl2+0x214>
    dda8:	00000000 	nop
    ddac:	4602603c 	c.lt.s	$f12,$f2
    ddb0:	00000000 	nop
    ddb4:	4502000e 	bc1fl	ddf0 <func_8010D138_ovl2+0x248>
    ddb8:	c7a00060 	lwc1	$f0,96(sp)
    ddbc:	10000032 	b	de88 <func_8010D138_ovl2+0x2e0>
    ddc0:	00001025 	move	v0,zero
    ddc4:	4600603c 	c.lt.s	$f12,$f0
    ddc8:	00000000 	nop
    ddcc:	45010005 	bc1t	dde4 <func_8010D138_ovl2+0x23c>
    ddd0:	00000000 	nop
    ddd4:	460c103c 	c.lt.s	$f2,$f12
    ddd8:	00000000 	nop
    dddc:	45020004 	bc1fl	ddf0 <func_8010D138_ovl2+0x248>
    dde0:	c7a00060 	lwc1	$f0,96(sp)
    dde4:	10000028 	b	de88 <func_8010D138_ovl2+0x2e0>
    dde8:	00001025 	move	v0,zero
    ddec:	c7a00060 	lwc1	$f0,96(sp)
    ddf0:	c7a20054 	lwc1	$f2,84(sp)
    ddf4:	c7ac006c 	lwc1	$f12,108(sp)
    ddf8:	4600103c 	c.lt.s	$f2,$f0
    ddfc:	00000000 	nop
    de00:	4502000d 	bc1fl	de38 <func_8010D138_ovl2+0x290>
    de04:	4600603c 	c.lt.s	$f12,$f0
    de08:	c7ac006c 	lwc1	$f12,108(sp)
    de0c:	460c003c 	c.lt.s	$f0,$f12
    de10:	00000000 	nop
    de14:	45010005 	bc1t	de2c <func_8010D138_ovl2+0x284>
    de18:	00000000 	nop
    de1c:	4602603c 	c.lt.s	$f12,$f2
    de20:	00000000 	nop
    de24:	4502000e 	bc1fl	de60 <func_8010D138_ovl2+0x2b8>
    de28:	c7b20064 	lwc1	$f18,100(sp)
    de2c:	10000016 	b	de88 <func_8010D138_ovl2+0x2e0>
    de30:	00001025 	move	v0,zero
    de34:	4600603c 	c.lt.s	$f12,$f0
    de38:	00000000 	nop
    de3c:	45010005 	bc1t	de54 <func_8010D138_ovl2+0x2ac>
    de40:	00000000 	nop
    de44:	460c103c 	c.lt.s	$f2,$f12
    de48:	00000000 	nop
    de4c:	45020004 	bc1fl	de60 <func_8010D138_ovl2+0x2b8>
    de50:	c7b20064 	lwc1	$f18,100(sp)
    de54:	1000000c 	b	de88 <func_8010D138_ovl2+0x2e0>
    de58:	00001025 	move	v0,zero
    de5c:	c7b20064 	lwc1	$f18,100(sp)
    de60:	c504002c 	lwc1	$f4,44(t0)
    de64:	24020001 	li	v0,1
    de68:	46049181 	sub.s	$f6,$f18,$f4
    de6c:	e6060004 	swc1	$f6,4(s0)
    de70:	c50a0030 	lwc1	$f10,48(t0)
    de74:	c7a8006c 	lwc1	$f8,108(sp)
    de78:	460a4401 	sub.s	$f16,$f8,$f10
    de7c:	10000002 	b	de88 <func_8010D138_ovl2+0x2e0>
    de80:	e610000c 	swc1	$f16,12(s0)
    de84:	00001025 	move	v0,zero
    de88:	8fbf002c 	lw	ra,44(sp)
    de8c:	8fb00028 	lw	s0,40(sp)
    de90:	27bd0070 	addiu	sp,sp,112
    de94:	03e00008 	jr	ra
    de98:	00000000 	nop

0000de9c <func_8010D42C_ovl2>:
func_8010D42C_ovl2():
    de9c:	27bdff90 	addiu	sp,sp,-112
    dea0:	afbf002c 	sw	ra,44(sp)
    dea4:	afb00028 	sw	s0,40(sp)
    dea8:	00808025 	move	s0,a0
    deac:	0c000000 	jal	0 <func_800FF5E0_ovl2>
    deb0:	afa50074 	sw	a1,116(sp)
    deb4:	c6040004 	lwc1	$f4,4(s0)
    deb8:	44800000 	mtc1	zero,$f0
    debc:	3c013f80 	lui	at,0x3f80
    dec0:	e7a40058 	swc1	$f4,88(sp)
    dec4:	c6080014 	lwc1	$f8,20(s0)
    dec8:	c6060008 	lwc1	$f6,8(s0)
    decc:	c7b20058 	lwc1	$f18,88(sp)
    ded0:	27ae0064 	addiu	t6,sp,100
    ded4:	46083280 	add.s	$f10,$f6,$f8
    ded8:	c7a60074 	lwc1	$f6,116(sp)
    dedc:	27a40058 	addiu	a0,sp,88
    dee0:	27a5004c 	addiu	a1,sp,76
    dee4:	e7aa005c 	swc1	$f10,92(sp)
    dee8:	c610000c 	lwc1	$f16,12(s0)
    deec:	c7a4005c 	lwc1	$f4,92(sp)
    def0:	afa0001c 	sw	zero,28(sp)
    def4:	e7b00060 	swc1	$f16,96(sp)
    def8:	46062200 	add.s	$f8,$f4,$f6
    defc:	c7aa0060 	lwc1	$f10,96(sp)
    df00:	44818000 	mtc1	at,$f16
    df04:	afa00018 	sw	zero,24(sp)
    df08:	e7a80050 	swc1	$f8,80(sp)
    df0c:	afa00014 	sw	zero,20(sp)
    df10:	afae0010 	sw	t6,16(sp)
    df14:	27a60040 	addiu	a2,sp,64
    df18:	00003825 	move	a3,zero
    df1c:	e7a00040 	swc1	$f0,64(sp)
    df20:	e7a00048 	swc1	$f0,72(sp)
    df24:	e7b2004c 	swc1	$f18,76(sp)
    df28:	e7aa0054 	swc1	$f10,84(sp)
    df2c:	0c000000 	jal	0 <func_800FF5E0_ovl2>
    df30:	e7b00044 	swc1	$f16,68(sp)
    df34:	1040000a 	beqz	v0,df60 <func_8010D42C_ovl2+0xc4>
    df38:	3c030000 	lui	v1,0x0
    df3c:	c7b20068 	lwc1	$f18,104(sp)
    df40:	c6040014 	lwc1	$f4,20(s0)
    df44:	3c010000 	lui	at,0x0
    df48:	c4280000 	lwc1	$f8,0(at)
    df4c:	46049181 	sub.s	$f6,$f18,$f4
    df50:	24020001 	li	v0,1
    df54:	46083281 	sub.s	$f10,$f6,$f8
    df58:	1000005a 	b	e0c4 <func_8010D42C_ovl2+0x228>
    df5c:	e60a0008 	swc1	$f10,8(s0)
    df60:	24630000 	addiu	v1,v1,0
    df64:	c4720004 	lwc1	$f18,4(v1)
    df68:	c6100004 	lwc1	$f16,4(s0)
    df6c:	c4680008 	lwc1	$f8,8(v1)
    df70:	27af003c 	addiu	t7,sp,60
    df74:	46128100 	add.s	$f4,$f16,$f18
    df78:	27a40058 	addiu	a0,sp,88
    df7c:	27a5004c 	addiu	a1,sp,76
    df80:	27a60040 	addiu	a2,sp,64
    df84:	e7a40058 	swc1	$f4,88(sp)
    df88:	c606000c 	lwc1	$f6,12(s0)
    df8c:	c7b00058 	lwc1	$f16,88(sp)
    df90:	afa00038 	sw	zero,56(sp)
    df94:	46083280 	add.s	$f10,$f6,$f8
    df98:	afa0001c 	sw	zero,28(sp)
    df9c:	afa00018 	sw	zero,24(sp)
    dfa0:	afaf0014 	sw	t7,20(sp)
    dfa4:	e7aa0060 	swc1	$f10,96(sp)
    dfa8:	c7b20060 	lwc1	$f18,96(sp)
    dfac:	afa00010 	sw	zero,16(sp)
    dfb0:	00003825 	move	a3,zero
    dfb4:	e7b0004c 	swc1	$f16,76(sp)
    dfb8:	0c000000 	jal	0 <func_800FF5E0_ovl2>
    dfbc:	e7b20054 	swc1	$f18,84(sp)
    dfc0:	3c030000 	lui	v1,0x0
    dfc4:	24630000 	addiu	v1,v1,0
    dfc8:	10400003 	beqz	v0,dfd8 <func_8010D42C_ovl2+0x13c>
    dfcc:	8fa80038 	lw	t0,56(sp)
    dfd0:	1000001b 	b	e040 <func_8010D42C_ovl2+0x1a4>
    dfd4:	24080001 	li	t0,1
    dfd8:	c6040004 	lwc1	$f4,4(s0)
    dfdc:	c466000c 	lwc1	$f6,12(v1)
    dfe0:	c4700010 	lwc1	$f16,16(v1)
    dfe4:	27b8003c 	addiu	t8,sp,60
    dfe8:	46062200 	add.s	$f8,$f4,$f6
    dfec:	27a40058 	addiu	a0,sp,88
    dff0:	27a5004c 	addiu	a1,sp,76
    dff4:	27a60040 	addiu	a2,sp,64
    dff8:	e7a80058 	swc1	$f8,88(sp)
    dffc:	c60a000c 	lwc1	$f10,12(s0)
    e000:	c7a40058 	lwc1	$f4,88(sp)
    e004:	afa80038 	sw	t0,56(sp)
    e008:	46105480 	add.s	$f18,$f10,$f16
    e00c:	afa0001c 	sw	zero,28(sp)
    e010:	afa00018 	sw	zero,24(sp)
    e014:	afb80014 	sw	t8,20(sp)
    e018:	e7b20060 	swc1	$f18,96(sp)
    e01c:	c7a60060 	lwc1	$f6,96(sp)
    e020:	afa00010 	sw	zero,16(sp)
    e024:	00003825 	move	a3,zero
    e028:	e7a4004c 	swc1	$f4,76(sp)
    e02c:	0c000000 	jal	0 <func_800FF5E0_ovl2>
    e030:	e7a60054 	swc1	$f6,84(sp)
    e034:	10400002 	beqz	v0,e040 <func_8010D42C_ovl2+0x1a4>
    e038:	8fa80038 	lw	t0,56(sp)
    e03c:	24080001 	li	t0,1
    e040:	1100001f 	beqz	t0,e0c0 <func_8010D42C_ovl2+0x224>
    e044:	8fb9003c 	lw	t9,60(sp)
    e048:	c7280000 	lwc1	$f8,0(t9)
    e04c:	c60a0004 	lwc1	$f10,4(s0)
    e050:	c7320008 	lwc1	$f18,8(t9)
    e054:	c604000c 	lwc1	$f4,12(s0)
    e058:	460a4402 	mul.s	$f16,$f8,$f10
    e05c:	c72a000c 	lwc1	$f10,12(t9)
    e060:	46049182 	mul.s	$f6,$f18,$f4
    e064:	46068200 	add.s	$f8,$f16,$f6
    e068:	c7300004 	lwc1	$f16,4(t9)
    e06c:	c7a60050 	lwc1	$f6,80(sp)
    e070:	460a4480 	add.s	$f18,$f8,$f10
    e074:	c7a8005c 	lwc1	$f8,92(sp)
    e078:	46009107 	neg.s	$f4,$f18
    e07c:	46102003 	div.s	$f0,$f4,$f16
    e080:	4606003e 	c.le.s	$f0,$f6
    e084:	00000000 	nop
    e088:	4502000e 	bc1fl	e0c4 <func_8010D42C_ovl2+0x228>
    e08c:	00001025 	move	v0,zero
    e090:	4600403e 	c.le.s	$f8,$f0
    e094:	00000000 	nop
    e098:	4502000a 	bc1fl	e0c4 <func_8010D42C_ovl2+0x228>
    e09c:	00001025 	move	v0,zero
    e0a0:	c60a0014 	lwc1	$f10,20(s0)
    e0a4:	3c010000 	lui	at,0x0
    e0a8:	c4240000 	lwc1	$f4,0(at)
    e0ac:	460a0481 	sub.s	$f18,$f0,$f10
    e0b0:	24020001 	li	v0,1
    e0b4:	46049401 	sub.s	$f16,$f18,$f4
    e0b8:	10000002 	b	e0c4 <func_8010D42C_ovl2+0x228>
    e0bc:	e6100008 	swc1	$f16,8(s0)
    e0c0:	00001025 	move	v0,zero
    e0c4:	8fbf002c 	lw	ra,44(sp)
    e0c8:	8fb00028 	lw	s0,40(sp)
    e0cc:	27bd0070 	addiu	sp,sp,112
    e0d0:	03e00008 	jr	ra
    e0d4:	00000000 	nop

0000e0d8 <func_8010D668_ovl2>:
func_8010D668_ovl2():
    e0d8:	27bdff90 	addiu	sp,sp,-112
    e0dc:	afbf002c 	sw	ra,44(sp)
    e0e0:	afb00028 	sw	s0,40(sp)
    e0e4:	00808025 	move	s0,a0
    e0e8:	0c000000 	jal	0 <func_800FF5E0_ovl2>
    e0ec:	afa50074 	sw	a1,116(sp)
    e0f0:	c6040004 	lwc1	$f4,4(s0)
    e0f4:	44800000 	mtc1	zero,$f0
    e0f8:	3c01bf80 	lui	at,0xbf80
    e0fc:	e7a40058 	swc1	$f4,88(sp)
    e100:	c6080018 	lwc1	$f8,24(s0)
    e104:	c6060008 	lwc1	$f6,8(s0)
    e108:	c7b20058 	lwc1	$f18,88(sp)
    e10c:	27ae0064 	addiu	t6,sp,100
    e110:	46083280 	add.s	$f10,$f6,$f8
    e114:	c7a60074 	lwc1	$f6,116(sp)
    e118:	27a40058 	addiu	a0,sp,88
    e11c:	27a5004c 	addiu	a1,sp,76
    e120:	e7aa005c 	swc1	$f10,92(sp)
    e124:	c610000c 	lwc1	$f16,12(s0)
    e128:	c7a4005c 	lwc1	$f4,92(sp)
    e12c:	afa0001c 	sw	zero,28(sp)
    e130:	e7b00060 	swc1	$f16,96(sp)
    e134:	46062201 	sub.s	$f8,$f4,$f6
    e138:	c7aa0060 	lwc1	$f10,96(sp)
    e13c:	44818000 	mtc1	at,$f16
    e140:	afa00018 	sw	zero,24(sp)
    e144:	e7a80050 	swc1	$f8,80(sp)
    e148:	afa00014 	sw	zero,20(sp)
    e14c:	afae0010 	sw	t6,16(sp)
    e150:	27a60040 	addiu	a2,sp,64
    e154:	00003825 	move	a3,zero
    e158:	e7a00040 	swc1	$f0,64(sp)
    e15c:	e7a00048 	swc1	$f0,72(sp)
    e160:	e7b2004c 	swc1	$f18,76(sp)
    e164:	e7aa0054 	swc1	$f10,84(sp)
    e168:	0c000000 	jal	0 <func_800FF5E0_ovl2>
    e16c:	e7b00044 	swc1	$f16,68(sp)
    e170:	1040000a 	beqz	v0,e19c <func_8010D668_ovl2+0xc4>
    e174:	3c030000 	lui	v1,0x0
    e178:	c7b20068 	lwc1	$f18,104(sp)
    e17c:	c6040018 	lwc1	$f4,24(s0)
    e180:	3c010000 	lui	at,0x0
    e184:	c4280000 	lwc1	$f8,0(at)
    e188:	46049181 	sub.s	$f6,$f18,$f4
    e18c:	24020001 	li	v0,1
    e190:	46083280 	add.s	$f10,$f6,$f8
    e194:	1000005a 	b	e300 <func_8010D668_ovl2+0x228>
    e198:	e60a0008 	swc1	$f10,8(s0)
    e19c:	24630000 	addiu	v1,v1,0
    e1a0:	c4720004 	lwc1	$f18,4(v1)
    e1a4:	c6100004 	lwc1	$f16,4(s0)
    e1a8:	c4680008 	lwc1	$f8,8(v1)
    e1ac:	27af003c 	addiu	t7,sp,60
    e1b0:	46128100 	add.s	$f4,$f16,$f18
    e1b4:	27a40058 	addiu	a0,sp,88
    e1b8:	27a5004c 	addiu	a1,sp,76
    e1bc:	27a60040 	addiu	a2,sp,64
    e1c0:	e7a40058 	swc1	$f4,88(sp)
    e1c4:	c606000c 	lwc1	$f6,12(s0)
    e1c8:	c7b00058 	lwc1	$f16,88(sp)
    e1cc:	afa00038 	sw	zero,56(sp)
    e1d0:	46083280 	add.s	$f10,$f6,$f8
    e1d4:	afa0001c 	sw	zero,28(sp)
    e1d8:	afa00018 	sw	zero,24(sp)
    e1dc:	afaf0014 	sw	t7,20(sp)
    e1e0:	e7aa0060 	swc1	$f10,96(sp)
    e1e4:	c7b20060 	lwc1	$f18,96(sp)
    e1e8:	afa00010 	sw	zero,16(sp)
    e1ec:	00003825 	move	a3,zero
    e1f0:	e7b0004c 	swc1	$f16,76(sp)
    e1f4:	0c000000 	jal	0 <func_800FF5E0_ovl2>
    e1f8:	e7b20054 	swc1	$f18,84(sp)
    e1fc:	3c030000 	lui	v1,0x0
    e200:	24630000 	addiu	v1,v1,0
    e204:	10400003 	beqz	v0,e214 <func_8010D668_ovl2+0x13c>
    e208:	8fa80038 	lw	t0,56(sp)
    e20c:	1000001b 	b	e27c <func_8010D668_ovl2+0x1a4>
    e210:	24080001 	li	t0,1
    e214:	c6040004 	lwc1	$f4,4(s0)
    e218:	c466000c 	lwc1	$f6,12(v1)
    e21c:	c4700010 	lwc1	$f16,16(v1)
    e220:	27b8003c 	addiu	t8,sp,60
    e224:	46062200 	add.s	$f8,$f4,$f6
    e228:	27a40058 	addiu	a0,sp,88
    e22c:	27a5004c 	addiu	a1,sp,76
    e230:	27a60040 	addiu	a2,sp,64
    e234:	e7a80058 	swc1	$f8,88(sp)
    e238:	c60a000c 	lwc1	$f10,12(s0)
    e23c:	c7a40058 	lwc1	$f4,88(sp)
    e240:	afa80038 	sw	t0,56(sp)
    e244:	46105480 	add.s	$f18,$f10,$f16
    e248:	afa0001c 	sw	zero,28(sp)
    e24c:	afa00018 	sw	zero,24(sp)
    e250:	afb80014 	sw	t8,20(sp)
    e254:	e7b20060 	swc1	$f18,96(sp)
    e258:	c7a60060 	lwc1	$f6,96(sp)
    e25c:	afa00010 	sw	zero,16(sp)
    e260:	00003825 	move	a3,zero
    e264:	e7a4004c 	swc1	$f4,76(sp)
    e268:	0c000000 	jal	0 <func_800FF5E0_ovl2>
    e26c:	e7a60054 	swc1	$f6,84(sp)
    e270:	10400002 	beqz	v0,e27c <func_8010D668_ovl2+0x1a4>
    e274:	8fa80038 	lw	t0,56(sp)
    e278:	24080001 	li	t0,1
    e27c:	1100001f 	beqz	t0,e2fc <func_8010D668_ovl2+0x224>
    e280:	8fb9003c 	lw	t9,60(sp)
    e284:	c7280000 	lwc1	$f8,0(t9)
    e288:	c60a0004 	lwc1	$f10,4(s0)
    e28c:	c7320008 	lwc1	$f18,8(t9)
    e290:	c604000c 	lwc1	$f4,12(s0)
    e294:	460a4402 	mul.s	$f16,$f8,$f10
    e298:	c72a000c 	lwc1	$f10,12(t9)
    e29c:	46049182 	mul.s	$f6,$f18,$f4
    e2a0:	46068200 	add.s	$f8,$f16,$f6
    e2a4:	c7300004 	lwc1	$f16,4(t9)
    e2a8:	c7a60050 	lwc1	$f6,80(sp)
    e2ac:	460a4480 	add.s	$f18,$f8,$f10
    e2b0:	c7a8005c 	lwc1	$f8,92(sp)
    e2b4:	46009107 	neg.s	$f4,$f18
    e2b8:	46102003 	div.s	$f0,$f4,$f16
    e2bc:	4600303e 	c.le.s	$f6,$f0
    e2c0:	00000000 	nop
    e2c4:	4502000e 	bc1fl	e300 <func_8010D668_ovl2+0x228>
    e2c8:	00001025 	move	v0,zero
    e2cc:	4608003e 	c.le.s	$f0,$f8
    e2d0:	00000000 	nop
    e2d4:	4502000a 	bc1fl	e300 <func_8010D668_ovl2+0x228>
    e2d8:	00001025 	move	v0,zero
    e2dc:	c60a0018 	lwc1	$f10,24(s0)
    e2e0:	3c010000 	lui	at,0x0
    e2e4:	c4240000 	lwc1	$f4,0(at)
    e2e8:	460a0481 	sub.s	$f18,$f0,$f10
    e2ec:	24020001 	li	v0,1
    e2f0:	46049400 	add.s	$f16,$f18,$f4
    e2f4:	10000002 	b	e300 <func_8010D668_ovl2+0x228>
    e2f8:	e6100008 	swc1	$f16,8(s0)
    e2fc:	00001025 	move	v0,zero
    e300:	8fbf002c 	lw	ra,44(sp)
    e304:	8fb00028 	lw	s0,40(sp)
    e308:	27bd0070 	addiu	sp,sp,112
    e30c:	03e00008 	jr	ra
    e310:	00000000 	nop

0000e314 <func_8010D8A4_ovl2>:
func_8010D8A4_ovl2():
    e314:	27bdffa0 	addiu	sp,sp,-96
    e318:	afbf002c 	sw	ra,44(sp)
    e31c:	afb00028 	sw	s0,40(sp)
    e320:	0c000000 	jal	0 <func_800FF5E0_ovl2>
    e324:	00808025 	move	s0,a0
    e328:	44800000 	mtc1	zero,$f0
    e32c:	3c01bf80 	lui	at,0xbf80
    e330:	44812000 	mtc1	at,$f4
    e334:	3c030000 	lui	v1,0x0
    e338:	24630000 	addiu	v1,v1,0
    e33c:	e7a00038 	swc1	$f0,56(sp)
    e340:	e7a00040 	swc1	$f0,64(sp)
    e344:	e7a4003c 	swc1	$f4,60(sp)
    e348:	c6060004 	lwc1	$f6,4(s0)
    e34c:	c4680004 	lwc1	$f8,4(v1)
    e350:	26020010 	addiu	v0,s0,16
    e354:	3c010000 	lui	at,0x0
    e358:	46083280 	add.s	$f10,$f6,$f8
    e35c:	c4680008 	lwc1	$f8,8(v1)
    e360:	27ae0034 	addiu	t6,sp,52
    e364:	27a40050 	addiu	a0,sp,80
    e368:	e7aa0050 	swc1	$f10,80(sp)
    e36c:	c6100008 	lwc1	$f16,8(s0)
    e370:	c4520004 	lwc1	$f18,4(v0)
    e374:	27a50044 	addiu	a1,sp,68
    e378:	27a60038 	addiu	a2,sp,56
    e37c:	46128100 	add.s	$f4,$f16,$f18
    e380:	c7b00050 	lwc1	$f16,80(sp)
    e384:	00003825 	move	a3,zero
    e388:	e7a40054 	swc1	$f4,84(sp)
    e38c:	c606000c 	lwc1	$f6,12(s0)
    e390:	e7b00044 	swc1	$f16,68(sp)
    e394:	46083280 	add.s	$f10,$f6,$f8
    e398:	c4280000 	lwc1	$f8,0(at)
    e39c:	e7aa0058 	swc1	$f10,88(sp)
    e3a0:	c4440008 	lwc1	$f4,8(v0)
    e3a4:	c6120008 	lwc1	$f18,8(s0)
    e3a8:	c7b00058 	lwc1	$f16,88(sp)
    e3ac:	afa0001c 	sw	zero,28(sp)
    e3b0:	46049180 	add.s	$f6,$f18,$f4
    e3b4:	afae0018 	sw	t6,24(sp)
    e3b8:	afa00014 	sw	zero,20(sp)
    e3bc:	afa00010 	sw	zero,16(sp)
    e3c0:	46083281 	sub.s	$f10,$f6,$f8
    e3c4:	e7b0004c 	swc1	$f16,76(sp)
    e3c8:	0c000000 	jal	0 <func_800FF5E0_ovl2>
    e3cc:	e7aa0048 	swc1	$f10,72(sp)
    e3d0:	10400009 	beqz	v0,e3f8 <func_8010D8A4_ovl2+0xe4>
    e3d4:	8fa40034 	lw	a0,52(sp)
    e3d8:	00002825 	move	a1,zero
    e3dc:	00003025 	move	a2,zero
    e3e0:	0c000000 	jal	0 <func_800FF5E0_ovl2>
    e3e4:	00003825 	move	a3,zero
    e3e8:	14400003 	bnez	v0,e3f8 <func_8010D8A4_ovl2+0xe4>
    e3ec:	00000000 	nop
    e3f0:	10000024 	b	e484 <func_8010D8A4_ovl2+0x170>
    e3f4:	00001025 	move	v0,zero
    e3f8:	3c020000 	lui	v0,0x0
    e3fc:	24420000 	addiu	v0,v0,0
    e400:	c444000c 	lwc1	$f4,12(v0)
    e404:	c6120004 	lwc1	$f18,4(s0)
    e408:	c44a0010 	lwc1	$f10,16(v0)
    e40c:	27af0034 	addiu	t7,sp,52
    e410:	46049180 	add.s	$f6,$f18,$f4
    e414:	27a40050 	addiu	a0,sp,80
    e418:	27a50044 	addiu	a1,sp,68
    e41c:	27a60038 	addiu	a2,sp,56
    e420:	e7a60050 	swc1	$f6,80(sp)
    e424:	c608000c 	lwc1	$f8,12(s0)
    e428:	c7b20050 	lwc1	$f18,80(sp)
    e42c:	afa0001c 	sw	zero,28(sp)
    e430:	460a4400 	add.s	$f16,$f8,$f10
    e434:	afaf0018 	sw	t7,24(sp)
    e438:	afa00014 	sw	zero,20(sp)
    e43c:	afa00010 	sw	zero,16(sp)
    e440:	e7b00058 	swc1	$f16,88(sp)
    e444:	c7a40058 	lwc1	$f4,88(sp)
    e448:	00003825 	move	a3,zero
    e44c:	e7b20044 	swc1	$f18,68(sp)
    e450:	0c000000 	jal	0 <func_800FF5E0_ovl2>
    e454:	e7a4004c 	swc1	$f4,76(sp)
    e458:	10400009 	beqz	v0,e480 <func_8010D8A4_ovl2+0x16c>
    e45c:	8fa40034 	lw	a0,52(sp)
    e460:	00002825 	move	a1,zero
    e464:	00003025 	move	a2,zero
    e468:	0c000000 	jal	0 <func_800FF5E0_ovl2>
    e46c:	00003825 	move	a3,zero
    e470:	54400004 	bnezl	v0,e484 <func_8010D8A4_ovl2+0x170>
    e474:	24020001 	li	v0,1
    e478:	10000002 	b	e484 <func_8010D8A4_ovl2+0x170>
    e47c:	00001025 	move	v0,zero
    e480:	24020001 	li	v0,1
    e484:	8fbf002c 	lw	ra,44(sp)
    e488:	8fb00028 	lw	s0,40(sp)
    e48c:	27bd0060 	addiu	sp,sp,96
    e490:	03e00008 	jr	ra
    e494:	00000000 	nop

0000e498 <func_8010DA28_ovl2>:
func_8010DA28_ovl2():
    e498:	27bdffa0 	addiu	sp,sp,-96
    e49c:	afbf002c 	sw	ra,44(sp)
    e4a0:	afb00028 	sw	s0,40(sp)
    e4a4:	0c000000 	jal	0 <func_800FF5E0_ovl2>
    e4a8:	00808025 	move	s0,a0
    e4ac:	44800000 	mtc1	zero,$f0
    e4b0:	3c013f80 	lui	at,0x3f80
    e4b4:	44812000 	mtc1	at,$f4
    e4b8:	3c030000 	lui	v1,0x0
    e4bc:	24630000 	addiu	v1,v1,0
    e4c0:	e7a00038 	swc1	$f0,56(sp)
    e4c4:	e7a00040 	swc1	$f0,64(sp)
    e4c8:	e7a4003c 	swc1	$f4,60(sp)
    e4cc:	c6060004 	lwc1	$f6,4(s0)
    e4d0:	c4680004 	lwc1	$f8,4(v1)
    e4d4:	26020010 	addiu	v0,s0,16
    e4d8:	27a40050 	addiu	a0,sp,80
    e4dc:	46083280 	add.s	$f10,$f6,$f8
    e4e0:	c4680008 	lwc1	$f8,8(v1)
    e4e4:	27a50044 	addiu	a1,sp,68
    e4e8:	27a60038 	addiu	a2,sp,56
    e4ec:	e7aa0050 	swc1	$f10,80(sp)
    e4f0:	c6100008 	lwc1	$f16,8(s0)
    e4f4:	c4520008 	lwc1	$f18,8(v0)
    e4f8:	00003825 	move	a3,zero
    e4fc:	46128100 	add.s	$f4,$f16,$f18
    e500:	c7b00050 	lwc1	$f16,80(sp)
    e504:	e7a40054 	swc1	$f4,84(sp)
    e508:	c606000c 	lwc1	$f6,12(s0)
    e50c:	e7b00044 	swc1	$f16,68(sp)
    e510:	46083280 	add.s	$f10,$f6,$f8
    e514:	e7aa0058 	swc1	$f10,88(sp)
    e518:	c4440004 	lwc1	$f4,4(v0)
    e51c:	c6120008 	lwc1	$f18,8(s0)
    e520:	c7a80058 	lwc1	$f8,88(sp)
    e524:	afa0001c 	sw	zero,28(sp)
    e528:	46049180 	add.s	$f6,$f18,$f4
    e52c:	afa00018 	sw	zero,24(sp)
    e530:	afa00014 	sw	zero,20(sp)
    e534:	afa00010 	sw	zero,16(sp)
    e538:	e7a60048 	swc1	$f6,72(sp)
    e53c:	0c000000 	jal	0 <func_800FF5E0_ovl2>
    e540:	e7a8004c 	swc1	$f8,76(sp)
    e544:	3c030000 	lui	v1,0x0
    e548:	10400003 	beqz	v0,e558 <func_8010DA28_ovl2+0xc0>
    e54c:	24630000 	addiu	v1,v1,0
    e550:	1000001b 	b	e5c0 <func_8010DA28_ovl2+0x128>
    e554:	24020001 	li	v0,1
    e558:	c60a0004 	lwc1	$f10,4(s0)
    e55c:	c470000c 	lwc1	$f16,12(v1)
    e560:	c4660010 	lwc1	$f6,16(v1)
    e564:	27a40050 	addiu	a0,sp,80
    e568:	46105480 	add.s	$f18,$f10,$f16
    e56c:	27a50044 	addiu	a1,sp,68
    e570:	27a60038 	addiu	a2,sp,56
    e574:	00003825 	move	a3,zero
    e578:	e7b20050 	swc1	$f18,80(sp)
    e57c:	c604000c 	lwc1	$f4,12(s0)
    e580:	c7aa0050 	lwc1	$f10,80(sp)
    e584:	afa0001c 	sw	zero,28(sp)
    e588:	46062200 	add.s	$f8,$f4,$f6
    e58c:	afa00018 	sw	zero,24(sp)
    e590:	afa00014 	sw	zero,20(sp)
    e594:	afa00010 	sw	zero,16(sp)
    e598:	e7a80058 	swc1	$f8,88(sp)
    e59c:	c7b00058 	lwc1	$f16,88(sp)
    e5a0:	e7aa0044 	swc1	$f10,68(sp)
    e5a4:	0c000000 	jal	0 <func_800FF5E0_ovl2>
    e5a8:	e7b0004c 	swc1	$f16,76(sp)
    e5ac:	50400004 	beqzl	v0,e5c0 <func_8010DA28_ovl2+0x128>
    e5b0:	00001025 	move	v0,zero
    e5b4:	10000002 	b	e5c0 <func_8010DA28_ovl2+0x128>
    e5b8:	24020001 	li	v0,1
    e5bc:	00001025 	move	v0,zero
    e5c0:	8fbf002c 	lw	ra,44(sp)
    e5c4:	8fb00028 	lw	s0,40(sp)
    e5c8:	27bd0060 	addiu	sp,sp,96
    e5cc:	03e00008 	jr	ra
    e5d0:	00000000 	nop

0000e5d4 <func_8010DB64_ovl2>:
func_8010DB64_ovl2():
    e5d4:	10800024 	beqz	a0,e668 <func_8010DB64_ovl2+0x94>
    e5d8:	24010014 	li	at,20
    e5dc:	10a1000a 	beq	a1,at,e608 <func_8010DB64_ovl2+0x34>
    e5e0:	3c028013 	lui	v0,0x8013
    e5e4:	00057080 	sll	t6,a1,0x2
    e5e8:	01c57023 	subu	t6,t6,a1
    e5ec:	000e70c0 	sll	t6,t6,0x3
    e5f0:	01c57023 	subu	t6,t6,a1
    e5f4:	000e70c0 	sll	t6,t6,0x3
    e5f8:	3c028013 	lui	v0,0x8013
    e5fc:	004e1021 	addu	v0,v0,t6
    e600:	10000002 	b	e60c <func_8010DB64_ovl2+0x38>
    e604:	8c42d94c 	lw	v0,-9908(v0)
    e608:	8c429410 	lw	v0,-27632(v0)
    e60c:	94980006 	lhu	t8,6(a0)
    e610:	94880008 	lhu	t0,8(a0)
    e614:	8c4f0014 	lw	t7,20(v0)
    e618:	0018c900 	sll	t9,t8,0x4
    e61c:	31090001 	andi	t1,t0,0x1
    e620:	11200008 	beqz	t1,e644 <func_8010DB64_ovl2+0x70>
    e624:	01f91821 	addu	v1,t7,t9
    e628:	c4640000 	lwc1	$f4,0(v1)
    e62c:	e4c40000 	swc1	$f4,0(a2)
    e630:	c4660004 	lwc1	$f6,4(v1)
    e634:	e4c60004 	swc1	$f6,4(a2)
    e638:	c4680008 	lwc1	$f8,8(v1)
    e63c:	03e00008 	jr	ra
    e640:	e4c80008 	swc1	$f8,8(a2)
    e644:	c46a0000 	lwc1	$f10,0(v1)
    e648:	46005407 	neg.s	$f16,$f10
    e64c:	e4d00000 	swc1	$f16,0(a2)
    e650:	c4720004 	lwc1	$f18,4(v1)
    e654:	46009107 	neg.s	$f4,$f18
    e658:	e4c40004 	swc1	$f4,4(a2)
    e65c:	c4660008 	lwc1	$f6,8(v1)
    e660:	46003207 	neg.s	$f8,$f6
    e664:	e4c80008 	swc1	$f8,8(a2)
    e668:	03e00008 	jr	ra
    e66c:	00000000 	nop

0000e670 <func_8010DC00_ovl2>:
func_8010DC00_ovl2():
    e670:	27bdffe8 	addiu	sp,sp,-24
    e674:	afbf0014 	sw	ra,20(sp)
    e678:	00a03025 	move	a2,a1
    e67c:	0c000000 	jal	0 <func_800FF5E0_ovl2>
    e680:	24050014 	li	a1,20
    e684:	8fbf0014 	lw	ra,20(sp)
    e688:	27bd0018 	addiu	sp,sp,24
    e68c:	03e00008 	jr	ra
    e690:	00000000 	nop

0000e694 <func_8010DC24_ovl2>:
func_8010DC24_ovl2():
    e694:	1080000b 	beqz	a0,e6c4 <func_8010DC24_ovl2+0x30>
    e698:	00001025 	move	v0,zero
    e69c:	948e0012 	lhu	t6,18(a0)
    e6a0:	24010006 	li	at,6
    e6a4:	15c10007 	bne	t6,at,e6c4 <func_8010DC24_ovl2+0x30>
    e6a8:	00000000 	nop
    e6ac:	948f000e 	lhu	t7,14(a0)
    e6b0:	3c028012 	lui	v0,0x8012
    e6b4:	000fc080 	sll	t8,t7,0x2
    e6b8:	00581021 	addu	v0,v0,t8
    e6bc:	03e00008 	jr	ra
    e6c0:	94424770 	lhu	v0,18288(v0)
    e6c4:	03e00008 	jr	ra
    e6c8:	00000000 	nop

0000e6cc <func_8010DC5C_ovl2>:
func_8010DC5C_ovl2():
    e6cc:	3c040000 	lui	a0,0x0
    e6d0:	24840000 	addiu	a0,a0,0
    e6d4:	8c830000 	lw	v1,0(a0)
    e6d8:	54600004 	bnezl	v1,e6ec <func_8010DC5C_ovl2+0x20>
    e6dc:	8c6e0000 	lw	t6,0(v1)
    e6e0:	03e00008 	jr	ra
    e6e4:	00001025 	move	v0,zero
    e6e8:	8c6e0000 	lw	t6,0(v1)
    e6ec:	00601025 	move	v0,v1
    e6f0:	ac8e0000 	sw	t6,0(a0)
    e6f4:	03e00008 	jr	ra
    e6f8:	00000000 	nop

0000e6fc <func_8010DC8C_ovl2>:
func_8010DC8C_ovl2():
    e6fc:	10800005 	beqz	a0,e714 <func_8010DC8C_ovl2+0x18>
    e700:	3c020000 	lui	v0,0x0
    e704:	24420000 	addiu	v0,v0,0
    e708:	8c4e0000 	lw	t6,0(v0)
    e70c:	ac8e0000 	sw	t6,0(a0)
    e710:	ac440000 	sw	a0,0(v0)
    e714:	03e00008 	jr	ra
    e718:	00000000 	nop

0000e71c <func_8010DCAC_ovl2>:
func_8010DCAC_ovl2():
    e71c:	27bdffe0 	addiu	sp,sp,-32
    e720:	afbf0014 	sw	ra,20(sp)
    e724:	0c000000 	jal	0 <func_800FF5E0_ovl2>
    e728:	00000000 	nop
    e72c:	afa2001c 	sw	v0,28(sp)
    e730:	0c000000 	jal	0 <func_800FF5E0_ovl2>
    e734:	00402025 	move	a0,v0
    e738:	8fbf0014 	lw	ra,20(sp)
    e73c:	8fa2001c 	lw	v0,28(sp)
    e740:	27bd0020 	addiu	sp,sp,32
    e744:	03e00008 	jr	ra
    e748:	00000000 	nop

0000e74c <func_8010DCDC_ovl2>:
func_8010DCDC_ovl2():
    e74c:	3c020000 	lui	v0,0x0
    e750:	24420000 	addiu	v0,v0,0
    e754:	904e0000 	lbu	t6,0(v0)
    e758:	3c180000 	lui	t8,0x0
    e75c:	ac400040 	sw	zero,64(v0)
    e760:	31cfff7f 	andi	t7,t6,0xff7f
    e764:	a04f0000 	sb	t7,0(v0)
    e768:	27180000 	addiu	t8,t8,0
    e76c:	3c010000 	lui	at,0x0
    e770:	ac380000 	sw	t8,0(at)
    e774:	3c190000 	lui	t9,0x0
    e778:	27390000 	addiu	t9,t9,0
    e77c:	3c010000 	lui	at,0x0
    e780:	ac390000 	sw	t9,0(at)
    e784:	3c080000 	lui	t0,0x0
    e788:	25080000 	addiu	t0,t0,0
    e78c:	3c010000 	lui	at,0x0
    e790:	ac280000 	sw	t0,0(at)
    e794:	3c098013 	lui	t1,0x8013
    e798:	2523be64 	addiu	v1,t1,-16796
    e79c:	3c010000 	lui	at,0x0
    e7a0:	3c020000 	lui	v0,0x0
    e7a4:	3c040000 	lui	a0,0x0
    e7a8:	3c050000 	lui	a1,0x0
    e7ac:	3c060000 	lui	a2,0x0
    e7b0:	3c070000 	lui	a3,0x0
    e7b4:	24e70000 	addiu	a3,a3,0
    e7b8:	24c60000 	addiu	a2,a2,0
    e7bc:	24a50000 	addiu	a1,a1,0
    e7c0:	24840000 	addiu	a0,a0,0
    e7c4:	24420000 	addiu	v0,v0,0
    e7c8:	ac230000 	sw	v1,0(at)
    e7cc:	ac670114 	sw	a3,276(v1)
    e7d0:	24e70170 	addiu	a3,a3,368
    e7d4:	ac65005c 	sw	a1,92(v1)
    e7d8:	ac6600b8 	sw	a2,184(v1)
    e7dc:	ac640000 	sw	a0,0(v1)
    e7e0:	24840170 	addiu	a0,a0,368
    e7e4:	24c60170 	addiu	a2,a2,368
    e7e8:	24a50170 	addiu	a1,a1,368
    e7ec:	14e2fff7 	bne	a3,v0,e7cc <func_8010DCDC_ovl2+0x80>
    e7f0:	24630170 	addiu	v1,v1,368
    e7f4:	03e00008 	jr	ra
    e7f8:	ac600000 	sw	zero,0(v1)

0000e7fc <func_8010DD8C>:
func_8010DD8C():
    e7fc:	3c020000 	lui	v0,0x0
    e800:	24420000 	addiu	v0,v0,0
    e804:	8c4e0040 	lw	t6,64(v0)
    e808:	25cf0001 	addiu	t7,t6,1
    e80c:	03e00008 	jr	ra
    e810:	ac4f0040 	sw	t7,64(v0)

0000e814 <func_8010DDA4>:
func_8010DDA4():
    e814:	3c0a0000 	lui	t2,0x0
    e818:	254a0000 	addiu	t2,t2,0
    e81c:	8d4e0000 	lw	t6,0(t2)
    e820:	27bdfff8 	addiu	sp,sp,-8
    e824:	afb00004 	sw	s0,4(sp)
    e828:	8dc30000 	lw	v1,0(t6)
    e82c:	00a08025 	move	s0,a1
    e830:	8c660038 	lw	a2,56(v1)
    e834:	10c00072 	beqz	a2,ea00 <func_8010DDA4+0x1ec>
    e838:	00c01025 	move	v0,a2
    e83c:	c4800000 	lwc1	$f0,0(a0)
    e840:	c4c40008 	lwc1	$f4,8(a2)
    e844:	4604003c 	c.lt.s	$f0,$f4
    e848:	00000000 	nop
    e84c:	4503006d 	bc1tl	ea04 <func_8010DDA4+0x1f0>
    e850:	8fb00004 	lw	s0,4(sp)
    e854:	8c65003c 	lw	a1,60(v1)
    e858:	00001825 	move	v1,zero
    e85c:	240b0018 	li	t3,24
    e860:	00057880 	sll	t7,a1,0x2
    e864:	01e57823 	subu	t7,t7,a1
    e868:	000f78c0 	sll	t7,t7,0x3
    e86c:	00cfc021 	addu	t8,a2,t7
    e870:	c706fff0 	lwc1	$f6,-16(t8)
    e874:	00a03825 	move	a3,a1
    e878:	4600303e 	c.le.s	$f6,$f0
    e87c:	00000000 	nop
    e880:	45000003 	bc1f	e890 <func_8010DDA4+0x7c>
    e884:	00000000 	nop
    e888:	1000001b 	b	e8f8 <func_8010DDA4+0xe4>
    e88c:	00a03025 	move	a2,a1
    e890:	00674021 	addu	t0,v1,a3
    e894:	00084042 	srl	t0,t0,0x1
    e898:	010b0019 	multu	t0,t3
    e89c:	01002825 	move	a1,t0
    e8a0:	0000c812 	mflo	t9
    e8a4:	00d94821 	addu	t1,a2,t9
    e8a8:	c5220008 	lwc1	$f2,8(t1)
    e8ac:	4600103e 	c.le.s	$f2,$f0
    e8b0:	00000000 	nop
    e8b4:	45020009 	bc1fl	e8dc <func_8010DDA4+0xc8>
    e8b8:	4602003c 	c.lt.s	$f0,$f2
    e8bc:	c5280020 	lwc1	$f8,32(t1)
    e8c0:	4608003c 	c.lt.s	$f0,$f8
    e8c4:	00000000 	nop
    e8c8:	45020004 	bc1fl	e8dc <func_8010DDA4+0xc8>
    e8cc:	4602003c 	c.lt.s	$f0,$f2
    e8d0:	10000009 	b	e8f8 <func_8010DDA4+0xe4>
    e8d4:	25060001 	addiu	a2,t0,1
    e8d8:	4602003c 	c.lt.s	$f0,$f2
    e8dc:	00000000 	nop
    e8e0:	45000003 	bc1f	e8f0 <func_8010DDA4+0xdc>
    e8e4:	00000000 	nop
    e8e8:	1000ffe9 	b	e890 <func_8010DDA4+0x7c>
    e8ec:	00a03825 	move	a3,a1
    e8f0:	1000ffe7 	b	e890 <func_8010DDA4+0x7c>
    e8f4:	00a01825 	move	v1,a1
    e8f8:	10c00041 	beqz	a2,ea00 <func_8010DDA4+0x1ec>
    e8fc:	00002825 	move	a1,zero
    e900:	3c0b0000 	lui	t3,0x0
    e904:	44807000 	mtc1	zero,$f14
    e908:	256b0000 	addiu	t3,t3,0
    e90c:	8d430000 	lw	v1,0(t2)
    e910:	c4800000 	lwc1	$f0,0(a0)
    e914:	c44a000c 	lwc1	$f10,12(v0)
    e918:	8c6c0000 	lw	t4,0(v1)
    e91c:	944e0002 	lhu	t6,2(v0)
    e920:	460a003e 	c.le.s	$f0,$f10
    e924:	8d8d0040 	lw	t5,64(t4)
    e928:	000e7900 	sll	t7,t6,0x4
    e92c:	24a50001 	addiu	a1,a1,1
    e930:	45000031 	bc1f	e9f8 <func_8010DDA4+0x1e4>
    e934:	01af3821 	addu	a3,t5,t7
    e938:	c4820004 	lwc1	$f2,4(a0)
    e93c:	c4500010 	lwc1	$f16,16(v0)
    e940:	4602803e 	c.le.s	$f16,$f2
    e944:	00000000 	nop
    e948:	4500002b 	bc1f	e9f8 <func_8010DDA4+0x1e4>
    e94c:	00000000 	nop
    e950:	c4520014 	lwc1	$f18,20(v0)
    e954:	4612103e 	c.le.s	$f2,$f18
    e958:	00000000 	nop
    e95c:	45000026 	bc1f	e9f8 <func_8010DDA4+0x1e4>
    e960:	00000000 	nop
    e964:	94490000 	lhu	t1,0(v0)
    e968:	00004025 	move	t0,zero
    e96c:	11200015 	beqz	t1,e9c4 <func_8010DDA4+0x1b0>
    e970:	00000000 	nop
    e974:	c48c0008 	lwc1	$f12,8(a0)
    e978:	c4e40000 	lwc1	$f4,0(a3)
    e97c:	c4e80004 	lwc1	$f8,4(a3)
    e980:	c4f20008 	lwc1	$f18,8(a3)
    e984:	46002182 	mul.s	$f6,$f4,$f0
    e988:	00000000 	nop
    e98c:	46024282 	mul.s	$f10,$f8,$f2
    e990:	460a3400 	add.s	$f16,$f6,$f10
    e994:	460c9102 	mul.s	$f4,$f18,$f12
    e998:	c4e6000c 	lwc1	$f6,12(a3)
    e99c:	46048200 	add.s	$f8,$f16,$f4
    e9a0:	46064280 	add.s	$f10,$f8,$f6
    e9a4:	460a703c 	c.lt.s	$f14,$f10
    e9a8:	00000000 	nop
    e9ac:	45010005 	bc1t	e9c4 <func_8010DDA4+0x1b0>
    e9b0:	00000000 	nop
    e9b4:	25080001 	addiu	t0,t0,1
    e9b8:	0109082b 	sltu	at,t0,t1
    e9bc:	1420ffee 	bnez	at,e978 <func_8010DDA4+0x164>
    e9c0:	24e70010 	addiu	a3,a3,16
    e9c4:	1509000c 	bne	t0,t1,e9f8 <func_8010DDA4+0x1e4>
    e9c8:	00000000 	nop
    e9cc:	8c780004 	lw	t8,4(v1)
    e9d0:	0018c880 	sll	t9,t8,0x2
    e9d4:	01796021 	addu	t4,t3,t9
    e9d8:	ad820040 	sw	v0,64(t4)
    e9dc:	8c6e0004 	lw	t6,4(v1)
    e9e0:	000e6880 	sll	t5,t6,0x2
    e9e4:	016d7821 	addu	t7,t3,t5
    e9e8:	adf0004c 	sw	s0,76(t7)
    e9ec:	8c780004 	lw	t8,4(v1)
    e9f0:	27190001 	addiu	t9,t8,1
    e9f4:	ac790004 	sw	t9,4(v1)
    e9f8:	14a6ffc4 	bne	a1,a2,e90c <func_8010DDA4+0xf8>
    e9fc:	24420018 	addiu	v0,v0,24
    ea00:	8fb00004 	lw	s0,4(sp)
    ea04:	03e00008 	jr	ra
    ea08:	27bd0008 	addiu	sp,sp,8

0000ea0c <func_8010DF9C>:
func_8010DF9C():
    ea0c:	27bdffc0 	addiu	sp,sp,-64
    ea10:	3c0e0000 	lui	t6,0x0
    ea14:	8dce0000 	lw	t6,0(t6)
    ea18:	afbf0024 	sw	ra,36(sp)
    ea1c:	afb20020 	sw	s2,32(sp)
    ea20:	27af0030 	addiu	t7,sp,48
    ea24:	3c010000 	lui	at,0x0
    ea28:	00809025 	move	s2,a0
    ea2c:	afb1001c 	sw	s1,28(sp)
    ea30:	afb00018 	sw	s0,24(sp)
    ea34:	afa00034 	sw	zero,52(sp)
    ea38:	ac2f0000 	sw	t7,0(at)
    ea3c:	24050014 	li	a1,20
    ea40:	0c000000 	jal	0 <func_800FF5E0_ovl2>
    ea44:	afae0030 	sw	t6,48(sp)
    ea48:	3c020000 	lui	v0,0x0
    ea4c:	8c420000 	lw	v0,0(v0)
    ea50:	3c100000 	lui	s0,0x0
    ea54:	26100000 	addiu	s0,s0,0
    ea58:	10400010 	beqz	v0,ea9c <func_8010DF9C+0x90>
    ea5c:	00008825 	move	s1,zero
    ea60:	92180002 	lbu	t8,2(s0)
    ea64:	02402025 	move	a0,s2
    ea68:	33190001 	andi	t9,t8,0x1
    ea6c:	57200008 	bnezl	t9,ea90 <func_8010DF9C+0x84>
    ea70:	26310001 	addiu	s1,s1,1
    ea74:	8e080004 	lw	t0,4(s0)
    ea78:	02202825 	move	a1,s1
    ea7c:	0c000000 	jal	0 <func_800FF5E0_ovl2>
    ea80:	afa80030 	sw	t0,48(sp)
    ea84:	3c020000 	lui	v0,0x0
    ea88:	8c420000 	lw	v0,0(v0)
    ea8c:	26310001 	addiu	s1,s1,1
    ea90:	0222082b 	sltu	at,s1,v0
    ea94:	1420fff2 	bnez	at,ea60 <func_8010DF9C+0x54>
    ea98:	261000b8 	addiu	s0,s0,184
    ea9c:	8fbf0024 	lw	ra,36(sp)
    eaa0:	8fa20034 	lw	v0,52(sp)
    eaa4:	8fb00018 	lw	s0,24(sp)
    eaa8:	8fb1001c 	lw	s1,28(sp)
    eaac:	8fb20020 	lw	s2,32(sp)
    eab0:	03e00008 	jr	ra
    eab4:	27bd0040 	addiu	sp,sp,64

0000eab8 <func_8010E048>:
func_8010E048():
    eab8:	27bdffb0 	addiu	sp,sp,-80
    eabc:	afbe0048 	sw	s8,72(sp)
    eac0:	afb5003c 	sw	s5,60(sp)
    eac4:	afb40038 	sw	s4,56(sp)
    eac8:	24010014 	li	at,20
    eacc:	00c0a025 	move	s4,a2
    ead0:	00e0a825 	move	s5,a3
    ead4:	0080f025 	move	s8,a0
    ead8:	afbf004c 	sw	ra,76(sp)
    eadc:	afb70044 	sw	s7,68(sp)
    eae0:	afb60040 	sw	s6,64(sp)
    eae4:	afb30034 	sw	s3,52(sp)
    eae8:	afb20030 	sw	s2,48(sp)
    eaec:	afb1002c 	sw	s1,44(sp)
    eaf0:	afb00028 	sw	s0,40(sp)
    eaf4:	f7b60020 	sdc1	$f22,32(sp)
    eaf8:	10a1000a 	beq	a1,at,eb24 <func_8010E048+0x6c>
    eafc:	f7b40018 	sdc1	$f20,24(sp)
    eb00:	00057080 	sll	t6,a1,0x2
    eb04:	01c57023 	subu	t6,t6,a1
    eb08:	000e70c0 	sll	t6,t6,0x3
    eb0c:	01c57023 	subu	t6,t6,a1
    eb10:	000e70c0 	sll	t6,t6,0x3
    eb14:	3c038013 	lui	v1,0x8013
    eb18:	006e1821 	addu	v1,v1,t6
    eb1c:	10000003 	b	eb2c <func_8010E048+0x74>
    eb20:	8c63d94c 	lw	v1,-9908(v1)
    eb24:	3c030000 	lui	v1,0x0
    eb28:	8c630000 	lw	v1,0(v1)
    eb2c:	97d80002 	lhu	t8,2(s8)
    eb30:	8c6f0040 	lw	t7,64(v1)
    eb34:	97c20000 	lhu	v0,0(s8)
    eb38:	0018c900 	sll	t9,t8,0x4
    eb3c:	01f99821 	addu	s3,t7,t9
    eb40:	0260b825 	move	s7,s3
    eb44:	10400053 	beqz	v0,ec94 <func_8010E048+0x1dc>
    eb48:	0000b025 	move	s6,zero
    eb4c:	4480b000 	mtc1	zero,$f22
    eb50:	4480a000 	mtc1	zero,$f20
    eb54:	8fb20064 	lw	s2,100(sp)
    eb58:	c6600000 	lwc1	$f0,0(s3)
    eb5c:	c6840000 	lwc1	$f4,0(s4)
    eb60:	c6620004 	lwc1	$f2,4(s3)
    eb64:	c6880004 	lwc1	$f8,4(s4)
    eb68:	46040182 	mul.s	$f6,$f0,$f4
    eb6c:	c66c0008 	lwc1	$f12,8(s3)
    eb70:	c66e000c 	lwc1	$f14,12(s3)
    eb74:	46081282 	mul.s	$f10,$f2,$f8
    eb78:	c6880008 	lwc1	$f8,8(s4)
    eb7c:	00002025 	move	a0,zero
    eb80:	00001825 	move	v1,zero
    eb84:	02802825 	move	a1,s4
    eb88:	02a03025 	move	a2,s5
    eb8c:	02403825 	move	a3,s2
    eb90:	460a3100 	add.s	$f4,$f6,$f10
    eb94:	46086182 	mul.s	$f6,$f12,$f8
    eb98:	c6a80000 	lwc1	$f8,0(s5)
    eb9c:	02e08025 	move	s0,s7
    eba0:	00008825 	move	s1,zero
    eba4:	46062280 	add.s	$f10,$f4,$f6
    eba8:	46080102 	mul.s	$f4,$f0,$f8
    ebac:	c6a60004 	lwc1	$f6,4(s5)
    ebb0:	460e5400 	add.s	$f16,$f10,$f14
    ebb4:	46061282 	mul.s	$f10,$f2,$f6
    ebb8:	c6a60008 	lwc1	$f6,8(s5)
    ebbc:	4610b03c 	c.lt.s	$f22,$f16
    ebc0:	460a2200 	add.s	$f8,$f4,$f10
    ebc4:	46066102 	mul.s	$f4,$f12,$f6
    ebc8:	46044280 	add.s	$f10,$f8,$f4
    ebcc:	45000003 	bc1f	ebdc <func_8010E048+0x124>
    ebd0:	460e5480 	add.s	$f18,$f10,$f14
    ebd4:	10000001 	b	ebdc <func_8010E048+0x124>
    ebd8:	24040001 	li	a0,1
    ebdc:	4612b03c 	c.lt.s	$f22,$f18
    ebe0:	00000000 	nop
    ebe4:	45000003 	bc1f	ebf4 <func_8010E048+0x13c>
    ebe8:	00000000 	nop
    ebec:	10000001 	b	ebf4 <func_8010E048+0x13c>
    ebf0:	24030001 	li	v1,1
    ebf4:	50830024 	beql	a0,v1,ec88 <func_8010E048+0x1d0>
    ebf8:	26d60001 	addiu	s6,s6,1
    ebfc:	0c000000 	jal	0 <func_800FF5E0_ovl2>
    ec00:	02602025 	move	a0,s3
    ec04:	97c20000 	lhu	v0,0(s8)
    ec08:	10400018 	beqz	v0,ec6c <func_8010E048+0x1b4>
    ec0c:	00000000 	nop
    ec10:	52700013 	beql	s3,s0,ec60 <func_8010E048+0x1a8>
    ec14:	26310001 	addiu	s1,s1,1
    ec18:	c6060000 	lwc1	$f6,0(s0)
    ec1c:	c6480000 	lwc1	$f8,0(s2)
    ec20:	c60a0004 	lwc1	$f10,4(s0)
    ec24:	46083102 	mul.s	$f4,$f6,$f8
    ec28:	c6460004 	lwc1	$f6,4(s2)
    ec2c:	46065202 	mul.s	$f8,$f10,$f6
    ec30:	c6060008 	lwc1	$f6,8(s0)
    ec34:	46082280 	add.s	$f10,$f4,$f8
    ec38:	c6440008 	lwc1	$f4,8(s2)
    ec3c:	46043202 	mul.s	$f8,$f6,$f4
    ec40:	c604000c 	lwc1	$f4,12(s0)
    ec44:	46085180 	add.s	$f6,$f10,$f8
    ec48:	46043280 	add.s	$f10,$f6,$f4
    ec4c:	460aa03c 	c.lt.s	$f20,$f10
    ec50:	00000000 	nop
    ec54:	45010005 	bc1t	ec6c <func_8010E048+0x1b4>
    ec58:	00000000 	nop
    ec5c:	26310001 	addiu	s1,s1,1
    ec60:	0222082b 	sltu	at,s1,v0
    ec64:	1420ffea 	bnez	at,ec10 <func_8010E048+0x158>
    ec68:	26100010 	addiu	s0,s0,16
    ec6c:	56220006 	bnel	s1,v0,ec88 <func_8010E048+0x1d0>
    ec70:	26d60001 	addiu	s6,s6,1
    ec74:	8fa80060 	lw	t0,96(sp)
    ec78:	24020001 	li	v0,1
    ec7c:	10000006 	b	ec98 <func_8010E048+0x1e0>
    ec80:	ad130000 	sw	s3,0(t0)
    ec84:	26d60001 	addiu	s6,s6,1
    ec88:	02c2082b 	sltu	at,s6,v0
    ec8c:	1420ffb2 	bnez	at,eb58 <func_8010E048+0xa0>
    ec90:	26730010 	addiu	s3,s3,16
    ec94:	00001025 	move	v0,zero
    ec98:	8fbf004c 	lw	ra,76(sp)
    ec9c:	d7b40018 	ldc1	$f20,24(sp)
    eca0:	d7b60020 	ldc1	$f22,32(sp)
    eca4:	8fb00028 	lw	s0,40(sp)
    eca8:	8fb1002c 	lw	s1,44(sp)
    ecac:	8fb20030 	lw	s2,48(sp)
    ecb0:	8fb30034 	lw	s3,52(sp)
    ecb4:	8fb40038 	lw	s4,56(sp)
    ecb8:	8fb5003c 	lw	s5,60(sp)
    ecbc:	8fb60040 	lw	s6,64(sp)
    ecc0:	8fb70044 	lw	s7,68(sp)
    ecc4:	8fbe0048 	lw	s8,72(sp)
    ecc8:	03e00008 	jr	ra
    eccc:	27bd0050 	addiu	sp,sp,80

0000ecd0 <func_8010E260>:
func_8010E260():
    ecd0:	10800002 	beqz	a0,ecdc <func_8010E260+0xc>
    ecd4:	240e0001 	li	t6,1
    ecd8:	a08e0005 	sb	t6,5(a0)
    ecdc:	03e00008 	jr	ra
    ece0:	00000000 	nop

0000ece4 <func_8010E274_ovl2>:
func_8010E274_ovl2():
    ece4:	10800002 	beqz	a0,ecf0 <func_8010E274_ovl2+0xc>
    ece8:	00000000 	nop
    ecec:	a0800005 	sb	zero,5(a0)
    ecf0:	03e00008 	jr	ra
    ecf4:	00000000 	nop

0000ecf8 <func_8010E288_ovl2>:
func_8010E288_ovl2():
    ecf8:	afa50004 	sw	a1,4(sp)
    ecfc:	10800002 	beqz	a0,ed08 <func_8010E288_ovl2+0x10>
    ed00:	30a500ff 	andi	a1,a1,0xff
    ed04:	a0850007 	sb	a1,7(a0)
    ed08:	03e00008 	jr	ra
    ed0c:	00000000 	nop

0000ed10 <func_8010E2A0_ovl2>:
func_8010E2A0_ovl2():
    ed10:	10800003 	beqz	a0,ed20 <func_8010E2A0_ovl2+0x10>
    ed14:	00001025 	move	v0,zero
    ed18:	03e00008 	jr	ra
    ed1c:	90820007 	lbu	v0,7(a0)
    ed20:	03e00008 	jr	ra
    ed24:	00000000 	nop

0000ed28 <func_8010E2B8_ovl2>:
func_8010E2B8_ovl2():
    ed28:	44856000 	mtc1	a1,$f12
    ed2c:	44867000 	mtc1	a2,$f14
    ed30:	afa7000c 	sw	a3,12(sp)
    ed34:	e48c0030 	swc1	$f12,48(a0)
    ed38:	e48e0034 	swc1	$f14,52(a0)
    ed3c:	c7a4000c 	lwc1	$f4,12(sp)
    ed40:	44800000 	mtc1	zero,$f0
    ed44:	3c013f80 	lui	at,0x3f80
    ed48:	e4840038 	swc1	$f4,56(a0)
    ed4c:	c7a60010 	lwc1	$f6,16(sp)
    ed50:	44818000 	mtc1	at,$f16
    ed54:	e4860000 	swc1	$f6,0(a0)
    ed58:	c7a80014 	lwc1	$f8,20(sp)
    ed5c:	e4880014 	swc1	$f8,20(a0)
    ed60:	c7aa0018 	lwc1	$f10,24(sp)
    ed64:	e4800004 	swc1	$f0,4(a0)
    ed68:	e4800008 	swc1	$f0,8(a0)
    ed6c:	e480000c 	swc1	$f0,12(a0)
    ed70:	e4800010 	swc1	$f0,16(a0)
    ed74:	e4800018 	swc1	$f0,24(a0)
    ed78:	e480001c 	swc1	$f0,28(a0)
    ed7c:	e4800020 	swc1	$f0,32(a0)
    ed80:	e4800024 	swc1	$f0,36(a0)
    ed84:	e480002c 	swc1	$f0,44(a0)
    ed88:	e490003c 	swc1	$f16,60(a0)
    ed8c:	03e00008 	jr	ra
    ed90:	e48a0028 	swc1	$f10,40(a0)

0000ed94 <func_8010E324>:
func_8010E324():
    ed94:	27bdff00 	addiu	sp,sp,-256
    ed98:	3c020000 	lui	v0,0x0
    ed9c:	24420000 	addiu	v0,v0,0
    eda0:	8c48000c 	lw	t0,12(v0)
    eda4:	afbf003c 	sw	ra,60(sp)
    eda8:	afb20038 	sw	s2,56(sp)
    edac:	250e0040 	addiu	t6,t0,64
    edb0:	afb10034 	sw	s1,52(sp)
    edb4:	afb00030 	sw	s0,48(sp)
    edb8:	f7b40028 	sdc1	$f20,40(sp)
    edbc:	afa40100 	sw	a0,256(sp)
    edc0:	ac4e000c 	sw	t6,12(v0)
    edc4:	afa8007c 	sw	t0,124(sp)
    edc8:	c4ae0020 	lwc1	$f14,32(a1)
    edcc:	c4ac001c 	lwc1	$f12,28(a1)
    edd0:	c4a20018 	lwc1	$f2,24(a1)
    edd4:	c4a00014 	lwc1	$f0,20(a1)
    edd8:	460e6201 	sub.s	$f8,$f12,$f14
    eddc:	3c014220 	lui	at,0x4220
    ede0:	44815000 	mtc1	at,$f10
    ede4:	46020101 	sub.s	$f4,$f0,$f2
    ede8:	44813000 	mtc1	at,$f6
    edec:	3c013f00 	lui	at,0x3f00
    edf0:	460a4483 	div.s	$f18,$f8,$f10
    edf4:	4480a000 	mtc1	zero,$f20
    edf8:	00a08825 	move	s1,a1
    edfc:	27a400c0 	addiu	a0,sp,192
    ee00:	460e6280 	add.s	$f10,$f12,$f14
    ee04:	4405a000 	mfc1	a1,$f20
    ee08:	46062403 	div.s	$f16,$f4,$f6
    ee0c:	44813000 	mtc1	at,$f6
    ee10:	e7b20018 	swc1	$f18,24(sp)
    ee14:	e7b20070 	swc1	$f18,112(sp)
    ee18:	46020100 	add.s	$f4,$f0,$f2
    ee1c:	46062202 	mul.s	$f8,$f4,$f6
    ee20:	44812000 	mtc1	at,$f4
    ee24:	3c013f80 	lui	at,0x3f80
    ee28:	44064000 	mfc1	a2,$f8
    ee2c:	44814000 	mtc1	at,$f8
    ee30:	00000000 	nop
    ee34:	e7a80010 	swc1	$f8,16(sp)
    ee38:	46045182 	mul.s	$f6,$f10,$f4
    ee3c:	e7b00014 	swc1	$f16,20(sp)
    ee40:	44073000 	mfc1	a3,$f6
    ee44:	0c000000 	jal	0 <func_800FF5E0_ovl2>
    ee48:	00000000 	nop
    ee4c:	8e250004 	lw	a1,4(s1)
    ee50:	8e260008 	lw	a2,8(s1)
    ee54:	8e27000c 	lw	a3,12(s1)
    ee58:	e7b40010 	swc1	$f20,16(sp)
    ee5c:	c62a0024 	lwc1	$f10,36(s1)
    ee60:	27b20080 	addiu	s2,sp,128
    ee64:	02402025 	move	a0,s2
    ee68:	e7b40018 	swc1	$f20,24(sp)
    ee6c:	0c000000 	jal	0 <func_800FF5E0_ovl2>
    ee70:	e7aa0014 	swc1	$f10,20(sp)
    ee74:	27a400c0 	addiu	a0,sp,192
    ee78:	02402825 	move	a1,s2
    ee7c:	0c000000 	jal	0 <func_800FF5E0_ovl2>
    ee80:	02403025 	move	a2,s2
    ee84:	02402025 	move	a0,s2
    ee88:	0c000000 	jal	0 <func_800FF5E0_ovl2>
    ee8c:	8fa5007c 	lw	a1,124(sp)
    ee90:	3c100000 	lui	s0,0x0
    ee94:	26100000 	addiu	s0,s0,0
    ee98:	8e020000 	lw	v0,0(s0)
    ee9c:	3c1fda38 	lui	ra,0xda38
    eea0:	3c0ede00 	lui	t6,0xde00
    eea4:	244f0008 	addiu	t7,v0,8
    eea8:	ae0f0000 	sw	t7,0(s0)
    eeac:	ac5f0000 	sw	ra,0(v0)
    eeb0:	8fb8007c 	lw	t8,124(sp)
    eeb4:	3c0f0000 	lui	t7,0x0
    eeb8:	25ef0000 	addiu	t7,t7,0
    eebc:	ac580004 	sw	t8,4(v0)
    eec0:	8e020000 	lw	v0,0(s0)
    eec4:	3c080000 	lui	t0,0x0
    eec8:	3c013f80 	lui	at,0x3f80
    eecc:	24590008 	addiu	t9,v0,8
    eed0:	ae190000 	sw	t9,0(s0)
    eed4:	ac4f0004 	sw	t7,4(v0)
    eed8:	ac4e0000 	sw	t6,0(v0)
    eedc:	8e030008 	lw	v1,8(s0)
    eee0:	3c0fde00 	lui	t7,0xde00
    eee4:	44810000 	mtc1	at,$f0
    eee8:	24780008 	addiu	t8,v1,8
    eeec:	ae180008 	sw	t8,8(s0)
    eef0:	ac7f0000 	sw	ra,0(v1)
    eef4:	8fb9007c 	lw	t9,124(sp)
    eef8:	3c180000 	lui	t8,0x0
    eefc:	27180000 	addiu	t8,t8,0
    ef00:	ac790004 	sw	t9,4(v1)
    ef04:	8e030008 	lw	v1,8(s0)
    ef08:	3c010000 	lui	at,0x0
    ef0c:	262d0010 	addiu	t5,s1,16
    ef10:	246e0008 	addiu	t6,v1,8
    ef14:	ae0e0008 	sw	t6,8(s0)
    ef18:	ac780004 	sw	t8,4(v1)
    ef1c:	ac6f0000 	sw	t7,0(v1)
    ef20:	8d080000 	lw	t0,0(t0)
    ef24:	4405a000 	mfc1	a1,$f20
    ef28:	4406a000 	mfc1	a2,$f20
    ef2c:	25190040 	addiu	t9,t0,64
    ef30:	ac390000 	sw	t9,0(at)
    ef34:	afa80078 	sw	t0,120(sp)
    ef38:	c5a60010 	lwc1	$f6,16(t5)
    ef3c:	c5a4000c 	lwc1	$f4,12(t5)
    ef40:	3c013f00 	lui	at,0x3f00
    ef44:	44815000 	mtc1	at,$f10
    ef48:	46062200 	add.s	$f8,$f4,$f6
    ef4c:	c7a60070 	lwc1	$f6,112(sp)
    ef50:	afad0050 	sw	t5,80(sp)
    ef54:	27a400c0 	addiu	a0,sp,192
    ef58:	460a4102 	mul.s	$f4,$f8,$f10
    ef5c:	e7a00014 	swc1	$f0,20(sp)
    ef60:	e7a00010 	swc1	$f0,16(sp)
    ef64:	e7a60018 	swc1	$f6,24(sp)
    ef68:	44072000 	mfc1	a3,$f4
    ef6c:	0c000000 	jal	0 <func_800FF5E0_ovl2>
    ef70:	00000000 	nop
    ef74:	8fad0050 	lw	t5,80(sp)
    ef78:	c6280008 	lwc1	$f8,8(s1)
    ef7c:	8e250004 	lw	a1,4(s1)
    ef80:	c5aa0000 	lwc1	$f10,0(t5)
    ef84:	8e27000c 	lw	a3,12(s1)
    ef88:	e7b40010 	swc1	$f20,16(sp)
    ef8c:	460a4100 	add.s	$f4,$f8,$f10
    ef90:	c6260024 	lwc1	$f6,36(s1)
    ef94:	e7b40018 	swc1	$f20,24(sp)
    ef98:	02402025 	move	a0,s2
    ef9c:	44062000 	mfc1	a2,$f4
    efa0:	0c000000 	jal	0 <func_800FF5E0_ovl2>
    efa4:	e7a60014 	swc1	$f6,20(sp)
    efa8:	27a400c0 	addiu	a0,sp,192
    efac:	02402825 	move	a1,s2
    efb0:	0c000000 	jal	0 <func_800FF5E0_ovl2>
    efb4:	02403025 	move	a2,s2
    efb8:	02402025 	move	a0,s2
    efbc:	0c000000 	jal	0 <func_800FF5E0_ovl2>
    efc0:	8fa50078 	lw	a1,120(sp)
    efc4:	8e030008 	lw	v1,8(s0)
    efc8:	3c0fda38 	lui	t7,0xda38
    efcc:	246e0008 	addiu	t6,v1,8
    efd0:	ae0e0008 	sw	t6,8(s0)
    efd4:	ac6f0000 	sw	t7,0(v1)
    efd8:	8fb80078 	lw	t8,120(sp)
    efdc:	3c0f0000 	lui	t7,0x0
    efe0:	25ef0000 	addiu	t7,t7,0
    efe4:	ac780004 	sw	t8,4(v1)
    efe8:	8e030008 	lw	v1,8(s0)
    efec:	3c0ede00 	lui	t6,0xde00
    eff0:	24790008 	addiu	t9,v1,8
    eff4:	ae190008 	sw	t9,8(s0)
    eff8:	ac6f0004 	sw	t7,4(v1)
    effc:	ac6e0000 	sw	t6,0(v1)
    f000:	8fbf003c 	lw	ra,60(sp)
    f004:	8fb20038 	lw	s2,56(sp)
    f008:	8fb10034 	lw	s1,52(sp)
    f00c:	8fb00030 	lw	s0,48(sp)
    f010:	d7b40028 	ldc1	$f20,40(sp)
    f014:	03e00008 	jr	ra
    f018:	27bd0100 	addiu	sp,sp,256
    f01c:	00000000 	nop

0000f020 <func_8010E5B0_ovl2>:
func_8010E5B0_ovl2():
    f020:	27bdffc0 	addiu	sp,sp,-64
    f024:	afbe0038 	sw	s8,56(sp)
    f028:	afb70034 	sw	s7,52(sp)
    f02c:	afb60030 	sw	s6,48(sp)
    f030:	afb5002c 	sw	s5,44(sp)
    f034:	afb40028 	sw	s4,40(sp)
    f038:	afb1001c 	sw	s1,28(sp)
    f03c:	00a08825 	move	s1,a1
    f040:	00e0a025 	move	s4,a3
    f044:	00c0b825 	move	s7,a2
    f048:	0080f025 	move	s8,a0
    f04c:	afbf003c 	sw	ra,60(sp)
    f050:	afb30024 	sw	s3,36(sp)
    f054:	afb20020 	sw	s2,32(sp)
    f058:	afb00018 	sw	s0,24(sp)
    f05c:	24150030 	li	s5,48
    f060:	24160001 	li	s6,1
    f064:	8e830000 	lw	v1,0(s4)
    f068:	00008025 	move	s0,zero
    f06c:	18600009 	blez	v1,f094 <func_8010E5B0_ovl2+0x74>
    f070:	00000000 	nop
    f074:	8e820008 	lw	v0,8(s4)
    f078:	8c4e0000 	lw	t6,0(v0)
    f07c:	122e0005 	beq	s1,t6,f094 <func_8010E5B0_ovl2+0x74>
    f080:	00000000 	nop
    f084:	26100001 	addiu	s0,s0,1
    f088:	0203082a 	slt	at,s0,v1
    f08c:	1420fffa 	bnez	at,f078 <func_8010E5B0_ovl2+0x58>
    f090:	24420004 	addiu	v0,v0,4
    f094:	1603001b 	bne	s0,v1,f104 <func_8010E5B0_ovl2+0xe4>
    f098:	00000000 	nop
    f09c:	8e8f0004 	lw	t7,4(s4)
    f0a0:	00109880 	sll	s3,s0,0x2
    f0a4:	02e02025 	move	a0,s7
    f0a8:	160f0003 	bne	s0,t7,f0b8 <func_8010E5B0_ovl2+0x98>
    f0ac:	00000000 	nop
    f0b0:	2610ffff 	addiu	s0,s0,-1
    f0b4:	2673fffc 	addiu	s3,s3,-4
    f0b8:	02150019 	multu	s0,s5
    f0bc:	8e98000c 	lw	t8,12(s4)
    f0c0:	8e280014 	lw	t0,20(s1)
    f0c4:	0000c812 	mflo	t9
    f0c8:	03199021 	addu	s2,t8,t9
    f0cc:	12c80005 	beq	s6,t0,f0e4 <func_8010E5B0_ovl2+0xc4>
    f0d0:	02402825 	move	a1,s2
    f0d4:	0c000000 	jal	0 <func_800FF5E0_ovl2>
    f0d8:	02202025 	move	a0,s1
    f0dc:	10000004 	b	f0f0 <func_8010E5B0_ovl2+0xd0>
    f0e0:	8e890008 	lw	t1,8(s4)
    f0e4:	0c000000 	jal	0 <func_800FF5E0_ovl2>
    f0e8:	02402825 	move	a1,s2
    f0ec:	8e890008 	lw	t1,8(s4)
    f0f0:	260b0001 	addiu	t3,s0,1
    f0f4:	01335021 	addu	t2,t1,s3
    f0f8:	ad510000 	sw	s1,0(t2)
    f0fc:	10000006 	b	f118 <func_8010E5B0_ovl2+0xf8>
    f100:	ae8b0000 	sw	t3,0(s4)
    f104:	02150019 	multu	s0,s5
    f108:	8e8c000c 	lw	t4,12(s4)
    f10c:	00006812 	mflo	t5
    f110:	018d9021 	addu	s2,t4,t5
    f114:	00000000 	nop
    f118:	02402025 	move	a0,s2
    f11c:	0c000000 	jal	0 <func_800FF5E0_ovl2>
    f120:	03c02825 	move	a1,s8
    f124:	8e310014 	lw	s1,20(s1)
    f128:	5636ffcf 	bnel	s1,s6,f068 <func_8010E5B0_ovl2+0x48>
    f12c:	8e830000 	lw	v1,0(s4)
    f130:	8fbf003c 	lw	ra,60(sp)
    f134:	8fb00018 	lw	s0,24(sp)
    f138:	8fb1001c 	lw	s1,28(sp)
    f13c:	8fb20020 	lw	s2,32(sp)
    f140:	8fb30024 	lw	s3,36(sp)
    f144:	8fb40028 	lw	s4,40(sp)
    f148:	8fb5002c 	lw	s5,44(sp)
    f14c:	8fb60030 	lw	s6,48(sp)
    f150:	8fb70034 	lw	s7,52(sp)
    f154:	8fbe0038 	lw	s8,56(sp)
    f158:	03e00008 	jr	ra
    f15c:	27bd0040 	addiu	sp,sp,64

0000f160 <func_8010E6F0>:
func_8010E6F0():
    f160:	00051080 	sll	v0,a1,0x2
    f164:	3c01800e 	lui	at,0x800e
    f168:	00220821 	addu	at,at,v0
    f16c:	c42625d0 	lwc1	$f6,9680(at)
    f170:	c4840000 	lwc1	$f4,0(a0)
    f174:	3c01800e 	lui	at,0x800e
    f178:	00220821 	addu	at,at,v0
    f17c:	46062200 	add.s	$f8,$f4,$f6
    f180:	c48a0004 	lwc1	$f10,4(a0)
    f184:	c4840008 	lwc1	$f4,8(a0)
    f188:	e4880000 	swc1	$f8,0(a0)
    f18c:	c4302790 	lwc1	$f16,10128(at)
    f190:	3c01800e 	lui	at,0x800e
    f194:	00220821 	addu	at,at,v0
    f198:	46105480 	add.s	$f18,$f10,$f16
    f19c:	e4920004 	swc1	$f18,4(a0)
    f1a0:	c4262950 	lwc1	$f6,10576(at)
    f1a4:	46062200 	add.s	$f8,$f4,$f6
    f1a8:	03e00008 	jr	ra
    f1ac:	e4880008 	swc1	$f8,8(a0)

0000f1b0 <func_8010E740>:
func_8010E740():
    f1b0:	27bdffd8 	addiu	sp,sp,-40
    f1b4:	afbf001c 	sw	ra,28(sp)
    f1b8:	afb00018 	sw	s0,24(sp)
    f1bc:	8c830008 	lw	v1,8(a0)
    f1c0:	2401ffff 	li	at,-1
    f1c4:	00808025 	move	s0,a0
    f1c8:	00a03025 	move	a2,a1
    f1cc:	1461000b 	bne	v1,at,f1fc <func_8010E740+0x4c>
    f1d0:	00601025 	move	v0,v1
    f1d4:	90820004 	lbu	v0,4(a0)
    f1d8:	24010001 	li	at,1
    f1dc:	5040005a 	beqzl	v0,f348 <func_8010E740+0x198>
    f1e0:	24080001 	li	t0,1
    f1e4:	10410057 	beq	v0,at,f344 <func_8010E740+0x194>
    f1e8:	24010002 	li	at,2
    f1ec:	50410056 	beql	v0,at,f348 <func_8010E740+0x198>
    f1f0:	24080001 	li	t0,1
    f1f4:	10000054 	b	f348 <func_8010E740+0x198>
    f1f8:	24080001 	li	t0,1
    f1fc:	2401fffe 	li	at,-2
    f200:	1441001d 	bne	v0,at,f278 <func_8010E740+0xc8>
    f204:	3c180000 	lui	t8,0x0
    f208:	92020004 	lbu	v0,4(s0)
    f20c:	24010001 	li	at,1
    f210:	2604000c 	addiu	a0,s0,12
    f214:	10400008 	beqz	v0,f238 <func_8010E740+0x88>
    f218:	00000000 	nop
    f21c:	1041000a 	beq	v0,at,f248 <func_8010E740+0x98>
    f220:	2604000c 	addiu	a0,s0,12
    f224:	24010002 	li	at,2
    f228:	1041000b 	beq	v0,at,f258 <func_8010E740+0xa8>
    f22c:	2604000c 	addiu	a0,s0,12
    f230:	10000045 	b	f348 <func_8010E740+0x198>
    f234:	24080001 	li	t0,1
    f238:	0c000000 	jal	0 <func_800FF5E0_ovl2>
    f23c:	00c02825 	move	a1,a2
    f240:	10000041 	b	f348 <func_8010E740+0x198>
    f244:	24080001 	li	t0,1
    f248:	0c000000 	jal	0 <func_800FF5E0_ovl2>
    f24c:	00c02825 	move	a1,a2
    f250:	1000003d 	b	f348 <func_8010E740+0x198>
    f254:	24080001 	li	t0,1
    f258:	00c02825 	move	a1,a2
    f25c:	0c000000 	jal	0 <func_800FF5E0_ovl2>
    f260:	afa6002c 	sw	a2,44(sp)
    f264:	8fa5002c 	lw	a1,44(sp)
    f268:	0c000000 	jal	0 <func_800FF5E0_ovl2>
    f26c:	26040018 	addiu	a0,s0,24
    f270:	10000035 	b	f348 <func_8010E740+0x198>
    f274:	24080001 	li	t0,1
    f278:	2401fffd 	li	at,-3
    f27c:	14410007 	bne	v0,at,f29c <func_8010E740+0xec>
    f280:	00602825 	move	a1,v1
    f284:	00067080 	sll	t6,a2,0x2
    f288:	3c0f800e 	lui	t7,0x800e
    f28c:	01ee7821 	addu	t7,t7,t6
    f290:	8defe350 	lw	t7,-7344(t7)
    f294:	10000001 	b	f29c <func_8010E740+0xec>
    f298:	8de5003c 	lw	a1,60(t7)
    f29c:	8f180000 	lw	t8,0(t8)
    f2a0:	3c070000 	lui	a3,0x0
    f2a4:	3c190000 	lui	t9,0x0
    f2a8:	14d80003 	bne	a2,t8,f2b8 <func_8010E740+0x108>
    f2ac:	24010001 	li	at,1
    f2b0:	1000000a 	b	f2dc <func_8010E740+0x12c>
    f2b4:	24e70000 	addiu	a3,a3,0
    f2b8:	8f390000 	lw	t9,0(t9)
    f2bc:	3c028012 	lui	v0,0x8012
    f2c0:	24474990 	addiu	a3,v0,18832
    f2c4:	54d90005 	bnel	a2,t9,f2dc <func_8010E740+0x12c>
    f2c8:	ace00000 	sw	zero,0(a3)
    f2cc:	3c070000 	lui	a3,0x0
    f2d0:	10000002 	b	f2dc <func_8010E740+0x12c>
    f2d4:	24e70000 	addiu	a3,a3,0
    f2d8:	ace00000 	sw	zero,0(a3)
    f2dc:	92020004 	lbu	v0,4(s0)
    f2e0:	10400007 	beqz	v0,f300 <func_8010E740+0x150>
    f2e4:	00000000 	nop
    f2e8:	10410009 	beq	v0,at,f310 <func_8010E740+0x160>
    f2ec:	24010002 	li	at,2
    f2f0:	1041000b 	beq	v0,at,f320 <func_8010E740+0x170>
    f2f4:	2604000c 	addiu	a0,s0,12
    f2f8:	10000013 	b	f348 <func_8010E740+0x198>
    f2fc:	24080001 	li	t0,1
    f300:	0c000000 	jal	0 <func_800FF5E0_ovl2>
    f304:	2604000c 	addiu	a0,s0,12
    f308:	1000000f 	b	f348 <func_8010E740+0x198>
    f30c:	24080001 	li	t0,1
    f310:	0c000000 	jal	0 <func_800FF5E0_ovl2>
    f314:	2604000c 	addiu	a0,s0,12
    f318:	1000000b 	b	f348 <func_8010E740+0x198>
    f31c:	24080001 	li	t0,1
    f320:	afa50024 	sw	a1,36(sp)
    f324:	afa6002c 	sw	a2,44(sp)
    f328:	0c000000 	jal	0 <func_800FF5E0_ovl2>
    f32c:	afa70020 	sw	a3,32(sp)
    f330:	8fa50024 	lw	a1,36(sp)
    f334:	8fa6002c 	lw	a2,44(sp)
    f338:	8fa70020 	lw	a3,32(sp)
    f33c:	0c000000 	jal	0 <func_800FF5E0_ovl2>
    f340:	26040018 	addiu	a0,s0,24
    f344:	24080001 	li	t0,1
    f348:	a2080000 	sb	t0,0(s0)
    f34c:	8fbf001c 	lw	ra,28(sp)
    f350:	8fb00018 	lw	s0,24(sp)
    f354:	27bd0028 	addiu	sp,sp,40
    f358:	03e00008 	jr	ra
    f35c:	00000000 	nop

0000f360 <func_8010E8F0_ovl2>:
func_8010E8F0_ovl2():
    f360:	44856000 	mtc1	a1,$f12
    f364:	44877000 	mtc1	a3,$f14
    f368:	c4d20000 	lwc1	$f18,0(a2)
    f36c:	c4840000 	lwc1	$f4,0(a0)
    f370:	460e6080 	add.s	$f2,$f12,$f14
    f374:	46122401 	sub.s	$f16,$f4,$f18
    f378:	4610103c 	c.lt.s	$f2,$f16
    f37c:	00000000 	nop
    f380:	45010006 	bc1t	f39c <func_8010E8F0_ovl2+0x3c>
    f384:	00000000 	nop
    f388:	46001007 	neg.s	$f0,$f2
    f38c:	4600803c 	c.lt.s	$f16,$f0
    f390:	00000000 	nop
    f394:	45020004 	bc1fl	f3a8 <func_8010E8F0_ovl2+0x48>
    f398:	c4860004 	lwc1	$f6,4(a0)
    f39c:	03e00008 	jr	ra
    f3a0:	00001025 	move	v0,zero
    f3a4:	c4860004 	lwc1	$f6,4(a0)
    f3a8:	c4c80004 	lwc1	$f8,4(a2)
    f3ac:	46083301 	sub.s	$f12,$f6,$f8
    f3b0:	460c103c 	c.lt.s	$f2,$f12
    f3b4:	00000000 	nop
    f3b8:	45010005 	bc1t	f3d0 <func_8010E8F0_ovl2+0x70>
    f3bc:	00000000 	nop
    f3c0:	4600603c 	c.lt.s	$f12,$f0
    f3c4:	00000000 	nop
    f3c8:	45020004 	bc1fl	f3dc <func_8010E8F0_ovl2+0x7c>
    f3cc:	c48a0008 	lwc1	$f10,8(a0)
    f3d0:	03e00008 	jr	ra
    f3d4:	00001025 	move	v0,zero
    f3d8:	c48a0008 	lwc1	$f10,8(a0)
    f3dc:	c4c40008 	lwc1	$f4,8(a2)
    f3e0:	46045381 	sub.s	$f14,$f10,$f4
    f3e4:	460e103c 	c.lt.s	$f2,$f14
    f3e8:	00000000 	nop
    f3ec:	45010005 	bc1t	f404 <func_8010E8F0_ovl2+0xa4>
    f3f0:	00000000 	nop
    f3f4:	4600703c 	c.lt.s	$f14,$f0
    f3f8:	00000000 	nop
    f3fc:	45000003 	bc1f	f40c <func_8010E8F0_ovl2+0xac>
    f400:	00000000 	nop
    f404:	03e00008 	jr	ra
    f408:	00001025 	move	v0,zero
    f40c:	46021002 	mul.s	$f0,$f2,$f2
    f410:	00001025 	move	v0,zero
    f414:	46108182 	mul.s	$f6,$f16,$f16
    f418:	00000000 	nop
    f41c:	460c6202 	mul.s	$f8,$f12,$f12
    f420:	46083280 	add.s	$f10,$f6,$f8
    f424:	460e7102 	mul.s	$f4,$f14,$f14
    f428:	46045180 	add.s	$f6,$f10,$f4
    f42c:	4600303e 	c.le.s	$f6,$f0
    f430:	00000000 	nop
    f434:	45000014 	bc1f	f488 <func_8010E8F0_ovl2+0x128>
    f438:	00000000 	nop
    f43c:	8fa20010 	lw	v0,16(sp)
    f440:	3c013f00 	lui	at,0x3f00
    f444:	1040000e 	beqz	v0,f480 <func_8010E8F0_ovl2+0x120>
    f448:	00000000 	nop
    f44c:	44810000 	mtc1	at,$f0
    f450:	00000000 	nop
    f454:	46008202 	mul.s	$f8,$f16,$f0
    f458:	46124280 	add.s	$f10,$f8,$f18
    f45c:	46006102 	mul.s	$f4,$f12,$f0
    f460:	e44a0000 	swc1	$f10,0(v0)
    f464:	c4c60004 	lwc1	$f6,4(a2)
    f468:	46007282 	mul.s	$f10,$f14,$f0
    f46c:	46062200 	add.s	$f8,$f4,$f6
    f470:	e4480004 	swc1	$f8,4(v0)
    f474:	c4c40008 	lwc1	$f4,8(a2)
    f478:	46045180 	add.s	$f6,$f10,$f4
    f47c:	e4460008 	swc1	$f6,8(v0)
    f480:	03e00008 	jr	ra
    f484:	24020001 	li	v0,1
    f488:	03e00008 	jr	ra
    f48c:	00000000 	nop

0000f490 <func_8010EA20_ovl2>:
func_8010EA20_ovl2():
    f490:	27bdffe0 	addiu	sp,sp,-32
    f494:	afa50024 	sw	a1,36(sp)
    f498:	8faf0024 	lw	t7,36(sp)
    f49c:	afa60028 	sw	a2,40(sp)
    f4a0:	afbf001c 	sw	ra,28(sp)
    f4a4:	afa40020 	sw	a0,32(sp)
    f4a8:	8fb80028 	lw	t8,40(sp)
    f4ac:	00807025 	move	t6,a0
    f4b0:	8dc50018 	lw	a1,24(t6)
    f4b4:	8de70018 	lw	a3,24(t7)
    f4b8:	2484000c 	addiu	a0,a0,12
    f4bc:	25e6000c 	addiu	a2,t7,12
    f4c0:	0c000000 	jal	0 <func_800FF5E0_ovl2>
    f4c4:	afb80010 	sw	t8,16(sp)
    f4c8:	8fbf001c 	lw	ra,28(sp)
    f4cc:	27bd0020 	addiu	sp,sp,32
    f4d0:	03e00008 	jr	ra
    f4d4:	00000000 	nop

0000f4d8 <func_8010EA68_ovl2>:
func_8010EA68_ovl2():
    f4d8:	27bdff70 	addiu	sp,sp,-144
    f4dc:	afbf001c 	sw	ra,28(sp)
    f4e0:	afa40090 	sw	a0,144(sp)
    f4e4:	afa50094 	sw	a1,148(sp)
    f4e8:	afa60098 	sw	a2,152(sp)
    f4ec:	c4840018 	lwc1	$f4,24(a0)
    f4f0:	e7a40050 	swc1	$f4,80(sp)
    f4f4:	c4a60024 	lwc1	$f6,36(a1)
    f4f8:	e7a6004c 	swc1	$f6,76(sp)
    f4fc:	c4a8000c 	lwc1	$f8,12(a1)
    f500:	46062000 	add.s	$f0,$f4,$f6
    f504:	e7a80048 	swc1	$f8,72(sp)
    f508:	c4aa0018 	lwc1	$f10,24(a1)
    f50c:	460a403c 	c.lt.s	$f8,$f10
    f510:	e7aa0044 	swc1	$f10,68(sp)
    f514:	c7a60044 	lwc1	$f6,68(sp)
    f518:	4502000f 	bc1fl	f558 <func_8010EA68_ovl2+0x80>
    f51c:	8fb80090 	lw	t8,144(sp)
    f520:	46004181 	sub.s	$f6,$f8,$f0
    f524:	c484000c 	lwc1	$f4,12(a0)
    f528:	4606203c 	c.lt.s	$f4,$f6
    f52c:	e7a40040 	swc1	$f4,64(sp)
    f530:	45010006 	bc1t	f54c <func_8010EA68_ovl2+0x74>
    f534:	00000000 	nop
    f538:	46005200 	add.s	$f8,$f10,$f0
    f53c:	4604403c 	c.lt.s	$f8,$f4
    f540:	00000000 	nop
    f544:	45020014 	bc1fl	f598 <func_8010EA68_ovl2+0xc0>
    f548:	8fb90094 	lw	t9,148(sp)
    f54c:	100000cd 	b	f884 <func_8010EA68_ovl2+0x3ac>
    f550:	00001025 	move	v0,zero
    f554:	8fb80090 	lw	t8,144(sp)
    f558:	46003281 	sub.s	$f10,$f6,$f0
    f55c:	c702000c 	lwc1	$f2,12(t8)
    f560:	460a103c 	c.lt.s	$f2,$f10
    f564:	00000000 	nop
    f568:	45010008 	bc1t	f58c <func_8010EA68_ovl2+0xb4>
    f56c:	00000000 	nop
    f570:	c7a80048 	lwc1	$f8,72(sp)
    f574:	e7a20040 	swc1	$f2,64(sp)
    f578:	46004100 	add.s	$f4,$f8,$f0
    f57c:	4602203c 	c.lt.s	$f4,$f2
    f580:	00000000 	nop
    f584:	45020004 	bc1fl	f598 <func_8010EA68_ovl2+0xc0>
    f588:	8fb90094 	lw	t9,148(sp)
    f58c:	100000bd 	b	f884 <func_8010EA68_ovl2+0x3ac>
    f590:	00001025 	move	v0,zero
    f594:	8fb90094 	lw	t9,148(sp)
    f598:	8fa80090 	lw	t0,144(sp)
    f59c:	c7300010 	lwc1	$f16,16(t9)
    f5a0:	c726001c 	lwc1	$f6,28(t9)
    f5a4:	4606803c 	c.lt.s	$f16,$f6
    f5a8:	e7a60038 	swc1	$f6,56(sp)
    f5ac:	c7a40038 	lwc1	$f4,56(sp)
    f5b0:	4502000f 	bc1fl	f5f0 <func_8010EA68_ovl2+0x118>
    f5b4:	8fa90090 	lw	t1,144(sp)
    f5b8:	46008281 	sub.s	$f10,$f16,$f0
    f5bc:	c5120010 	lwc1	$f18,16(t0)
    f5c0:	460a903c 	c.lt.s	$f18,$f10
    f5c4:	00000000 	nop
    f5c8:	45010006 	bc1t	f5e4 <func_8010EA68_ovl2+0x10c>
    f5cc:	00000000 	nop
    f5d0:	46003200 	add.s	$f8,$f6,$f0
    f5d4:	4612403c 	c.lt.s	$f8,$f18
    f5d8:	00000000 	nop
    f5dc:	45020012 	bc1fl	f628 <func_8010EA68_ovl2+0x150>
    f5e0:	8faa0094 	lw	t2,148(sp)
    f5e4:	100000a7 	b	f884 <func_8010EA68_ovl2+0x3ac>
    f5e8:	00001025 	move	v0,zero
    f5ec:	8fa90090 	lw	t1,144(sp)
    f5f0:	46002281 	sub.s	$f10,$f4,$f0
    f5f4:	c5320010 	lwc1	$f18,16(t1)
    f5f8:	460a903c 	c.lt.s	$f18,$f10
    f5fc:	00000000 	nop
    f600:	45010006 	bc1t	f61c <func_8010EA68_ovl2+0x144>
    f604:	00000000 	nop
    f608:	46008180 	add.s	$f6,$f16,$f0
    f60c:	4612303c 	c.lt.s	$f6,$f18
    f610:	00000000 	nop
    f614:	45020004 	bc1fl	f628 <func_8010EA68_ovl2+0x150>
    f618:	8faa0094 	lw	t2,148(sp)
    f61c:	10000099 	b	f884 <func_8010EA68_ovl2+0x3ac>
    f620:	00001025 	move	v0,zero
    f624:	8faa0094 	lw	t2,148(sp)
    f628:	8fab0090 	lw	t3,144(sp)
    f62c:	8fac0090 	lw	t4,144(sp)
    f630:	c54c0014 	lwc1	$f12,20(t2)
    f634:	c54e0020 	lwc1	$f14,32(t2)
    f638:	460e603c 	c.lt.s	$f12,$f14
    f63c:	00000000 	nop
    f640:	45020011 	bc1fl	f688 <func_8010EA68_ovl2+0x1b0>
    f644:	46007281 	sub.s	$f10,$f14,$f0
    f648:	46006201 	sub.s	$f8,$f12,$f0
    f64c:	c5620014 	lwc1	$f2,20(t3)
    f650:	4608103c 	c.lt.s	$f2,$f8
    f654:	00000000 	nop
    f658:	45010006 	bc1t	f674 <func_8010EA68_ovl2+0x19c>
    f65c:	00000000 	nop
    f660:	46007100 	add.s	$f4,$f14,$f0
    f664:	4602203c 	c.lt.s	$f4,$f2
    f668:	00000000 	nop
    f66c:	45000003 	bc1f	f67c <func_8010EA68_ovl2+0x1a4>
    f670:	00000000 	nop
    f674:	10000083 	b	f884 <func_8010EA68_ovl2+0x3ac>
    f678:	00001025 	move	v0,zero
    f67c:	1000000f 	b	f6bc <func_8010EA68_ovl2+0x1e4>
    f680:	e7b0003c 	swc1	$f16,60(sp)
    f684:	46007281 	sub.s	$f10,$f14,$f0
    f688:	c5820014 	lwc1	$f2,20(t4)
    f68c:	460a103c 	c.lt.s	$f2,$f10
    f690:	00000000 	nop
    f694:	45010007 	bc1t	f6b4 <func_8010EA68_ovl2+0x1dc>
    f698:	00000000 	nop
    f69c:	46006180 	add.s	$f6,$f12,$f0
    f6a0:	e7b0003c 	swc1	$f16,60(sp)
    f6a4:	4602303c 	c.lt.s	$f6,$f2
    f6a8:	00000000 	nop
    f6ac:	45020004 	bc1fl	f6c0 <func_8010EA68_ovl2+0x1e8>
    f6b0:	c7a80044 	lwc1	$f8,68(sp)
    f6b4:	10000073 	b	f884 <func_8010EA68_ovl2+0x3ac>
    f6b8:	00001025 	move	v0,zero
    f6bc:	c7a80044 	lwc1	$f8,68(sp)
    f6c0:	c7a40048 	lwc1	$f4,72(sp)
    f6c4:	c7aa0038 	lwc1	$f10,56(sp)
    f6c8:	c7a6003c 	lwc1	$f6,60(sp)
    f6cc:	46044401 	sub.s	$f16,$f8,$f4
    f6d0:	8fa40090 	lw	a0,144(sp)
    f6d4:	8fa60094 	lw	a2,148(sp)
    f6d8:	46065201 	sub.s	$f8,$f10,$f6
    f6dc:	e7b0008c 	swc1	$f16,140(sp)
    f6e0:	8fa50050 	lw	a1,80(sp)
    f6e4:	460c7101 	sub.s	$f4,$f14,$f12
    f6e8:	46084282 	mul.s	$f10,$f8,$f8
    f6ec:	e7a80088 	swc1	$f8,136(sp)
    f6f0:	8fad0098 	lw	t5,152(sp)
    f6f4:	46108182 	mul.s	$f6,$f16,$f16
    f6f8:	e7a40084 	swc1	$f4,132(sp)
    f6fc:	c7a80084 	lwc1	$f8,132(sp)
    f700:	2484000c 	addiu	a0,a0,12
    f704:	24c6000c 	addiu	a2,a2,12
    f708:	460a3100 	add.s	$f4,$f6,$f10
    f70c:	46084182 	mul.s	$f6,$f8,$f8
    f710:	44804000 	mtc1	zero,$f8
    f714:	46062280 	add.s	$f10,$f4,$f6
    f718:	c7a60040 	lwc1	$f6,64(sp)
    f71c:	c7a40048 	lwc1	$f4,72(sp)
    f720:	460a4032 	c.eq.s	$f8,$f10
    f724:	e7aa0024 	swc1	$f10,36(sp)
    f728:	45020007 	bc1fl	f748 <func_8010EA68_ovl2+0x270>
    f72c:	c7aa003c 	lwc1	$f10,60(sp)
    f730:	8fa7004c 	lw	a3,76(sp)
    f734:	0c000000 	jal	0 <func_800FF5E0_ovl2>
    f738:	afad0010 	sw	t5,16(sp)
    f73c:	10000052 	b	f888 <func_8010EA68_ovl2+0x3b0>
    f740:	8fbf001c 	lw	ra,28(sp)
    f744:	c7aa003c 	lwc1	$f10,60(sp)
    f748:	46062201 	sub.s	$f8,$f4,$f6
    f74c:	3c013f80 	lui	at,0x3f80
    f750:	8faf0098 	lw	t7,152(sp)
    f754:	46026181 	sub.s	$f6,$f12,$f2
    f758:	e7a80078 	swc1	$f8,120(sp)
    f75c:	00001025 	move	v0,zero
    f760:	46125101 	sub.s	$f4,$f10,$f18
    f764:	c7aa008c 	lwc1	$f10,140(sp)
    f768:	e7a60070 	swc1	$f6,112(sp)
    f76c:	46085182 	mul.s	$f6,$f10,$f8
    f770:	c7aa0088 	lwc1	$f10,136(sp)
    f774:	e7a40074 	swc1	$f4,116(sp)
    f778:	46045202 	mul.s	$f8,$f10,$f4
    f77c:	c7a40084 	lwc1	$f4,132(sp)
    f780:	46083280 	add.s	$f10,$f6,$f8
    f784:	c7a60070 	lwc1	$f6,112(sp)
    f788:	46062202 	mul.s	$f8,$f4,$f6
    f78c:	46085100 	add.s	$f4,$f10,$f8
    f790:	c7aa0024 	lwc1	$f10,36(sp)
    f794:	44804000 	mtc1	zero,$f8
    f798:	46002187 	neg.s	$f6,$f4
    f79c:	c7a4008c 	lwc1	$f4,140(sp)
    f7a0:	460a3403 	div.s	$f16,$f6,$f10
    f7a4:	4608803c 	c.lt.s	$f16,$f8
    f7a8:	46008386 	mov.s	$f14,$f16
    f7ac:	45020005 	bc1fl	f7c4 <func_8010EA68_ovl2+0x2ec>
    f7b0:	44811000 	mtc1	at,$f2
    f7b4:	44807000 	mtc1	zero,$f14
    f7b8:	10000008 	b	f7dc <func_8010EA68_ovl2+0x304>
    f7bc:	00000000 	nop
    f7c0:	44811000 	mtc1	at,$f2
    f7c4:	00000000 	nop
    f7c8:	4610103c 	c.lt.s	$f2,$f16
    f7cc:	00000000 	nop
    f7d0:	45000002 	bc1f	f7dc <func_8010EA68_ovl2+0x304>
    f7d4:	00000000 	nop
    f7d8:	46001386 	mov.s	$f14,$f2
    f7dc:	46000002 	mul.s	$f0,$f0,$f0
    f7e0:	c7a80088 	lwc1	$f8,136(sp)
    f7e4:	c7aa0078 	lwc1	$f10,120(sp)
    f7e8:	460e2182 	mul.s	$f6,$f4,$f14
    f7ec:	460a3080 	add.s	$f2,$f6,$f10
    f7f0:	460e4102 	mul.s	$f4,$f8,$f14
    f7f4:	c7aa0084 	lwc1	$f10,132(sp)
    f7f8:	c7a60074 	lwc1	$f6,116(sp)
    f7fc:	460e5202 	mul.s	$f8,$f10,$f14
    f800:	46062300 	add.s	$f12,$f4,$f6
    f804:	46021182 	mul.s	$f6,$f2,$f2
    f808:	c7a40070 	lwc1	$f4,112(sp)
    f80c:	460c6282 	mul.s	$f10,$f12,$f12
    f810:	46044400 	add.s	$f16,$f8,$f4
    f814:	46108102 	mul.s	$f4,$f16,$f16
    f818:	460a3200 	add.s	$f8,$f6,$f10
    f81c:	46044180 	add.s	$f6,$f8,$f4
    f820:	4600303e 	c.le.s	$f6,$f0
    f824:	00000000 	nop
    f828:	45000016 	bc1f	f884 <func_8010EA68_ovl2+0x3ac>
    f82c:	00000000 	nop
    f830:	11e00012 	beqz	t7,f87c <func_8010EA68_ovl2+0x3a4>
    f834:	3c013f00 	lui	at,0x3f00
    f838:	44810000 	mtc1	at,$f0
    f83c:	c7a80040 	lwc1	$f8,64(sp)
    f840:	46001282 	mul.s	$f10,$f2,$f0
    f844:	46085100 	add.s	$f4,$f10,$f8
    f848:	46006182 	mul.s	$f6,$f12,$f0
    f84c:	e5e40000 	swc1	$f4,0(t7)
    f850:	8fae0090 	lw	t6,144(sp)
    f854:	8fb80098 	lw	t8,152(sp)
    f858:	46008102 	mul.s	$f4,$f16,$f0
    f85c:	c5ca0010 	lwc1	$f10,16(t6)
    f860:	460a3200 	add.s	$f8,$f6,$f10
    f864:	e7080004 	swc1	$f8,4(t8)
    f868:	8fb90090 	lw	t9,144(sp)
    f86c:	8fa80098 	lw	t0,152(sp)
    f870:	c7260014 	lwc1	$f6,20(t9)
    f874:	46062280 	add.s	$f10,$f4,$f6
    f878:	e50a0008 	swc1	$f10,8(t0)
    f87c:	10000001 	b	f884 <func_8010EA68_ovl2+0x3ac>
    f880:	24020001 	li	v0,1
    f884:	8fbf001c 	lw	ra,28(sp)
    f888:	27bd0090 	addiu	sp,sp,144
    f88c:	03e00008 	jr	ra
    f890:	00000000 	nop

0000f894 <func_8010EE24_ovl2>:
func_8010EE24_ovl2():
    f894:	c4840018 	lwc1	$f4,24(a0)
    f898:	c4a60018 	lwc1	$f6,24(a1)
    f89c:	c488000c 	lwc1	$f8,12(a0)
    f8a0:	c4aa000c 	lwc1	$f10,12(a1)
    f8a4:	46062000 	add.s	$f0,$f4,$f6
    f8a8:	460a4081 	sub.s	$f2,$f8,$f10
    f8ac:	4602003c 	c.lt.s	$f0,$f2
    f8b0:	00000000 	nop
    f8b4:	45010006 	bc1t	f8d0 <func_8010EE24_ovl2+0x3c>
    f8b8:	00000000 	nop
    f8bc:	46000307 	neg.s	$f12,$f0
    f8c0:	460c103c 	c.lt.s	$f2,$f12
    f8c4:	00000000 	nop
    f8c8:	45020004 	bc1fl	f8dc <func_8010EE24_ovl2+0x48>
    f8cc:	c490001c 	lwc1	$f16,28(a0)
    f8d0:	03e00008 	jr	ra
    f8d4:	00001025 	move	v0,zero
    f8d8:	c490001c 	lwc1	$f16,28(a0)
    f8dc:	c4b2001c 	lwc1	$f18,28(a1)
    f8e0:	c4840010 	lwc1	$f4,16(a0)
    f8e4:	c4a60010 	lwc1	$f6,16(a1)
    f8e8:	46128080 	add.s	$f2,$f16,$f18
    f8ec:	46062381 	sub.s	$f14,$f4,$f6
    f8f0:	460e103c 	c.lt.s	$f2,$f14
    f8f4:	00000000 	nop
    f8f8:	45010006 	bc1t	f914 <func_8010EE24_ovl2+0x80>
    f8fc:	00000000 	nop
    f900:	46001207 	neg.s	$f8,$f2
    f904:	4608703c 	c.lt.s	$f14,$f8
    f908:	00000000 	nop
    f90c:	45020004 	bc1fl	f920 <func_8010EE24_ovl2+0x8c>
    f910:	c48a0014 	lwc1	$f10,20(a0)
    f914:	03e00008 	jr	ra
    f918:	00001025 	move	v0,zero
    f91c:	c48a0014 	lwc1	$f10,20(a0)
    f920:	c4b00014 	lwc1	$f16,20(a1)
    f924:	46105081 	sub.s	$f2,$f10,$f16
    f928:	4602003c 	c.lt.s	$f0,$f2
    f92c:	00000000 	nop
    f930:	45010005 	bc1t	f948 <func_8010EE24_ovl2+0xb4>
    f934:	00000000 	nop
    f938:	460c103c 	c.lt.s	$f2,$f12
    f93c:	24020001 	li	v0,1
    f940:	45000003 	bc1f	f950 <func_8010EE24_ovl2+0xbc>
    f944:	00000000 	nop
    f948:	03e00008 	jr	ra
    f94c:	00001025 	move	v0,zero
    f950:	03e00008 	jr	ra
    f954:	00000000 	nop

0000f958 <func_8010EEE8_ovl2>:
func_8010EEE8_ovl2():
    f958:	c4a20018 	lwc1	$f2,24(a1)
    f95c:	c4840018 	lwc1	$f4,24(a0)
    f960:	c486000c 	lwc1	$f6,12(a0)
    f964:	c4a8000c 	lwc1	$f8,12(a1)
    f968:	46022000 	add.s	$f0,$f4,$f2
    f96c:	46083301 	sub.s	$f12,$f6,$f8
    f970:	460c003c 	c.lt.s	$f0,$f12
    f974:	00000000 	nop
    f978:	45010006 	bc1t	f994 <func_8010EEE8_ovl2+0x3c>
    f97c:	00000000 	nop
    f980:	46000387 	neg.s	$f14,$f0
    f984:	460e603c 	c.lt.s	$f12,$f14
    f988:	00000000 	nop
    f98c:	45020004 	bc1fl	f9a0 <func_8010EEE8_ovl2+0x48>
    f990:	c48a001c 	lwc1	$f10,28(a0)
    f994:	03e00008 	jr	ra
    f998:	00001025 	move	v0,zero
    f99c:	c48a001c 	lwc1	$f10,28(a0)
    f9a0:	c4920010 	lwc1	$f18,16(a0)
    f9a4:	c4a40010 	lwc1	$f4,16(a1)
    f9a8:	46025300 	add.s	$f12,$f10,$f2
    f9ac:	46049401 	sub.s	$f16,$f18,$f4
    f9b0:	4610603c 	c.lt.s	$f12,$f16
    f9b4:	00000000 	nop
    f9b8:	45010006 	bc1t	f9d4 <func_8010EEE8_ovl2+0x7c>
    f9bc:	00000000 	nop
    f9c0:	46006187 	neg.s	$f6,$f12
    f9c4:	4606803c 	c.lt.s	$f16,$f6
    f9c8:	00000000 	nop
    f9cc:	45020004 	bc1fl	f9e0 <func_8010EEE8_ovl2+0x88>
    f9d0:	c4880014 	lwc1	$f8,20(a0)
    f9d4:	03e00008 	jr	ra
    f9d8:	00001025 	move	v0,zero
    f9dc:	c4880014 	lwc1	$f8,20(a0)
    f9e0:	c4aa0014 	lwc1	$f10,20(a1)
    f9e4:	460a4081 	sub.s	$f2,$f8,$f10
    f9e8:	4602003c 	c.lt.s	$f0,$f2
    f9ec:	00000000 	nop
    f9f0:	45010005 	bc1t	fa08 <func_8010EEE8_ovl2+0xb0>
    f9f4:	00000000 	nop
    f9f8:	460e103c 	c.lt.s	$f2,$f14
    f9fc:	24020001 	li	v0,1
    fa00:	45000003 	bc1f	fa10 <func_8010EEE8_ovl2+0xb8>
    fa04:	00000000 	nop
    fa08:	03e00008 	jr	ra
    fa0c:	00001025 	move	v0,zero
    fa10:	03e00008 	jr	ra
    fa14:	00000000 	nop

0000fa18 <func_8010EFA8_ovl2>:
func_8010EFA8_ovl2():
    fa18:	c4ac000c 	lwc1	$f12,12(a1)
    fa1c:	c4ae0018 	lwc1	$f14,24(a1)
    fa20:	c4a20024 	lwc1	$f2,36(a1)
    fa24:	c4840018 	lwc1	$f4,24(a0)
    fa28:	460e603c 	c.lt.s	$f12,$f14
    fa2c:	46022000 	add.s	$f0,$f4,$f2
    fa30:	4502000f 	bc1fl	fa70 <func_8010EFA8_ovl2+0x58>
    fa34:	46007281 	sub.s	$f10,$f14,$f0
    fa38:	46006181 	sub.s	$f6,$f12,$f0
    fa3c:	c490000c 	lwc1	$f16,12(a0)
    fa40:	4606803c 	c.lt.s	$f16,$f6
    fa44:	00000000 	nop
    fa48:	45010006 	bc1t	fa64 <func_8010EFA8_ovl2+0x4c>
    fa4c:	00000000 	nop
    fa50:	46007200 	add.s	$f8,$f14,$f0
    fa54:	4610403c 	c.lt.s	$f8,$f16
    fa58:	00000000 	nop
    fa5c:	45020011 	bc1fl	faa4 <func_8010EFA8_ovl2+0x8c>
    fa60:	c4ae0010 	lwc1	$f14,16(a1)
    fa64:	03e00008 	jr	ra
    fa68:	00001025 	move	v0,zero
    fa6c:	46007281 	sub.s	$f10,$f14,$f0
    fa70:	c490000c 	lwc1	$f16,12(a0)
    fa74:	460a803c 	c.lt.s	$f16,$f10
    fa78:	00000000 	nop
    fa7c:	45010006 	bc1t	fa98 <func_8010EFA8_ovl2+0x80>
    fa80:	00000000 	nop
    fa84:	46006480 	add.s	$f18,$f12,$f0
    fa88:	4610903c 	c.lt.s	$f18,$f16
    fa8c:	00000000 	nop
    fa90:	45020004 	bc1fl	faa4 <func_8010EFA8_ovl2+0x8c>
    fa94:	c4ae0010 	lwc1	$f14,16(a1)
    fa98:	03e00008 	jr	ra
    fa9c:	00001025 	move	v0,zero
    faa0:	c4ae0010 	lwc1	$f14,16(a1)
    faa4:	c4b0001c 	lwc1	$f16,28(a1)
    faa8:	c484001c 	lwc1	$f4,28(a0)
    faac:	4610703c 	c.lt.s	$f14,$f16
    fab0:	46022300 	add.s	$f12,$f4,$f2
    fab4:	4502000f 	bc1fl	faf4 <func_8010EFA8_ovl2+0xdc>
    fab8:	460c8281 	sub.s	$f10,$f16,$f12
    fabc:	460c7181 	sub.s	$f6,$f14,$f12
    fac0:	c4820010 	lwc1	$f2,16(a0)
    fac4:	4606103c 	c.lt.s	$f2,$f6
    fac8:	00000000 	nop
    facc:	45010006 	bc1t	fae8 <func_8010EFA8_ovl2+0xd0>
    fad0:	00000000 	nop
    fad4:	460c8200 	add.s	$f8,$f16,$f12
    fad8:	4602403c 	c.lt.s	$f8,$f2
    fadc:	00000000 	nop
    fae0:	45020011 	bc1fl	fb28 <func_8010EFA8_ovl2+0x110>
    fae4:	c4a20014 	lwc1	$f2,20(a1)
    fae8:	03e00008 	jr	ra
    faec:	00001025 	move	v0,zero
    faf0:	460c8281 	sub.s	$f10,$f16,$f12
    faf4:	c4820010 	lwc1	$f2,16(a0)
    faf8:	460a103c 	c.lt.s	$f2,$f10
    fafc:	00000000 	nop
    fb00:	45010006 	bc1t	fb1c <func_8010EFA8_ovl2+0x104>
    fb04:	00000000 	nop
    fb08:	460c7480 	add.s	$f18,$f14,$f12
    fb0c:	4602903c 	c.lt.s	$f18,$f2
    fb10:	00000000 	nop
    fb14:	45020004 	bc1fl	fb28 <func_8010EFA8_ovl2+0x110>
    fb18:	c4a20014 	lwc1	$f2,20(a1)
    fb1c:	03e00008 	jr	ra
    fb20:	00001025 	move	v0,zero
    fb24:	c4a20014 	lwc1	$f2,20(a1)
    fb28:	c4ac0020 	lwc1	$f12,32(a1)
    fb2c:	460c103c 	c.lt.s	$f2,$f12
    fb30:	00000000 	nop
    fb34:	4502000f 	bc1fl	fb74 <func_8010EFA8_ovl2+0x15c>
    fb38:	46006201 	sub.s	$f8,$f12,$f0
    fb3c:	46001101 	sub.s	$f4,$f2,$f0
    fb40:	c48e0014 	lwc1	$f14,20(a0)
    fb44:	4604703c 	c.lt.s	$f14,$f4
    fb48:	00000000 	nop
    fb4c:	45010006 	bc1t	fb68 <func_8010EFA8_ovl2+0x150>
    fb50:	00000000 	nop
    fb54:	46006180 	add.s	$f6,$f12,$f0
    fb58:	460e303c 	c.lt.s	$f6,$f14
    fb5c:	00000000 	nop
    fb60:	45020011 	bc1fl	fba8 <func_8010EFA8_ovl2+0x190>
    fb64:	24020001 	li	v0,1
    fb68:	03e00008 	jr	ra
    fb6c:	00001025 	move	v0,zero
    fb70:	46006201 	sub.s	$f8,$f12,$f0
    fb74:	c48e0014 	lwc1	$f14,20(a0)
    fb78:	4608703c 	c.lt.s	$f14,$f8
    fb7c:	00000000 	nop
    fb80:	45010006 	bc1t	fb9c <func_8010EFA8_ovl2+0x184>
    fb84:	00000000 	nop
    fb88:	46001280 	add.s	$f10,$f2,$f0
    fb8c:	460e503c 	c.lt.s	$f10,$f14
    fb90:	00000000 	nop
    fb94:	45020004 	bc1fl	fba8 <func_8010EFA8_ovl2+0x190>
    fb98:	24020001 	li	v0,1
    fb9c:	03e00008 	jr	ra
    fba0:	00001025 	move	v0,zero
    fba4:	24020001 	li	v0,1
    fba8:	03e00008 	jr	ra
    fbac:	00000000 	nop

0000fbb0 <func_8010F140_ovl2>:
func_8010F140_ovl2():
    fbb0:	c488000c 	lwc1	$f8,12(a0)
    fbb4:	c48a0024 	lwc1	$f10,36(a0)
    fbb8:	c4a60024 	lwc1	$f6,36(a1)
    fbbc:	27bdff60 	addiu	sp,sp,-160
    fbc0:	e7a80034 	swc1	$f8,52(sp)
    fbc4:	c4840018 	lwc1	$f4,24(a0)
    fbc8:	46065480 	add.s	$f18,$f10,$f6
    fbcc:	c7aa0034 	lwc1	$f10,52(sp)
    fbd0:	e7a40030 	swc1	$f4,48(sp)
    fbd4:	c7a60030 	lwc1	$f6,48(sp)
    fbd8:	4606503c 	c.lt.s	$f10,$f6
    fbdc:	00000000 	nop
    fbe0:	45020028 	bc1fl	fc84 <func_8010F140_ovl2+0xd4>
    fbe4:	c4a2000c 	lwc1	$f2,12(a1)
    fbe8:	c4a8000c 	lwc1	$f8,12(a1)
    fbec:	e7a8002c 	swc1	$f8,44(sp)
    fbf0:	c4a40018 	lwc1	$f4,24(a1)
    fbf4:	c7a8002c 	lwc1	$f8,44(sp)
    fbf8:	e7a40028 	swc1	$f4,40(sp)
    fbfc:	c7a40028 	lwc1	$f4,40(sp)
    fc00:	4604403c 	c.lt.s	$f8,$f4
    fc04:	00000000 	nop
    fc08:	4502000e 	bc1fl	fc44 <func_8010F140_ovl2+0x94>
    fc0c:	c7a60034 	lwc1	$f6,52(sp)
    fc10:	46125281 	sub.s	$f10,$f10,$f18
    fc14:	460a203c 	c.lt.s	$f4,$f10
    fc18:	00000000 	nop
    fc1c:	45010006 	bc1t	fc38 <func_8010F140_ovl2+0x88>
    fc20:	00000000 	nop
    fc24:	46123100 	add.s	$f4,$f6,$f18
    fc28:	4608203c 	c.lt.s	$f4,$f8
    fc2c:	00000000 	nop
    fc30:	4502003b 	bc1fl	fd20 <func_8010F140_ovl2+0x170>
    fc34:	c4840010 	lwc1	$f4,16(a0)
    fc38:	100001e4 	b	103cc <func_8010F140_ovl2+0x81c>
    fc3c:	00001025 	move	v0,zero
    fc40:	c7a60034 	lwc1	$f6,52(sp)
    fc44:	c7aa002c 	lwc1	$f10,44(sp)
    fc48:	c7a80030 	lwc1	$f8,48(sp)
    fc4c:	46123101 	sub.s	$f4,$f6,$f18
    fc50:	4604503c 	c.lt.s	$f10,$f4
    fc54:	00000000 	nop
    fc58:	45010007 	bc1t	fc78 <func_8010F140_ovl2+0xc8>
    fc5c:	00000000 	nop
    fc60:	46124180 	add.s	$f6,$f8,$f18
    fc64:	c7aa0028 	lwc1	$f10,40(sp)
    fc68:	460a303c 	c.lt.s	$f6,$f10
    fc6c:	00000000 	nop
    fc70:	4502002b 	bc1fl	fd20 <func_8010F140_ovl2+0x170>
    fc74:	c4840010 	lwc1	$f4,16(a0)
    fc78:	100001d4 	b	103cc <func_8010F140_ovl2+0x81c>
    fc7c:	00001025 	move	v0,zero
    fc80:	c4a2000c 	lwc1	$f2,12(a1)
    fc84:	c4a00018 	lwc1	$f0,24(a1)
    fc88:	c7a40030 	lwc1	$f4,48(sp)
    fc8c:	4600103c 	c.lt.s	$f2,$f0
    fc90:	00000000 	nop
    fc94:	45020013 	bc1fl	fce4 <func_8010F140_ovl2+0x134>
    fc98:	46122201 	sub.s	$f8,$f4,$f18
    fc9c:	c7a40030 	lwc1	$f4,48(sp)
    fca0:	c7a60034 	lwc1	$f6,52(sp)
    fca4:	46122201 	sub.s	$f8,$f4,$f18
    fca8:	4608003c 	c.lt.s	$f0,$f8
    fcac:	00000000 	nop
    fcb0:	45010006 	bc1t	fccc <func_8010F140_ovl2+0x11c>
    fcb4:	00000000 	nop
    fcb8:	46123280 	add.s	$f10,$f6,$f18
    fcbc:	4602503c 	c.lt.s	$f10,$f2
    fcc0:	00000000 	nop
    fcc4:	45020004 	bc1fl	fcd8 <func_8010F140_ovl2+0x128>
    fcc8:	e7a00028 	swc1	$f0,40(sp)
    fccc:	100001bf 	b	103cc <func_8010F140_ovl2+0x81c>
    fcd0:	00001025 	move	v0,zero
    fcd4:	e7a00028 	swc1	$f0,40(sp)
    fcd8:	10000010 	b	fd1c <func_8010F140_ovl2+0x16c>
    fcdc:	e7a2002c 	swc1	$f2,44(sp)
    fce0:	46122201 	sub.s	$f8,$f4,$f18
    fce4:	4608103c 	c.lt.s	$f2,$f8
    fce8:	00000000 	nop
    fcec:	45010009 	bc1t	fd14 <func_8010F140_ovl2+0x164>
    fcf0:	00000000 	nop
    fcf4:	c7a60034 	lwc1	$f6,52(sp)
    fcf8:	e7a00028 	swc1	$f0,40(sp)
    fcfc:	e7a2002c 	swc1	$f2,44(sp)
    fd00:	46123280 	add.s	$f10,$f6,$f18
    fd04:	4600503c 	c.lt.s	$f10,$f0
    fd08:	00000000 	nop
    fd0c:	45020004 	bc1fl	fd20 <func_8010F140_ovl2+0x170>
    fd10:	c4840010 	lwc1	$f4,16(a0)
    fd14:	100001ad 	b	103cc <func_8010F140_ovl2+0x81c>
    fd18:	00001025 	move	v0,zero
    fd1c:	c4840010 	lwc1	$f4,16(a0)
    fd20:	e7a40024 	swc1	$f4,36(sp)
    fd24:	c488001c 	lwc1	$f8,28(a0)
    fd28:	c7a60024 	lwc1	$f6,36(sp)
    fd2c:	e7a80020 	swc1	$f8,32(sp)
    fd30:	c7aa0020 	lwc1	$f10,32(sp)
    fd34:	460a303c 	c.lt.s	$f6,$f10
    fd38:	00000000 	nop
    fd3c:	45020025 	bc1fl	fdd4 <func_8010F140_ovl2+0x224>
    fd40:	c4a00010 	lwc1	$f0,16(a1)
    fd44:	c4a40010 	lwc1	$f4,16(a1)
    fd48:	e7a4001c 	swc1	$f4,28(sp)
    fd4c:	c7a8001c 	lwc1	$f8,28(sp)
    fd50:	c4b0001c 	lwc1	$f16,28(a1)
    fd54:	4610403c 	c.lt.s	$f8,$f16
    fd58:	00000000 	nop
    fd5c:	4502000e 	bc1fl	fd98 <func_8010F140_ovl2+0x1e8>
    fd60:	c7aa0024 	lwc1	$f10,36(sp)
    fd64:	46123101 	sub.s	$f4,$f6,$f18
    fd68:	4604803c 	c.lt.s	$f16,$f4
    fd6c:	00000000 	nop
    fd70:	45010006 	bc1t	fd8c <func_8010F140_ovl2+0x1dc>
    fd74:	00000000 	nop
    fd78:	46125180 	add.s	$f6,$f10,$f18
    fd7c:	4608303c 	c.lt.s	$f6,$f8
    fd80:	00000000 	nop
    fd84:	45020038 	bc1fl	fe68 <func_8010F140_ovl2+0x2b8>
    fd88:	c48e0014 	lwc1	$f14,20(a0)
    fd8c:	1000018f 	b	103cc <func_8010F140_ovl2+0x81c>
    fd90:	00001025 	move	v0,zero
    fd94:	c7aa0024 	lwc1	$f10,36(sp)
    fd98:	c7a4001c 	lwc1	$f4,28(sp)
    fd9c:	c7a80020 	lwc1	$f8,32(sp)
    fda0:	46125181 	sub.s	$f6,$f10,$f18
    fda4:	4606203c 	c.lt.s	$f4,$f6
    fda8:	00000000 	nop
    fdac:	45010006 	bc1t	fdc8 <func_8010F140_ovl2+0x218>
    fdb0:	00000000 	nop
    fdb4:	46124280 	add.s	$f10,$f8,$f18
    fdb8:	4610503c 	c.lt.s	$f10,$f16
    fdbc:	00000000 	nop
    fdc0:	45020029 	bc1fl	fe68 <func_8010F140_ovl2+0x2b8>
    fdc4:	c48e0014 	lwc1	$f14,20(a0)
    fdc8:	10000180 	b	103cc <func_8010F140_ovl2+0x81c>
    fdcc:	00001025 	move	v0,zero
    fdd0:	c4a00010 	lwc1	$f0,16(a1)
    fdd4:	c4b0001c 	lwc1	$f16,28(a1)
    fdd8:	c7a40020 	lwc1	$f4,32(sp)
    fddc:	4610003c 	c.lt.s	$f0,$f16
    fde0:	00000000 	nop
    fde4:	45020012 	bc1fl	fe30 <func_8010F140_ovl2+0x280>
    fde8:	46122181 	sub.s	$f6,$f4,$f18
    fdec:	c7a40020 	lwc1	$f4,32(sp)
    fdf0:	c7a80024 	lwc1	$f8,36(sp)
    fdf4:	46122181 	sub.s	$f6,$f4,$f18
    fdf8:	4606803c 	c.lt.s	$f16,$f6
    fdfc:	00000000 	nop
    fe00:	45010006 	bc1t	fe1c <func_8010F140_ovl2+0x26c>
    fe04:	00000000 	nop
    fe08:	46124280 	add.s	$f10,$f8,$f18
    fe0c:	4600503c 	c.lt.s	$f10,$f0
    fe10:	00000000 	nop
    fe14:	45000003 	bc1f	fe24 <func_8010F140_ovl2+0x274>
    fe18:	00000000 	nop
    fe1c:	1000016b 	b	103cc <func_8010F140_ovl2+0x81c>
    fe20:	00001025 	move	v0,zero
    fe24:	1000000f 	b	fe64 <func_8010F140_ovl2+0x2b4>
    fe28:	e7a0001c 	swc1	$f0,28(sp)
    fe2c:	46122181 	sub.s	$f6,$f4,$f18
    fe30:	4606003c 	c.lt.s	$f0,$f6
    fe34:	00000000 	nop
    fe38:	45010008 	bc1t	fe5c <func_8010F140_ovl2+0x2ac>
    fe3c:	00000000 	nop
    fe40:	c7a80024 	lwc1	$f8,36(sp)
    fe44:	e7a0001c 	swc1	$f0,28(sp)
    fe48:	46124280 	add.s	$f10,$f8,$f18
    fe4c:	4610503c 	c.lt.s	$f10,$f16
    fe50:	00000000 	nop
    fe54:	45020004 	bc1fl	fe68 <func_8010F140_ovl2+0x2b8>
    fe58:	c48e0014 	lwc1	$f14,20(a0)
    fe5c:	1000015b 	b	103cc <func_8010F140_ovl2+0x81c>
    fe60:	00001025 	move	v0,zero
    fe64:	c48e0014 	lwc1	$f14,20(a0)
    fe68:	c48c0020 	lwc1	$f12,32(a0)
    fe6c:	460c703c 	c.lt.s	$f14,$f12
    fe70:	00000000 	nop
    fe74:	45020020 	bc1fl	fef8 <func_8010F140_ovl2+0x348>
    fe78:	c4a00014 	lwc1	$f0,20(a1)
    fe7c:	c4a00014 	lwc1	$f0,20(a1)
    fe80:	c4a20020 	lwc1	$f2,32(a1)
    fe84:	4602003c 	c.lt.s	$f0,$f2
    fe88:	00000000 	nop
    fe8c:	4502000e 	bc1fl	fec8 <func_8010F140_ovl2+0x318>
    fe90:	46127201 	sub.s	$f8,$f14,$f18
    fe94:	46127101 	sub.s	$f4,$f14,$f18
    fe98:	4604103c 	c.lt.s	$f2,$f4
    fe9c:	00000000 	nop
    fea0:	45010006 	bc1t	febc <func_8010F140_ovl2+0x30c>
    fea4:	00000000 	nop
    fea8:	46126180 	add.s	$f6,$f12,$f18
    feac:	4600303c 	c.lt.s	$f6,$f0
    feb0:	00000000 	nop
    feb4:	4502002e 	bc1fl	ff70 <func_8010F140_ovl2+0x3c0>
    feb8:	c7a40030 	lwc1	$f4,48(sp)
    febc:	10000143 	b	103cc <func_8010F140_ovl2+0x81c>
    fec0:	00001025 	move	v0,zero
    fec4:	46127201 	sub.s	$f8,$f14,$f18
    fec8:	4608003c 	c.lt.s	$f0,$f8
    fecc:	00000000 	nop
    fed0:	45010006 	bc1t	feec <func_8010F140_ovl2+0x33c>
    fed4:	00000000 	nop
    fed8:	46126280 	add.s	$f10,$f12,$f18
    fedc:	4602503c 	c.lt.s	$f10,$f2
    fee0:	00000000 	nop
    fee4:	45020022 	bc1fl	ff70 <func_8010F140_ovl2+0x3c0>
    fee8:	c7a40030 	lwc1	$f4,48(sp)
    feec:	10000137 	b	103cc <func_8010F140_ovl2+0x81c>
    fef0:	00001025 	move	v0,zero
    fef4:	c4a00014 	lwc1	$f0,20(a1)
    fef8:	c4a20020 	lwc1	$f2,32(a1)
    fefc:	4602003c 	c.lt.s	$f0,$f2
    ff00:	00000000 	nop
    ff04:	4502000e 	bc1fl	ff40 <func_8010F140_ovl2+0x390>
    ff08:	46126201 	sub.s	$f8,$f12,$f18
    ff0c:	46126101 	sub.s	$f4,$f12,$f18
    ff10:	4604103c 	c.lt.s	$f2,$f4
    ff14:	00000000 	nop
    ff18:	45010006 	bc1t	ff34 <func_8010F140_ovl2+0x384>
    ff1c:	00000000 	nop
    ff20:	46127180 	add.s	$f6,$f14,$f18
    ff24:	4600303c 	c.lt.s	$f6,$f0
    ff28:	00000000 	nop
    ff2c:	45020010 	bc1fl	ff70 <func_8010F140_ovl2+0x3c0>
    ff30:	c7a40030 	lwc1	$f4,48(sp)
    ff34:	10000125 	b	103cc <func_8010F140_ovl2+0x81c>
    ff38:	00001025 	move	v0,zero
    ff3c:	46126201 	sub.s	$f8,$f12,$f18
    ff40:	4608003c 	c.lt.s	$f0,$f8
    ff44:	00000000 	nop
    ff48:	45010006 	bc1t	ff64 <func_8010F140_ovl2+0x3b4>
    ff4c:	00000000 	nop
    ff50:	46127280 	add.s	$f10,$f14,$f18
    ff54:	4602503c 	c.lt.s	$f10,$f2
    ff58:	00000000 	nop
    ff5c:	45020004 	bc1fl	ff70 <func_8010F140_ovl2+0x3c0>
    ff60:	c7a40030 	lwc1	$f4,48(sp)
    ff64:	10000119 	b	103cc <func_8010F140_ovl2+0x81c>
    ff68:	00001025 	move	v0,zero
    ff6c:	c7a40030 	lwc1	$f4,48(sp)
    ff70:	c7a60034 	lwc1	$f6,52(sp)
    ff74:	c7aa0020 	lwc1	$f10,32(sp)
    ff78:	00001025 	move	v0,zero
    ff7c:	46062201 	sub.s	$f8,$f4,$f6
    ff80:	c7a40024 	lwc1	$f4,36(sp)
    ff84:	e7a60000 	swc1	$f6,0(sp)
    ff88:	460e6181 	sub.s	$f6,$f12,$f14
    ff8c:	e7a40008 	swc1	$f4,8(sp)
    ff90:	e7a8009c 	swc1	$f8,156(sp)
    ff94:	46045281 	sub.s	$f10,$f10,$f4
    ff98:	c7a4001c 	lwc1	$f4,28(sp)
    ff9c:	e7a60094 	swc1	$f6,148(sp)
    ffa0:	e7a80004 	swc1	$f8,4(sp)
    ffa4:	e7aa0098 	swc1	$f10,152(sp)
    ffa8:	e7aa000c 	swc1	$f10,12(sp)
    ffac:	46048281 	sub.s	$f10,$f16,$f4
    ffb0:	c7a8002c 	lwc1	$f8,44(sp)
    ffb4:	c7a60028 	lwc1	$f6,40(sp)
    ffb8:	e7a40010 	swc1	$f4,16(sp)
    ffbc:	e7aa0088 	swc1	$f10,136(sp)
    ffc0:	46001281 	sub.s	$f10,$f2,$f0
    ffc4:	c7a4000c 	lwc1	$f4,12(sp)
    ffc8:	46083181 	sub.s	$f6,$f6,$f8
    ffcc:	e7aa0084 	swc1	$f10,132(sp)
    ffd0:	c7aa0004 	lwc1	$f10,4(sp)
    ffd4:	e7a80004 	swc1	$f8,4(sp)
    ffd8:	e7a6008c 	swc1	$f6,140(sp)
    ffdc:	46065202 	mul.s	$f8,$f10,$f6
    ffe0:	e7aa000c 	swc1	$f10,12(sp)
    ffe4:	c7aa0088 	lwc1	$f10,136(sp)
    ffe8:	e7a60014 	swc1	$f6,20(sp)
    ffec:	c7a60084 	lwc1	$f6,132(sp)
    fff0:	460a2282 	mul.s	$f10,$f4,$f10
    fff4:	460a4200 	add.s	$f8,$f8,$f10
    fff8:	c7aa0094 	lwc1	$f10,148(sp)
    fffc:	46065282 	mul.s	$f10,$f10,$f6
   10000:	c7a60000 	lwc1	$f6,0(sp)
   10004:	460a4300 	add.s	$f12,$f8,$f10
   10008:	c7a80004 	lwc1	$f8,4(sp)
   1000c:	46083281 	sub.s	$f10,$f6,$f8
   10010:	c7a80010 	lwc1	$f8,16(sp)
   10014:	c7a60008 	lwc1	$f6,8(sp)
   10018:	e7ac007c 	swc1	$f12,124(sp)
   1001c:	e7aa0078 	swc1	$f10,120(sp)
   10020:	46083281 	sub.s	$f10,$f6,$f8
   10024:	c7a8000c 	lwc1	$f8,12(sp)
   10028:	46007181 	sub.s	$f6,$f14,$f0
   1002c:	e7aa0074 	swc1	$f10,116(sp)
   10030:	46084282 	mul.s	$f10,$f8,$f8
   10034:	e7a60070 	swc1	$f6,112(sp)
   10038:	46042182 	mul.s	$f6,$f4,$f4
   1003c:	46065200 	add.s	$f8,$f10,$f6
   10040:	c7a60094 	lwc1	$f6,148(sp)
   10044:	c7aa0094 	lwc1	$f10,148(sp)
   10048:	46065282 	mul.s	$f10,$f10,$f6
   1004c:	c7a60014 	lwc1	$f6,20(sp)
   10050:	460a4080 	add.s	$f2,$f8,$f10
   10054:	46063202 	mul.s	$f8,$f6,$f6
   10058:	c7a60088 	lwc1	$f6,136(sp)
   1005c:	c7aa0088 	lwc1	$f10,136(sp)
   10060:	e7a20030 	swc1	$f2,48(sp)
   10064:	46065282 	mul.s	$f10,$f10,$f6
   10068:	460a4180 	add.s	$f6,$f8,$f10
   1006c:	c7aa0084 	lwc1	$f10,132(sp)
   10070:	c7a80084 	lwc1	$f8,132(sp)
   10074:	460a4202 	mul.s	$f8,$f8,$f10
   10078:	46083280 	add.s	$f10,$f6,$f8
   1007c:	460a1182 	mul.s	$f6,$f2,$f10
   10080:	e7aa0028 	swc1	$f10,40(sp)
   10084:	44805000 	mtc1	zero,$f10
   10088:	460c6202 	mul.s	$f8,$f12,$f12
   1008c:	46083401 	sub.s	$f16,$f6,$f8
   10090:	46129482 	mul.s	$f18,$f18,$f18
   10094:	c7a6009c 	lwc1	$f6,156(sp)
   10098:	c7a80078 	lwc1	$f8,120(sp)
   1009c:	460a8032 	c.eq.s	$f16,$f10
   100a0:	00000000 	nop
   100a4:	45020023 	bc1fl	10134 <func_8010F140_ovl2+0x584>
   100a8:	c7a4008c 	lwc1	$f4,140(sp)
   100ac:	c7a80078 	lwc1	$f8,120(sp)
   100b0:	3c013f80 	lui	at,0x3f80
   100b4:	46083282 	mul.s	$f10,$f6,$f8
   100b8:	c7a60074 	lwc1	$f6,116(sp)
   100bc:	46062202 	mul.s	$f8,$f4,$f6
   100c0:	c7a60094 	lwc1	$f6,148(sp)
   100c4:	46085100 	add.s	$f4,$f10,$f8
   100c8:	c7aa0070 	lwc1	$f10,112(sp)
   100cc:	460a3202 	mul.s	$f8,$f6,$f10
   100d0:	44803000 	mtc1	zero,$f6
   100d4:	46082380 	add.s	$f14,$f4,$f8
   100d8:	c7a40030 	lwc1	$f4,48(sp)
   100dc:	460c7003 	div.s	$f0,$f14,$f12
   100e0:	4606003c 	c.lt.s	$f0,$f6
   100e4:	46000406 	mov.s	$f16,$f0
   100e8:	45020005 	bc1fl	10100 <func_8010F140_ovl2+0x550>
   100ec:	44814000 	mtc1	at,$f8
   100f0:	46007287 	neg.s	$f10,$f14
   100f4:	1000005b 	b	10264 <func_8010F140_ovl2+0x6b4>
   100f8:	46045003 	div.s	$f0,$f10,$f4
   100fc:	44814000 	mtc1	at,$f8
   10100:	00000000 	nop
   10104:	4600403c 	c.lt.s	$f8,$f0
   10108:	00000000 	nop
   1010c:	45020006 	bc1fl	10128 <func_8010F140_ovl2+0x578>
   10110:	44800000 	mtc1	zero,$f0
   10114:	460e6181 	sub.s	$f6,$f12,$f14
   10118:	c7aa0030 	lwc1	$f10,48(sp)
   1011c:	10000051 	b	10264 <func_8010F140_ovl2+0x6b4>
   10120:	460a3003 	div.s	$f0,$f6,$f10
   10124:	44800000 	mtc1	zero,$f0
   10128:	1000004f 	b	10268 <func_8010F140_ovl2+0x6b8>
   1012c:	44801000 	mtc1	zero,$f2
   10130:	c7a4008c 	lwc1	$f4,140(sp)
   10134:	c7aa0088 	lwc1	$f10,136(sp)
   10138:	e7a80014 	swc1	$f8,20(sp)
   1013c:	46082182 	mul.s	$f6,$f4,$f8
   10140:	c7a40074 	lwc1	$f4,116(sp)
   10144:	c7a80070 	lwc1	$f8,112(sp)
   10148:	3c013f80 	lui	at,0x3f80
   1014c:	46045282 	mul.s	$f10,$f10,$f4
   10150:	e7a40010 	swc1	$f4,16(sp)
   10154:	c7a40014 	lwc1	$f4,20(sp)
   10158:	e7a80014 	swc1	$f8,20(sp)
   1015c:	460a3180 	add.s	$f6,$f6,$f10
   10160:	c7aa0084 	lwc1	$f10,132(sp)
   10164:	46085282 	mul.s	$f10,$f10,$f8
   10168:	c7a80010 	lwc1	$f8,16(sp)
   1016c:	460a3180 	add.s	$f6,$f6,$f10
   10170:	c7aa009c 	lwc1	$f10,156(sp)
   10174:	46045282 	mul.s	$f10,$f10,$f4
   10178:	c7a40098 	lwc1	$f4,152(sp)
   1017c:	e7a60024 	swc1	$f6,36(sp)
   10180:	46082102 	mul.s	$f4,$f4,$f8
   10184:	46045200 	add.s	$f8,$f10,$f4
   10188:	c7a40014 	lwc1	$f4,20(sp)
   1018c:	c7aa0094 	lwc1	$f10,148(sp)
   10190:	46045282 	mul.s	$f10,$f10,$f4
   10194:	c7a4007c 	lwc1	$f4,124(sp)
   10198:	460a4380 	add.s	$f14,$f8,$f10
   1019c:	46062202 	mul.s	$f8,$f4,$f6
   101a0:	c7aa0028 	lwc1	$f10,40(sp)
   101a4:	460e5102 	mul.s	$f4,$f10,$f14
   101a8:	44805000 	mtc1	zero,$f10
   101ac:	46044181 	sub.s	$f6,$f8,$f4
   101b0:	46103003 	div.s	$f0,$f6,$f16
   101b4:	460a003c 	c.lt.s	$f0,$f10
   101b8:	00000000 	nop
   101bc:	45020005 	bc1fl	101d4 <func_8010F140_ovl2+0x624>
   101c0:	44814000 	mtc1	at,$f8
   101c4:	44800000 	mtc1	zero,$f0
   101c8:	10000009 	b	101f0 <func_8010F140_ovl2+0x640>
   101cc:	00000000 	nop
   101d0:	44814000 	mtc1	at,$f8
   101d4:	3c013f80 	lui	at,0x3f80
   101d8:	4600403c 	c.lt.s	$f8,$f0
   101dc:	00000000 	nop
   101e0:	45000003 	bc1f	101f0 <func_8010F140_ovl2+0x640>
   101e4:	00000000 	nop
   101e8:	44810000 	mtc1	at,$f0
   101ec:	00000000 	nop
   101f0:	46006102 	mul.s	$f4,$f12,$f0
   101f4:	c7a60024 	lwc1	$f6,36(sp)
   101f8:	c7a80028 	lwc1	$f8,40(sp)
   101fc:	3c013f80 	lui	at,0x3f80
   10200:	46062280 	add.s	$f10,$f4,$f6
   10204:	44802000 	mtc1	zero,$f4
   10208:	46085083 	div.s	$f2,$f10,$f8
   1020c:	c7aa0030 	lwc1	$f10,48(sp)
   10210:	4604103c 	c.lt.s	$f2,$f4
   10214:	46001406 	mov.s	$f16,$f2
   10218:	45020005 	bc1fl	10230 <func_8010F140_ovl2+0x680>
   1021c:	44814000 	mtc1	at,$f8
   10220:	46007187 	neg.s	$f6,$f14
   10224:	1000000f 	b	10264 <func_8010F140_ovl2+0x6b4>
   10228:	460a3003 	div.s	$f0,$f6,$f10
   1022c:	44814000 	mtc1	at,$f8
   10230:	00000000 	nop
   10234:	4602403c 	c.lt.s	$f8,$f2
   10238:	00000000 	nop
   1023c:	45000005 	bc1f	10254 <func_8010F140_ovl2+0x6a4>
   10240:	00000000 	nop
   10244:	460e6101 	sub.s	$f4,$f12,$f14
   10248:	c7a60030 	lwc1	$f6,48(sp)
   1024c:	10000005 	b	10264 <func_8010F140_ovl2+0x6b4>
   10250:	46062003 	div.s	$f0,$f4,$f6
   10254:	46106282 	mul.s	$f10,$f12,$f16
   10258:	c7a40030 	lwc1	$f4,48(sp)
   1025c:	460e5201 	sub.s	$f8,$f10,$f14
   10260:	46044003 	div.s	$f0,$f8,$f4
   10264:	44801000 	mtc1	zero,$f2
   10268:	3c013f80 	lui	at,0x3f80
   1026c:	c7a6009c 	lwc1	$f6,156(sp)
   10270:	4602003c 	c.lt.s	$f0,$f2
   10274:	00000000 	nop
   10278:	45020004 	bc1fl	1028c <func_8010F140_ovl2+0x6dc>
   1027c:	44816000 	mtc1	at,$f12
   10280:	10000008 	b	102a4 <func_8010F140_ovl2+0x6f4>
   10284:	46001006 	mov.s	$f0,$f2
   10288:	44816000 	mtc1	at,$f12
   1028c:	00000000 	nop
   10290:	4600603c 	c.lt.s	$f12,$f0
   10294:	00000000 	nop
   10298:	45000002 	bc1f	102a4 <func_8010F140_ovl2+0x6f4>
   1029c:	00000000 	nop
   102a0:	46006006 	mov.s	$f0,$f12
   102a4:	46003282 	mul.s	$f10,$f6,$f0
   102a8:	c7a80078 	lwc1	$f8,120(sp)
   102ac:	c7a60098 	lwc1	$f6,152(sp)
   102b0:	3c013f80 	lui	at,0x3f80
   102b4:	46085100 	add.s	$f4,$f10,$f8
   102b8:	46003282 	mul.s	$f10,$f6,$f0
   102bc:	c7a80074 	lwc1	$f8,116(sp)
   102c0:	c7a60094 	lwc1	$f6,148(sp)
   102c4:	e7a40034 	swc1	$f4,52(sp)
   102c8:	46085100 	add.s	$f4,$f10,$f8
   102cc:	46003282 	mul.s	$f10,$f6,$f0
   102d0:	44803000 	mtc1	zero,$f6
   102d4:	c7a80070 	lwc1	$f8,112(sp)
   102d8:	e7a40030 	swc1	$f4,48(sp)
   102dc:	4606803c 	c.lt.s	$f16,$f6
   102e0:	46085100 	add.s	$f4,$f10,$f8
   102e4:	c7aa008c 	lwc1	$f10,140(sp)
   102e8:	45000004 	bc1f	102fc <func_8010F140_ovl2+0x74c>
   102ec:	e7a40028 	swc1	$f4,40(sp)
   102f0:	44808000 	mtc1	zero,$f16
   102f4:	10000008 	b	10318 <func_8010F140_ovl2+0x768>
   102f8:	00000000 	nop
   102fc:	44810000 	mtc1	at,$f0
   10300:	00000000 	nop
   10304:	4610003c 	c.lt.s	$f0,$f16
   10308:	00000000 	nop
   1030c:	45000002 	bc1f	10318 <func_8010F140_ovl2+0x768>
   10310:	00000000 	nop
   10314:	46000406 	mov.s	$f16,$f0
   10318:	46105002 	mul.s	$f0,$f10,$f16
   1031c:	c7a40088 	lwc1	$f4,136(sp)
   10320:	c7a80034 	lwc1	$f8,52(sp)
   10324:	c7aa0030 	lwc1	$f10,48(sp)
   10328:	46102182 	mul.s	$f6,$f4,$f16
   1032c:	46004081 	sub.s	$f2,$f8,$f0
   10330:	c7a80084 	lwc1	$f8,132(sp)
   10334:	e7a60020 	swc1	$f6,32(sp)
   10338:	46065301 	sub.s	$f12,$f10,$f6
   1033c:	46104102 	mul.s	$f4,$f8,$f16
   10340:	c7aa0028 	lwc1	$f10,40(sp)
   10344:	46021182 	mul.s	$f6,$f2,$f2
   10348:	00000000 	nop
   1034c:	460c6202 	mul.s	$f8,$f12,$f12
   10350:	e7a4001c 	swc1	$f4,28(sp)
   10354:	46045381 	sub.s	$f14,$f10,$f4
   10358:	460e7102 	mul.s	$f4,$f14,$f14
   1035c:	46083280 	add.s	$f10,$f6,$f8
   10360:	46045180 	add.s	$f6,$f10,$f4
   10364:	4612303e 	c.le.s	$f6,$f18
   10368:	00000000 	nop
   1036c:	45000017 	bc1f	103cc <func_8010F140_ovl2+0x81c>
   10370:	00000000 	nop
   10374:	10c00013 	beqz	a2,103c4 <func_8010F140_ovl2+0x814>
   10378:	3c013f00 	lui	at,0x3f00
   1037c:	44818000 	mtc1	at,$f16
   10380:	c7a4002c 	lwc1	$f4,44(sp)
   10384:	46101202 	mul.s	$f8,$f2,$f16
   10388:	46004280 	add.s	$f10,$f8,$f0
   1038c:	46106202 	mul.s	$f8,$f12,$f16
   10390:	46045180 	add.s	$f6,$f10,$f4
   10394:	e4c60000 	swc1	$f6,0(a2)
   10398:	c7aa0020 	lwc1	$f10,32(sp)
   1039c:	c4a60010 	lwc1	$f6,16(a1)
   103a0:	460a4100 	add.s	$f4,$f8,$f10
   103a4:	46107282 	mul.s	$f10,$f14,$f16
   103a8:	46062200 	add.s	$f8,$f4,$f6
   103ac:	e4c80004 	swc1	$f8,4(a2)
   103b0:	c7a4001c 	lwc1	$f4,28(sp)
   103b4:	c4a80014 	lwc1	$f8,20(a1)
   103b8:	46045180 	add.s	$f6,$f10,$f4
   103bc:	46083280 	add.s	$f10,$f6,$f8
   103c0:	e4ca0008 	swc1	$f10,8(a2)
   103c4:	10000001 	b	103cc <func_8010F140_ovl2+0x81c>
   103c8:	24020001 	li	v0,1
   103cc:	03e00008 	jr	ra
   103d0:	27bd00a0 	addiu	sp,sp,160

000103d4 <func_8010F964>:
func_8010F964():
   103d4:	c4a4000c 	lwc1	$f4,12(a1)
   103d8:	c4a60018 	lwc1	$f6,24(a1)
   103dc:	3c013f00 	lui	at,0x3f00
   103e0:	44810000 	mtc1	at,$f0
   103e4:	46062200 	add.s	$f8,$f4,$f6
   103e8:	46004282 	mul.s	$f10,$f8,$f0
   103ec:	e48a0000 	swc1	$f10,0(a0)
   103f0:	c4b2001c 	lwc1	$f18,28(a1)
   103f4:	c4b00010 	lwc1	$f16,16(a1)
   103f8:	46128100 	add.s	$f4,$f16,$f18
   103fc:	46002182 	mul.s	$f6,$f4,$f0
   10400:	e4860004 	swc1	$f6,4(a0)
   10404:	c4aa0020 	lwc1	$f10,32(a1)
   10408:	c4a80014 	lwc1	$f8,20(a1)
   1040c:	460a4400 	add.s	$f16,$f8,$f10
   10410:	46008482 	mul.s	$f18,$f16,$f0
   10414:	03e00008 	jr	ra
   10418:	e4920008 	swc1	$f18,8(a0)

0001041c <func_8010F9AC>:
func_8010F9AC():
   1041c:	27bdffd8 	addiu	sp,sp,-40
   10420:	afbf001c 	sw	ra,28(sp)
   10424:	afb00018 	sw	s0,24(sp)
   10428:	afa60030 	sw	a2,48(sp)
   1042c:	90820004 	lbu	v0,4(a0)
   10430:	00808025 	move	s0,a0
   10434:	00a03825 	move	a3,a1
   10438:	10400007 	beqz	v0,10458 <func_8010F9AC+0x3c>
   1043c:	24030001 	li	v1,1
   10440:	1043001d 	beq	v0,v1,104b8 <func_8010F9AC+0x9c>
   10444:	24040002 	li	a0,2
   10448:	50440058 	beql	v0,a0,105ac <func_8010F9AC+0x190>
   1044c:	90e20004 	lbu	v0,4(a3)
   10450:	1000008f 	b	10690 <func_8010F9AC+0x274>
   10454:	8fbf001c 	lw	ra,28(sp)
   10458:	90e20004 	lbu	v0,4(a3)
   1045c:	24030001 	li	v1,1
   10460:	02002025 	move	a0,s0
   10464:	10400008 	beqz	v0,10488 <func_8010F9AC+0x6c>
   10468:	00000000 	nop
   1046c:	1043000a 	beq	v0,v1,10498 <func_8010F9AC+0x7c>
   10470:	02002025 	move	a0,s0
   10474:	24040002 	li	a0,2
   10478:	1044000b 	beq	v0,a0,104a8 <func_8010F9AC+0x8c>
   1047c:	00e02825 	move	a1,a3
   10480:	10000083 	b	10690 <func_8010F9AC+0x274>
   10484:	8fbf001c 	lw	ra,28(sp)
   10488:	0c000000 	jal	0 <func_800FF5E0_ovl2>
   1048c:	00e02825 	move	a1,a3
   10490:	1000007f 	b	10690 <func_8010F9AC+0x274>
   10494:	8fbf001c 	lw	ra,28(sp)
   10498:	0c000000 	jal	0 <func_800FF5E0_ovl2>
   1049c:	00e02825 	move	a1,a3
   104a0:	1000007b 	b	10690 <func_8010F9AC+0x274>
   104a4:	8fbf001c 	lw	ra,28(sp)
   104a8:	0c000000 	jal	0 <func_800FF5E0_ovl2>
   104ac:	02002025 	move	a0,s0
   104b0:	10000077 	b	10690 <func_8010F9AC+0x274>
   104b4:	8fbf001c 	lw	ra,28(sp)
   104b8:	90e20004 	lbu	v0,4(a3)
   104bc:	00e02025 	move	a0,a3
   104c0:	10400008 	beqz	v0,104e4 <func_8010F9AC+0xc8>
   104c4:	00000000 	nop
   104c8:	1043000a 	beq	v0,v1,104f4 <func_8010F9AC+0xd8>
   104cc:	02002025 	move	a0,s0
   104d0:	24040002 	li	a0,2
   104d4:	1044001e 	beq	v0,a0,10550 <func_8010F9AC+0x134>
   104d8:	00e02825 	move	a1,a3
   104dc:	1000006c 	b	10690 <func_8010F9AC+0x274>
   104e0:	8fbf001c 	lw	ra,28(sp)
   104e4:	0c000000 	jal	0 <func_800FF5E0_ovl2>
   104e8:	02002825 	move	a1,s0
   104ec:	10000068 	b	10690 <func_8010F9AC+0x274>
   104f0:	8fbf001c 	lw	ra,28(sp)
   104f4:	00e02825 	move	a1,a3
   104f8:	8fa60030 	lw	a2,48(sp)
   104fc:	0c000000 	jal	0 <func_800FF5E0_ovl2>
   10500:	afa7002c 	sw	a3,44(sp)
   10504:	8fa7002c 	lw	a3,44(sp)
   10508:	1040000f 	beqz	v0,10548 <func_8010F9AC+0x12c>
   1050c:	00401825 	move	v1,v0
   10510:	8fae0030 	lw	t6,48(sp)
   10514:	8e18000c 	lw	t8,12(s0)
   10518:	add8000c 	sw	t8,12(t6)
   1051c:	8e0f0010 	lw	t7,16(s0)
   10520:	adcf0010 	sw	t7,16(t6)
   10524:	8e180014 	lw	t8,20(s0)
   10528:	add80014 	sw	t8,20(t6)
   1052c:	8ce9000c 	lw	t1,12(a3)
   10530:	8fb90030 	lw	t9,48(sp)
   10534:	af290018 	sw	t1,24(t9)
   10538:	8ce80010 	lw	t0,16(a3)
   1053c:	af28001c 	sw	t0,28(t9)
   10540:	8ce90014 	lw	t1,20(a3)
   10544:	af290020 	sw	t1,32(t9)
   10548:	10000050 	b	1068c <func_8010F9AC+0x270>
   1054c:	00601025 	move	v0,v1
   10550:	02002025 	move	a0,s0
   10554:	8fa60030 	lw	a2,48(sp)
   10558:	0c000000 	jal	0 <func_800FF5E0_ovl2>
   1055c:	afa7002c 	sw	a3,44(sp)
   10560:	8fa7002c 	lw	a3,44(sp)
   10564:	1040000e 	beqz	v0,105a0 <func_8010F9AC+0x184>
   10568:	00401825 	move	v1,v0
   1056c:	8faa0030 	lw	t2,48(sp)
   10570:	8e0c000c 	lw	t4,12(s0)
   10574:	00e02825 	move	a1,a3
   10578:	ad4c000c 	sw	t4,12(t2)
   1057c:	8e0b0010 	lw	t3,16(s0)
   10580:	ad4b0010 	sw	t3,16(t2)
   10584:	8e0c0014 	lw	t4,20(s0)
   10588:	ad4c0014 	sw	t4,20(t2)
   1058c:	8fa40030 	lw	a0,48(sp)
   10590:	afa20024 	sw	v0,36(sp)
   10594:	0c000000 	jal	0 <func_800FF5E0_ovl2>
   10598:	24840018 	addiu	a0,a0,24
   1059c:	8fa30024 	lw	v1,36(sp)
   105a0:	1000003a 	b	1068c <func_8010F9AC+0x270>
   105a4:	00601025 	move	v0,v1
   105a8:	90e20004 	lbu	v0,4(a3)
   105ac:	02002825 	move	a1,s0
   105b0:	10400007 	beqz	v0,105d0 <func_8010F9AC+0x1b4>
   105b4:	00000000 	nop
   105b8:	10430009 	beq	v0,v1,105e0 <func_8010F9AC+0x1c4>
   105bc:	02002825 	move	a1,s0
   105c0:	1044001f 	beq	v0,a0,10640 <func_8010F9AC+0x224>
   105c4:	00e02825 	move	a1,a3
   105c8:	10000031 	b	10690 <func_8010F9AC+0x274>
   105cc:	8fbf001c 	lw	ra,28(sp)
   105d0:	0c000000 	jal	0 <func_800FF5E0_ovl2>
   105d4:	00e02025 	move	a0,a3
   105d8:	1000002d 	b	10690 <func_8010F9AC+0x274>
   105dc:	8fbf001c 	lw	ra,28(sp)
   105e0:	00e02025 	move	a0,a3
   105e4:	8fa60030 	lw	a2,48(sp)
   105e8:	0c000000 	jal	0 <func_800FF5E0_ovl2>
   105ec:	afa7002c 	sw	a3,44(sp)
   105f0:	8fa7002c 	lw	a3,44(sp)
   105f4:	10400010 	beqz	v0,10638 <func_8010F9AC+0x21c>
   105f8:	00401825 	move	v1,v0
   105fc:	8fa40030 	lw	a0,48(sp)
   10600:	02002825 	move	a1,s0
   10604:	afa20024 	sw	v0,36(sp)
   10608:	afa7002c 	sw	a3,44(sp)
   1060c:	0c000000 	jal	0 <func_800FF5E0_ovl2>
   10610:	2484000c 	addiu	a0,a0,12
   10614:	8fa7002c 	lw	a3,44(sp)
   10618:	8fad0030 	lw	t5,48(sp)
   1061c:	8fa30024 	lw	v1,36(sp)
   10620:	8cef000c 	lw	t7,12(a3)
   10624:	adaf0018 	sw	t7,24(t5)
   10628:	8cee0010 	lw	t6,16(a3)
   1062c:	adae001c 	sw	t6,28(t5)
   10630:	8cef0014 	lw	t7,20(a3)
   10634:	adaf0020 	sw	t7,32(t5)
   10638:	10000014 	b	1068c <func_8010F9AC+0x270>
   1063c:	00601025 	move	v0,v1
   10640:	02002025 	move	a0,s0
   10644:	8fa60030 	lw	a2,48(sp)
   10648:	0c000000 	jal	0 <func_800FF5E0_ovl2>
   1064c:	afa7002c 	sw	a3,44(sp)
   10650:	8fa7002c 	lw	a3,44(sp)
   10654:	1040000c 	beqz	v0,10688 <func_8010F9AC+0x26c>
   10658:	00401825 	move	v1,v0
   1065c:	8fa40030 	lw	a0,48(sp)
   10660:	02002825 	move	a1,s0
   10664:	afa20024 	sw	v0,36(sp)
   10668:	afa7002c 	sw	a3,44(sp)
   1066c:	0c000000 	jal	0 <func_800FF5E0_ovl2>
   10670:	2484000c 	addiu	a0,a0,12
   10674:	8fa40030 	lw	a0,48(sp)
   10678:	8fa5002c 	lw	a1,44(sp)
   1067c:	0c000000 	jal	0 <func_800FF5E0_ovl2>
   10680:	24840018 	addiu	a0,a0,24
   10684:	8fa30024 	lw	v1,36(sp)
   10688:	00601025 	move	v0,v1
   1068c:	8fbf001c 	lw	ra,28(sp)
   10690:	8fb00018 	lw	s0,24(sp)
   10694:	27bd0028 	addiu	sp,sp,40
   10698:	03e00008 	jr	ra
   1069c:	00000000 	nop

000106a0 <func_8010FC30_ovl2>:
func_8010FC30_ovl2():
   106a0:	27bdffc8 	addiu	sp,sp,-56
   106a4:	afbf0034 	sw	ra,52(sp)
   106a8:	afb60030 	sw	s6,48(sp)
   106ac:	afb5002c 	sw	s5,44(sp)
   106b0:	afb40028 	sw	s4,40(sp)
   106b4:	afb30024 	sw	s3,36(sp)
   106b8:	afb20020 	sw	s2,32(sp)
   106bc:	afb1001c 	sw	s1,28(sp)
   106c0:	afb00018 	sw	s0,24(sp)
   106c4:	8c870018 	lw	a3,24(a0)
   106c8:	00a09825 	move	s3,a1
   106cc:	00c0a825 	move	s5,a2
   106d0:	10e0007c 	beqz	a3,108c4 <func_8010FC30_ovl2+0x224>
   106d4:	0080b025 	move	s6,a0
   106d8:	8cb0001c 	lw	s0,28(a1)
   106dc:	52000042 	beqzl	s0,107e8 <func_8010FC30_ovl2+0x148>
   106e0:	90ec0000 	lbu	t4,0(a3)
   106e4:	90ee0000 	lbu	t6,0(a3)
   106e8:	00e02025 	move	a0,a3
   106ec:	55c00005 	bnezl	t6,10704 <func_8010FC30_ovl2+0x64>
   106f0:	920f0000 	lbu	t7,0(s0)
   106f4:	0c000000 	jal	0 <func_800FF5E0_ovl2>
   106f8:	8ec50000 	lw	a1,0(s6)
   106fc:	8e70001c 	lw	s0,28(s3)
   10700:	920f0000 	lbu	t7,0(s0)
   10704:	02002025 	move	a0,s0
   10708:	55e00005 	bnezl	t7,10720 <func_8010FC30_ovl2+0x80>
   1070c:	8ec40018 	lw	a0,24(s6)
   10710:	0c000000 	jal	0 <func_800FF5E0_ovl2>
   10714:	8e650000 	lw	a1,0(s3)
   10718:	8e70001c 	lw	s0,28(s3)
   1071c:	8ec40018 	lw	a0,24(s6)
   10720:	02002825 	move	a1,s0
   10724:	0c000000 	jal	0 <func_800FF5E0_ovl2>
   10728:	00003025 	move	a2,zero
   1072c:	504000cb 	beqzl	v0,10a5c <func_8010FC30_ovl2+0x3bc>
   10730:	00001025 	move	v0,zero
   10734:	8ed8001c 	lw	t8,28(s6)
   10738:	0000a025 	move	s4,zero
   1073c:	8ed20020 	lw	s2,32(s6)
   10740:	5b0000c6 	blezl	t8,10a5c <func_8010FC30_ovl2+0x3bc>
   10744:	00001025 	move	v0,zero
   10748:	92590000 	lbu	t9,0(s2)
   1074c:	00008825 	move	s1,zero
   10750:	02402025 	move	a0,s2
   10754:	57200004 	bnezl	t9,10768 <func_8010FC30_ovl2+0xc8>
   10758:	8e680020 	lw	t0,32(s3)
   1075c:	0c000000 	jal	0 <func_800FF5E0_ovl2>
   10760:	8ec50000 	lw	a1,0(s6)
   10764:	8e680020 	lw	t0,32(s3)
   10768:	8e700024 	lw	s0,36(s3)
   1076c:	59000016 	blezl	t0,107c8 <func_8010FC30_ovl2+0x128>
   10770:	8ecb001c 	lw	t3,28(s6)
   10774:	92090000 	lbu	t1,0(s0)
   10778:	02002025 	move	a0,s0
   1077c:	55200004 	bnezl	t1,10790 <func_8010FC30_ovl2+0xf0>
   10780:	02402025 	move	a0,s2
   10784:	0c000000 	jal	0 <func_800FF5E0_ovl2>
   10788:	8e650000 	lw	a1,0(s3)
   1078c:	02402025 	move	a0,s2
   10790:	02002825 	move	a1,s0
   10794:	0c000000 	jal	0 <func_800FF5E0_ovl2>
   10798:	02a03025 	move	a2,s5
   1079c:	50400004 	beqzl	v0,107b0 <func_8010FC30_ovl2+0x110>
   107a0:	8e6a0020 	lw	t2,32(s3)
   107a4:	100000ad 	b	10a5c <func_8010FC30_ovl2+0x3bc>
   107a8:	24020001 	li	v0,1
   107ac:	8e6a0020 	lw	t2,32(s3)
   107b0:	26310001 	addiu	s1,s1,1
   107b4:	26100028 	addiu	s0,s0,40
   107b8:	022a082a 	slt	at,s1,t2
   107bc:	5420ffee 	bnezl	at,10778 <func_8010FC30_ovl2+0xd8>
   107c0:	92090000 	lbu	t1,0(s0)
   107c4:	8ecb001c 	lw	t3,28(s6)
   107c8:	26940001 	addiu	s4,s4,1
   107cc:	26520028 	addiu	s2,s2,40
   107d0:	028b082a 	slt	at,s4,t3
   107d4:	5420ffdd 	bnezl	at,1074c <func_8010FC30_ovl2+0xac>
   107d8:	92590000 	lbu	t9,0(s2)
   107dc:	1000009f 	b	10a5c <func_8010FC30_ovl2+0x3bc>
   107e0:	00001025 	move	v0,zero
   107e4:	90ec0000 	lbu	t4,0(a3)
   107e8:	00e02025 	move	a0,a3
   107ec:	55800004 	bnezl	t4,10800 <func_8010FC30_ovl2+0x160>
   107f0:	8e6d0020 	lw	t5,32(s3)
   107f4:	0c000000 	jal	0 <func_800FF5E0_ovl2>
   107f8:	8ec50000 	lw	a1,0(s6)
   107fc:	8e6d0020 	lw	t5,32(s3)
   10800:	00008825 	move	s1,zero
   10804:	8e700024 	lw	s0,36(s3)
   10808:	59a00094 	blezl	t5,10a5c <func_8010FC30_ovl2+0x3bc>
   1080c:	00001025 	move	v0,zero
   10810:	920e0000 	lbu	t6,0(s0)
   10814:	02002025 	move	a0,s0
   10818:	55c00004 	bnezl	t6,1082c <func_8010FC30_ovl2+0x18c>
   1081c:	8ec40018 	lw	a0,24(s6)
   10820:	0c000000 	jal	0 <func_800FF5E0_ovl2>
   10824:	8e650000 	lw	a1,0(s3)
   10828:	8ec40018 	lw	a0,24(s6)
   1082c:	02002825 	move	a1,s0
   10830:	0c000000 	jal	0 <func_800FF5E0_ovl2>
   10834:	00003025 	move	a2,zero
   10838:	5040001b 	beqzl	v0,108a8 <func_8010FC30_ovl2+0x208>
   1083c:	8e680020 	lw	t0,32(s3)
   10840:	8ecf001c 	lw	t7,28(s6)
   10844:	0000a025 	move	s4,zero
   10848:	8ed20020 	lw	s2,32(s6)
   1084c:	59e00016 	blezl	t7,108a8 <func_8010FC30_ovl2+0x208>
   10850:	8e680020 	lw	t0,32(s3)
   10854:	92580000 	lbu	t8,0(s2)
   10858:	02402025 	move	a0,s2
   1085c:	57000004 	bnezl	t8,10870 <func_8010FC30_ovl2+0x1d0>
   10860:	02402025 	move	a0,s2
   10864:	0c000000 	jal	0 <func_800FF5E0_ovl2>
   10868:	8ec50000 	lw	a1,0(s6)
   1086c:	02402025 	move	a0,s2
   10870:	02002825 	move	a1,s0
   10874:	0c000000 	jal	0 <func_800FF5E0_ovl2>
   10878:	02a03025 	move	a2,s5
   1087c:	50400004 	beqzl	v0,10890 <func_8010FC30_ovl2+0x1f0>
   10880:	8ed9001c 	lw	t9,28(s6)
   10884:	10000075 	b	10a5c <func_8010FC30_ovl2+0x3bc>
   10888:	24020001 	li	v0,1
   1088c:	8ed9001c 	lw	t9,28(s6)
   10890:	26940001 	addiu	s4,s4,1
   10894:	26520028 	addiu	s2,s2,40
   10898:	0299082a 	slt	at,s4,t9
   1089c:	5420ffee 	bnezl	at,10858 <func_8010FC30_ovl2+0x1b8>
   108a0:	92580000 	lbu	t8,0(s2)
   108a4:	8e680020 	lw	t0,32(s3)
   108a8:	26310001 	addiu	s1,s1,1
   108ac:	26100028 	addiu	s0,s0,40
   108b0:	0228082a 	slt	at,s1,t0
   108b4:	5420ffd7 	bnezl	at,10814 <func_8010FC30_ovl2+0x174>
   108b8:	920e0000 	lbu	t6,0(s0)
   108bc:	10000067 	b	10a5c <func_8010FC30_ovl2+0x3bc>
   108c0:	00001025 	move	v0,zero
   108c4:	8e70001c 	lw	s0,28(s3)
   108c8:	5200003a 	beqzl	s0,109b4 <func_8010FC30_ovl2+0x314>
   108cc:	8ed8001c 	lw	t8,28(s6)
   108d0:	92090000 	lbu	t1,0(s0)
   108d4:	02002025 	move	a0,s0
   108d8:	55200004 	bnezl	t1,108ec <func_8010FC30_ovl2+0x24c>
   108dc:	8eca001c 	lw	t2,28(s6)
   108e0:	0c000000 	jal	0 <func_800FF5E0_ovl2>
   108e4:	8e650000 	lw	a1,0(s3)
   108e8:	8eca001c 	lw	t2,28(s6)
   108ec:	0000a025 	move	s4,zero
   108f0:	8ed20020 	lw	s2,32(s6)
   108f4:	59400059 	blezl	t2,10a5c <func_8010FC30_ovl2+0x3bc>
   108f8:	00001025 	move	v0,zero
   108fc:	924b0000 	lbu	t3,0(s2)
   10900:	02402025 	move	a0,s2
   10904:	55600004 	bnezl	t3,10918 <func_8010FC30_ovl2+0x278>
   10908:	02402025 	move	a0,s2
   1090c:	0c000000 	jal	0 <func_800FF5E0_ovl2>
   10910:	8ec50000 	lw	a1,0(s6)
   10914:	02402025 	move	a0,s2
   10918:	8e65001c 	lw	a1,28(s3)
   1091c:	0c000000 	jal	0 <func_800FF5E0_ovl2>
   10920:	00003025 	move	a2,zero
   10924:	5040001b 	beqzl	v0,10994 <func_8010FC30_ovl2+0x2f4>
   10928:	8ecf001c 	lw	t7,28(s6)
   1092c:	8e6c0020 	lw	t4,32(s3)
   10930:	00008825 	move	s1,zero
   10934:	8e700024 	lw	s0,36(s3)
   10938:	59800016 	blezl	t4,10994 <func_8010FC30_ovl2+0x2f4>
   1093c:	8ecf001c 	lw	t7,28(s6)
   10940:	920d0000 	lbu	t5,0(s0)
   10944:	02002025 	move	a0,s0
   10948:	55a00004 	bnezl	t5,1095c <func_8010FC30_ovl2+0x2bc>
   1094c:	02402025 	move	a0,s2
   10950:	0c000000 	jal	0 <func_800FF5E0_ovl2>
   10954:	8e650000 	lw	a1,0(s3)
   10958:	02402025 	move	a0,s2
   1095c:	02002825 	move	a1,s0
   10960:	0c000000 	jal	0 <func_800FF5E0_ovl2>
   10964:	02a03025 	move	a2,s5
   10968:	50400004 	beqzl	v0,1097c <func_8010FC30_ovl2+0x2dc>
   1096c:	8e6e0020 	lw	t6,32(s3)
   10970:	1000003a 	b	10a5c <func_8010FC30_ovl2+0x3bc>
   10974:	24020001 	li	v0,1
   10978:	8e6e0020 	lw	t6,32(s3)
   1097c:	26310001 	addiu	s1,s1,1
   10980:	26100028 	addiu	s0,s0,40
   10984:	022e082a 	slt	at,s1,t6
   10988:	5420ffee 	bnezl	at,10944 <func_8010FC30_ovl2+0x2a4>
   1098c:	920d0000 	lbu	t5,0(s0)
   10990:	8ecf001c 	lw	t7,28(s6)
   10994:	26940001 	addiu	s4,s4,1
   10998:	26520028 	addiu	s2,s2,40
   1099c:	028f082a 	slt	at,s4,t7
   109a0:	5420ffd7 	bnezl	at,10900 <func_8010FC30_ovl2+0x260>
   109a4:	924b0000 	lbu	t3,0(s2)
   109a8:	1000002c 	b	10a5c <func_8010FC30_ovl2+0x3bc>
   109ac:	00001025 	move	v0,zero
   109b0:	8ed8001c 	lw	t8,28(s6)
   109b4:	0000a025 	move	s4,zero
   109b8:	8ed20020 	lw	s2,32(s6)
   109bc:	5b000027 	blezl	t8,10a5c <func_8010FC30_ovl2+0x3bc>
   109c0:	00001025 	move	v0,zero
   109c4:	92590000 	lbu	t9,0(s2)
   109c8:	00008825 	move	s1,zero
   109cc:	02402025 	move	a0,s2
   109d0:	57200004 	bnezl	t9,109e4 <func_8010FC30_ovl2+0x344>
   109d4:	8e680020 	lw	t0,32(s3)
   109d8:	0c000000 	jal	0 <func_800FF5E0_ovl2>
   109dc:	8ec50000 	lw	a1,0(s6)
   109e0:	8e680020 	lw	t0,32(s3)
   109e4:	8e700024 	lw	s0,36(s3)
   109e8:	59000016 	blezl	t0,10a44 <func_8010FC30_ovl2+0x3a4>
   109ec:	8ecb001c 	lw	t3,28(s6)
   109f0:	92090000 	lbu	t1,0(s0)
   109f4:	02002025 	move	a0,s0
   109f8:	55200004 	bnezl	t1,10a0c <func_8010FC30_ovl2+0x36c>
   109fc:	02402025 	move	a0,s2
   10a00:	0c000000 	jal	0 <func_800FF5E0_ovl2>
   10a04:	8e650000 	lw	a1,0(s3)
   10a08:	02402025 	move	a0,s2
   10a0c:	02002825 	move	a1,s0
   10a10:	0c000000 	jal	0 <func_800FF5E0_ovl2>
   10a14:	02a03025 	move	a2,s5
   10a18:	50400004 	beqzl	v0,10a2c <func_8010FC30_ovl2+0x38c>
   10a1c:	8e6a0020 	lw	t2,32(s3)
   10a20:	1000000e 	b	10a5c <func_8010FC30_ovl2+0x3bc>
   10a24:	24020001 	li	v0,1
   10a28:	8e6a0020 	lw	t2,32(s3)
   10a2c:	26310001 	addiu	s1,s1,1
   10a30:	26100028 	addiu	s0,s0,40
   10a34:	022a082a 	slt	at,s1,t2
   10a38:	5420ffee 	bnezl	at,109f4 <func_8010FC30_ovl2+0x354>
   10a3c:	92090000 	lbu	t1,0(s0)
   10a40:	8ecb001c 	lw	t3,28(s6)
   10a44:	26940001 	addiu	s4,s4,1
   10a48:	26520028 	addiu	s2,s2,40
   10a4c:	028b082a 	slt	at,s4,t3
   10a50:	5420ffdd 	bnezl	at,109c8 <func_8010FC30_ovl2+0x328>
   10a54:	92590000 	lbu	t9,0(s2)
   10a58:	00001025 	move	v0,zero
   10a5c:	8fbf0034 	lw	ra,52(sp)
   10a60:	8fb00018 	lw	s0,24(sp)
   10a64:	8fb1001c 	lw	s1,28(sp)
   10a68:	8fb20020 	lw	s2,32(sp)
   10a6c:	8fb30024 	lw	s3,36(sp)
   10a70:	8fb40028 	lw	s4,40(sp)
   10a74:	8fb5002c 	lw	s5,44(sp)
   10a78:	8fb60030 	lw	s6,48(sp)
   10a7c:	03e00008 	jr	ra
   10a80:	27bd0038 	addiu	sp,sp,56

00010a84 <func_80110014>:
func_80110014():
   10a84:	3c014780 	lui	at,0x4780
   10a88:	44810000 	mtc1	at,$f0
   10a8c:	c7a40010 	lwc1	$f4,16(sp)
   10a90:	afa7000c 	sw	a3,12(sp)
   10a94:	3c09ffff 	lui	t1,0xffff
   10a98:	46002182 	mul.s	$f6,$f4,$f0
   10a9c:	ac800004 	sw	zero,4(a0)
   10aa0:	ac800024 	sw	zero,36(a0)
   10aa4:	44857000 	mtc1	a1,$f14
   10aa8:	44866000 	mtc1	a2,$f12
   10aac:	4600320d 	trunc.w.s	$f8,$f6
   10ab0:	44024000 	mfc1	v0,$f8
   10ab4:	00000000 	nop
   10ab8:	0002c400 	sll	t8,v0,0x10
   10abc:	0309c824 	and	t9,t8,t1
   10ac0:	00497824 	and	t7,v0,t1
   10ac4:	ac8f0000 	sw	t7,0(a0)
   10ac8:	ac990020 	sw	t9,32(a0)
   10acc:	c7aa0014 	lwc1	$f10,20(sp)
   10ad0:	ac80000c 	sw	zero,12(a0)
   10ad4:	ac80002c 	sw	zero,44(a0)
   10ad8:	46005402 	mul.s	$f16,$f10,$f0
   10adc:	ac800010 	sw	zero,16(a0)
   10ae0:	ac800030 	sw	zero,48(a0)
   10ae4:	4600848d 	trunc.w.s	$f18,$f16
   10ae8:	44039000 	mfc1	v1,$f18
   10aec:	00000000 	nop
   10af0:	00035c03 	sra	t3,v1,0x10
   10af4:	316cffff 	andi	t4,t3,0xffff
   10af8:	306dffff 	andi	t5,v1,0xffff
   10afc:	ac8c0008 	sw	t4,8(a0)
   10b00:	ac8d0028 	sw	t5,40(a0)
   10b04:	c7a40018 	lwc1	$f4,24(sp)
   10b08:	46002182 	mul.s	$f6,$f4,$f0
   10b0c:	00000000 	nop
   10b10:	46007282 	mul.s	$f10,$f14,$f0
   10b14:	00000000 	nop
   10b18:	46006482 	mul.s	$f18,$f12,$f0
   10b1c:	4600320d 	trunc.w.s	$f8,$f6
   10b20:	4600910d 	trunc.w.s	$f4,$f18
   10b24:	44054000 	mfc1	a1,$f8
   10b28:	4600540d 	trunc.w.s	$f16,$f10
   10b2c:	44062000 	mfc1	a2,$f4
   10b30:	0005c400 	sll	t8,a1,0x10
   10b34:	0309c824 	and	t9,t8,t1
   10b38:	44078000 	mfc1	a3,$f16
   10b3c:	ac990034 	sw	t9,52(a0)
   10b40:	00a97824 	and	t7,a1,t1
   10b44:	00066c03 	sra	t5,a2,0x10
   10b48:	0007c400 	sll	t8,a3,0x10
   10b4c:	ac8f0014 	sw	t7,20(a0)
   10b50:	31aeffff 	andi	t6,t5,0xffff
   10b54:	0309c824 	and	t9,t8,t1
   10b58:	30caffff 	andi	t2,a2,0xffff
   10b5c:	00e96024 	and	t4,a3,t1
   10b60:	018e7825 	or	t7,t4,t6
   10b64:	032a5825 	or	t3,t9,t2
   10b68:	ac8f0018 	sw	t7,24(a0)
   10b6c:	ac8b0038 	sw	t3,56(a0)
   10b70:	c7a6000c 	lwc1	$f6,12(sp)
   10b74:	46003202 	mul.s	$f8,$f6,$f0
   10b78:	4600428d 	trunc.w.s	$f10,$f8
   10b7c:	44085000 	mfc1	t0,$f10
   10b80:	00000000 	nop
   10b84:	01096024 	and	t4,t0,t1
   10b88:	00087c00 	sll	t7,t0,0x10
   10b8c:	358e0001 	ori	t6,t4,0x1
   10b90:	01e9c024 	and	t8,t7,t1
   10b94:	ac8e001c 	sw	t6,28(a0)
   10b98:	03e00008 	jr	ra
   10b9c:	ac98003c 	sw	t8,60(a0)

00010ba0 <func_80110130>:
func_80110130():
   10ba0:	03e00008 	jr	ra
   10ba4:	00000000 	nop

00010ba8 <func_80110138_ovl2>:
func_80110138_ovl2():
   10ba8:	afa40000 	sw	a0,0(sp)
   10bac:	afa50004 	sw	a1,4(sp)
   10bb0:	afa60008 	sw	a2,8(sp)
   10bb4:	03e00008 	jr	ra
   10bb8:	afa7000c 	sw	a3,12(sp)
   10bbc:	00000000 	nop

00010bc0 <func_80110150_ovl2>:
func_80110150_ovl2():
   10bc0:	27bdff80 	addiu	sp,sp,-128
   10bc4:	afbf0034 	sw	ra,52(sp)
   10bc8:	afb70030 	sw	s7,48(sp)
   10bcc:	afb6002c 	sw	s6,44(sp)
   10bd0:	afb50028 	sw	s5,40(sp)
   10bd4:	afb40024 	sw	s4,36(sp)
   10bd8:	afb30020 	sw	s3,32(sp)
   10bdc:	afb2001c 	sw	s2,28(sp)
   10be0:	afb10018 	sw	s1,24(sp)
   10be4:	afb00014 	sw	s0,20(sp)
   10be8:	a0800002 	sb	zero,2(a0)
   10bec:	a0800003 	sb	zero,3(a0)
   10bf0:	3c030000 	lui	v1,0x0
   10bf4:	8c630000 	lw	v1,0(v1)
   10bf8:	3c140000 	lui	s4,0x0
   10bfc:	0080b825 	move	s7,a0
   10c00:	26940000 	addiu	s4,s4,0
   10c04:	1860007f 	blez	v1,10e04 <func_80110150_ovl2+0x244>
   10c08:	0000a825 	move	s5,zero
   10c0c:	3c020000 	lui	v0,0x0
   10c10:	3c160000 	lui	s6,0x0
   10c14:	3c120000 	lui	s2,0x0
   10c18:	26520000 	addiu	s2,s2,0
   10c1c:	26d60000 	addiu	s6,s6,0
   10c20:	8c420000 	lw	v0,0(v0)
   10c24:	27b3004c 	addiu	s3,sp,76
   10c28:	00008025 	move	s0,zero
   10c2c:	18400071 	blez	v0,10df4 <func_80110150_ovl2+0x234>
   10c30:	02c08825 	move	s1,s6
   10c34:	02802025 	move	a0,s4
   10c38:	02202825 	move	a1,s1
   10c3c:	0c000000 	jal	0 <func_800FF5E0_ovl2>
   10c40:	02603025 	move	a2,s3
   10c44:	50400064 	beqzl	v0,10dd8 <func_80110150_ovl2+0x218>
   10c48:	8e420000 	lw	v0,0(s2)
   10c4c:	96220004 	lhu	v0,4(s1)
   10c50:	8e900000 	lw	s0,0(s4)
   10c54:	2401ffff 	li	at,-1
   10c58:	304e0001 	andi	t6,v0,0x1
   10c5c:	11c0002a 	beqz	t6,10d08 <func_80110150_ovl2+0x148>
   10c60:	304d0006 	andi	t5,v0,0x6
   10c64:	16010003 	bne	s0,at,10c74 <func_80110150_ovl2+0xb4>
   10c68:	00000000 	nop
   10c6c:	10000066 	b	10e08 <func_80110150_ovl2+0x248>
   10c70:	00001025 	move	v0,zero
   10c74:	16000011 	bnez	s0,10cbc <func_80110150_ovl2+0xfc>
   10c78:	3c0f0000 	lui	t7,0x0
   10c7c:	91ef0000 	lbu	t7,0(t7)
   10c80:	24010015 	li	at,21
   10c84:	11e1000b 	beq	t7,at,10cb4 <func_80110150_ovl2+0xf4>
   10c88:	00000000 	nop
   10c8c:	0c000000 	jal	0 <func_800FF5E0_ovl2>
   10c90:	02002025 	move	a0,s0
   10c94:	14400007 	bnez	v0,10cb4 <func_80110150_ovl2+0xf4>
   10c98:	3c010000 	lui	at,0x0
   10c9c:	44802000 	mtc1	zero,$f4
   10ca0:	c4260000 	lwc1	$f6,0(at)
   10ca4:	46062032 	c.eq.s	$f4,$f6
   10ca8:	00000000 	nop
   10cac:	45020004 	bc1fl	10cc0 <func_80110150_ovl2+0x100>
   10cb0:	8e980010 	lw	t8,16(s4)
   10cb4:	10000054 	b	10e08 <func_80110150_ovl2+0x248>
   10cb8:	00001025 	move	v0,zero
   10cbc:	8e980010 	lw	t8,16(s4)
   10cc0:	3c018000 	lui	at,0x8000
   10cc4:	34210004 	ori	at,at,0x4
   10cc8:	0301c824 	and	t9,t8,at
   10ccc:	13200004 	beqz	t9,10ce0 <func_80110150_ovl2+0x120>
   10cd0:	24090010 	li	t1,16
   10cd4:	24080011 	li	t0,17
   10cd8:	10000002 	b	10ce4 <func_80110150_ovl2+0x124>
   10cdc:	a2e80003 	sb	t0,3(s7)
   10ce0:	a2e90003 	sb	t1,3(s7)
   10ce4:	928a0008 	lbu	t2,8(s4)
   10ce8:	24020001 	li	v0,1
   10cec:	a2ea0000 	sb	t2,0(s7)
   10cf0:	928b0009 	lbu	t3,9(s4)
   10cf4:	a2eb0001 	sb	t3,1(s7)
   10cf8:	8e8c0014 	lw	t4,20(s4)
   10cfc:	aef0000c 	sw	s0,12(s7)
   10d00:	10000041 	b	10e08 <func_80110150_ovl2+0x248>
   10d04:	aeec0008 	sw	t4,8(s7)
   10d08:	11a00016 	beqz	t5,10d64 <func_80110150_ovl2+0x1a4>
   10d0c:	02202025 	move	a0,s1
   10d10:	16000009 	bnez	s0,10d38 <func_80110150_ovl2+0x178>
   10d14:	3c010000 	lui	at,0x0
   10d18:	44804000 	mtc1	zero,$f8
   10d1c:	c42a0000 	lwc1	$f10,0(at)
   10d20:	460a4032 	c.eq.s	$f8,$f10
   10d24:	00000000 	nop
   10d28:	45020004 	bc1fl	10d3c <func_80110150_ovl2+0x17c>
   10d2c:	240e0005 	li	t6,5
   10d30:	10000035 	b	10e08 <func_80110150_ovl2+0x248>
   10d34:	00001025 	move	v0,zero
   10d38:	240e0005 	li	t6,5
   10d3c:	a2ee0002 	sb	t6,2(s7)
   10d40:	aef0000c 	sw	s0,12(s7)
   10d44:	c7b0004c 	lwc1	$f16,76(sp)
   10d48:	24020001 	li	v0,1
   10d4c:	e6f00010 	swc1	$f16,16(s7)
   10d50:	c7b20050 	lwc1	$f18,80(sp)
   10d54:	e6f20014 	swc1	$f18,20(s7)
   10d58:	c7a40054 	lwc1	$f4,84(sp)
   10d5c:	1000002a 	b	10e08 <func_80110150_ovl2+0x248>
   10d60:	e6e40018 	swc1	$f4,24(s7)
   10d64:	a2e00002 	sb	zero,2(s7)
   10d68:	02802825 	move	a1,s4
   10d6c:	0c000000 	jal	0 <func_800FF5E0_ovl2>
   10d70:	02e03025 	move	a2,s7
   10d74:	02202025 	move	a0,s1
   10d78:	02802825 	move	a1,s4
   10d7c:	0c000000 	jal	0 <func_800FF5E0_ovl2>
   10d80:	02603025 	move	a2,s3
   10d84:	92ef0002 	lbu	t7,2(s7)
   10d88:	11e00010 	beqz	t7,10dcc <func_80110150_ovl2+0x20c>
   10d8c:	00000000 	nop
   10d90:	92980008 	lbu	t8,8(s4)
   10d94:	24020001 	li	v0,1
   10d98:	a2f80000 	sb	t8,0(s7)
   10d9c:	92990009 	lbu	t9,9(s4)
   10da0:	a2f90001 	sb	t9,1(s7)
   10da4:	8e880014 	lw	t0,20(s4)
   10da8:	aef0000c 	sw	s0,12(s7)
   10dac:	aee80008 	sw	t0,8(s7)
   10db0:	c7a6004c 	lwc1	$f6,76(sp)
   10db4:	e6e60010 	swc1	$f6,16(s7)
   10db8:	c7a80050 	lwc1	$f8,80(sp)
   10dbc:	e6e80014 	swc1	$f8,20(s7)
   10dc0:	c7aa0054 	lwc1	$f10,84(sp)
   10dc4:	10000010 	b	10e08 <func_80110150_ovl2+0x248>
   10dc8:	e6ea0018 	swc1	$f10,24(s7)
   10dcc:	1000000e 	b	10e08 <func_80110150_ovl2+0x248>
   10dd0:	00001025 	move	v0,zero
   10dd4:	8e420000 	lw	v0,0(s2)
   10dd8:	26100001 	addiu	s0,s0,1
   10ddc:	26310028 	addiu	s1,s1,40
   10de0:	0202082a 	slt	at,s0,v0
   10de4:	5420ff94 	bnezl	at,10c38 <func_80110150_ovl2+0x78>
   10de8:	02802025 	move	a0,s4
   10dec:	3c030000 	lui	v1,0x0
   10df0:	8c630000 	lw	v1,0(v1)
   10df4:	26b50001 	addiu	s5,s5,1
   10df8:	02a3082a 	slt	at,s5,v1
   10dfc:	1420ff8a 	bnez	at,10c28 <func_80110150_ovl2+0x68>
   10e00:	26940024 	addiu	s4,s4,36
   10e04:	00001025 	move	v0,zero
   10e08:	8fbf0034 	lw	ra,52(sp)
   10e0c:	8fb00014 	lw	s0,20(sp)
   10e10:	8fb10018 	lw	s1,24(sp)
   10e14:	8fb2001c 	lw	s2,28(sp)
   10e18:	8fb30020 	lw	s3,32(sp)
   10e1c:	8fb40024 	lw	s4,36(sp)
   10e20:	8fb50028 	lw	s5,40(sp)
   10e24:	8fb6002c 	lw	s6,44(sp)
   10e28:	8fb70030 	lw	s7,48(sp)
   10e2c:	03e00008 	jr	ra
   10e30:	27bd0080 	addiu	sp,sp,128

00010e34 <func_801103C4>:
func_801103C4():
   10e34:	2401ffff 	li	at,-1
   10e38:	10810019 	beq	a0,at,10ea0 <func_801103C4+0x6c>
   10e3c:	2402ffff 	li	v0,-1
   10e40:	28810004 	slti	at,a0,4
   10e44:	10200016 	beqz	at,10ea0 <func_801103C4+0x6c>
   10e48:	00047080 	sll	t6,a0,0x2
   10e4c:	3c0f800e 	lui	t7,0x800e
   10e50:	01ee7821 	addu	t7,t7,t6
   10e54:	8def7ce0 	lw	t7,31968(t7)
   10e58:	3c030000 	lui	v1,0x0
   10e5c:	24630000 	addiu	v1,v1,0
   10e60:	15e0000b 	bnez	t7,10e90 <func_801103C4+0x5c>
   10e64:	00000000 	nop
   10e68:	90780005 	lbu	t8,5(v1)
   10e6c:	24010016 	li	at,22
   10e70:	13010007 	beq	t8,at,10e90 <func_801103C4+0x5c>
   10e74:	00000000 	nop
   10e78:	94620068 	lhu	v0,104(v1)
   10e7c:	24010001 	li	at,1
   10e80:	10410003 	beq	v0,at,10e90 <func_801103C4+0x5c>
   10e84:	24010002 	li	at,2
   10e88:	14410003 	bne	v0,at,10e98 <func_801103C4+0x64>
   10e8c:	00000000 	nop
   10e90:	03e00008 	jr	ra
   10e94:	24020001 	li	v0,1
   10e98:	03e00008 	jr	ra
   10e9c:	00001025 	move	v0,zero
   10ea0:	03e00008 	jr	ra
   10ea4:	00000000 	nop

00010ea8 <func_80110438_ovl2>:
func_80110438_ovl2():
   10ea8:	8cae0010 	lw	t6,16(a1)
   10eac:	8ca20000 	lw	v0,0(a1)
   10eb0:	8c830000 	lw	v1,0(a0)
   10eb4:	000e7840 	sll	t7,t6,0x1
   10eb8:	05e00065 	bltz	t7,11050 <func_80110438_ovl2+0x1a8>
   10ebc:	2407ffff 	li	a3,-1
   10ec0:	14670007 	bne	v1,a3,10ee0 <func_80110438_ovl2+0x38>
   10ec4:	24180002 	li	t8,2
   10ec8:	a0d80002 	sb	t8,2(a2)
   10ecc:	8cb9000c 	lw	t9,12(a1)
   10ed0:	a0d90003 	sb	t9,3(a2)
   10ed4:	8ca80014 	lw	t0,20(a1)
   10ed8:	03e00008 	jr	ra
   10edc:	acc80008 	sw	t0,8(a2)
   10ee0:	5047000d 	beql	v0,a3,10f18 <func_80110438_ovl2+0x70>
   10ee4:	8c820010 	lw	v0,16(a0)
   10ee8:	8c890010 	lw	t1,16(a0)
   10eec:	00035880 	sll	t3,v1,0x2
   10ef0:	3c0c800e 	lui	t4,0x800e
   10ef4:	00095000 	sll	t2,t1,0x0
   10ef8:	05400004 	bltz	t2,10f0c <func_80110438_ovl2+0x64>
   10efc:	018b6021 	addu	t4,t4,t3
   10f00:	8d8c7ce0 	lw	t4,31968(t4)
   10f04:	51800004 	beqzl	t4,10f18 <func_80110438_ovl2+0x70>
   10f08:	8c820010 	lw	v0,16(a0)
   10f0c:	03e00008 	jr	ra
   10f10:	a0c00002 	sb	zero,2(a2)
   10f14:	8c820010 	lw	v0,16(a0)
   10f18:	240e0006 	li	t6,6
   10f1c:	3c078013 	lui	a3,0x8013
   10f20:	304d0001 	andi	t5,v0,0x1
   10f24:	11a00003 	beqz	t5,10f34 <func_80110438_ovl2+0x8c>
   10f28:	00027880 	sll	t7,v0,0x2
   10f2c:	10000004 	b	10f40 <func_80110438_ovl2+0x98>
   10f30:	a0ce0002 	sb	t6,2(a2)
   10f34:	05e10002 	bgez	t7,10f40 <func_80110438_ovl2+0x98>
   10f38:	24180002 	li	t8,2
   10f3c:	a0d80002 	sb	t8,2(a2)
   10f40:	90d90002 	lbu	t9,2(a2)
   10f44:	13200007 	beqz	t9,10f64 <func_80110438_ovl2+0xbc>
   10f48:	00000000 	nop
   10f4c:	8c880010 	lw	t0,16(a0)
   10f50:	000848c0 	sll	t1,t0,0x3
   10f54:	0521003e 	bgez	t1,11050 <func_80110438_ovl2+0x1a8>
   10f58:	00000000 	nop
   10f5c:	03e00008 	jr	ra
   10f60:	a0c00002 	sb	zero,2(a2)
   10f64:	94e7e828 	lhu	a3,-6104(a3)
   10f68:	24010001 	li	at,1
   10f6c:	00031080 	sll	v0,v1,0x2
   10f70:	10e10004 	beq	a3,at,10f84 <func_80110438_ovl2+0xdc>
   10f74:	240a0001 	li	t2,1
   10f78:	24010002 	li	at,2
   10f7c:	14e10007 	bne	a3,at,10f9c <func_80110438_ovl2+0xf4>
   10f80:	3c0f800e 	lui	t7,0x800e
   10f84:	44800000 	mtc1	zero,$f0
   10f88:	3c01800e 	lui	at,0x800e
   10f8c:	a0ca0002 	sb	t2,2(a2)
   10f90:	00220821 	addu	at,at,v0
   10f94:	03e00008 	jr	ra
   10f98:	e4207b20 	swc1	$f0,31520(at)
   10f9c:	8cab000c 	lw	t3,12(a1)
   10fa0:	44800000 	mtc1	zero,$f0
   10fa4:	3c0e0000 	lui	t6,0x0
   10fa8:	a0cb0003 	sb	t3,3(a2)
   10fac:	8c8c0010 	lw	t4,16(a0)
   10fb0:	3c070800 	lui	a3,0x800
   10fb4:	25ce0000 	addiu	t6,t6,0
   10fb8:	000c6900 	sll	t5,t4,0x4
   10fbc:	05a00006 	bltz	t5,10fd8 <func_80110438_ovl2+0x130>
   10fc0:	25ef7b20 	addiu	t7,t7,31520
   10fc4:	004e1821 	addu	v1,v0,t6
   10fc8:	c4640000 	lwc1	$f4,0(v1)
   10fcc:	c4a60004 	lwc1	$f6,4(a1)
   10fd0:	46062201 	sub.s	$f8,$f4,$f6
   10fd4:	e4680000 	swc1	$f8,0(v1)
   10fd8:	004f1821 	addu	v1,v0,t7
   10fdc:	c46a0000 	lwc1	$f10,0(v1)
   10fe0:	24180001 	li	t8,1
   10fe4:	4600503e 	c.le.s	$f10,$f0
   10fe8:	00000000 	nop
   10fec:	45020005 	bc1fl	11004 <func_80110438_ovl2+0x15c>
   10ff0:	24190002 	li	t9,2
   10ff4:	a0d80002 	sb	t8,2(a2)
   10ff8:	03e00008 	jr	ra
   10ffc:	e4600000 	swc1	$f0,0(v1)
   11000:	24190002 	li	t9,2
   11004:	a0d90002 	sb	t9,2(a2)
   11008:	8c890010 	lw	t1,16(a0)
   1100c:	3c080000 	lui	t0,0x0
   11010:	25080000 	addiu	t0,t0,0
   11014:	01275024 	and	t2,t1,a3
   11018:	1540000c 	bnez	t2,1104c <func_80110438_ovl2+0x1a4>
   1101c:	00481821 	addu	v1,v0,t0
   11020:	3c0b800e 	lui	t3,0x800e
   11024:	01625821 	addu	t3,t3,v0
   11028:	8d6bd710 	lw	t3,-10480(t3)
   1102c:	24010017 	li	at,23
   11030:	240c000f 	li	t4,15
   11034:	15610003 	bne	t3,at,11044 <func_80110438_ovl2+0x19c>
   11038:	240d002d 	li	t5,45
   1103c:	03e00008 	jr	ra
   11040:	ac6c0000 	sw	t4,0(v1)
   11044:	03e00008 	jr	ra
   11048:	ac6d0000 	sw	t5,0(v1)
   1104c:	ac600000 	sw	zero,0(v1)
   11050:	03e00008 	jr	ra
   11054:	00000000 	nop

00011058 <func_801105E8_ovl2>:
func_801105E8_ovl2():
   11058:	27bdffe0 	addiu	sp,sp,-32
   1105c:	afbf0014 	sw	ra,20(sp)
   11060:	afa60028 	sw	a2,40(sp)
   11064:	8c8e0000 	lw	t6,0(a0)
   11068:	3c030000 	lui	v1,0x0
   1106c:	00803825 	move	a3,a0
   11070:	afae001c 	sw	t6,28(sp)
   11074:	8c8f0010 	lw	t7,16(a0)
   11078:	24630000 	addiu	v1,v1,0
   1107c:	3c010000 	lui	at,0x0
   11080:	000fc040 	sll	t8,t7,0x1
   11084:	07000006 	bltz	t8,110a0 <func_801105E8_ovl2+0x48>
   11088:	00000000 	nop
   1108c:	8c790024 	lw	t9,36(v1)
   11090:	3c0a0000 	lui	t2,0x0
   11094:	33290001 	andi	t1,t9,0x1
   11098:	11200003 	beqz	t1,110a8 <func_801105E8_ovl2+0x50>
   1109c:	00000000 	nop
   110a0:	1000012f 	b	11560 <func_801105E8_ovl2+0x508>
   110a4:	ac200000 	sw	zero,0(at)
   110a8:	954a0000 	lhu	t2,0(t2)
   110ac:	3c0d0000 	lui	t5,0x0
   110b0:	8fb8001c 	lw	t8,28(sp)
   110b4:	000a5a03 	sra	t3,t2,0x8
   110b8:	316c0001 	andi	t4,t3,0x1
   110bc:	11800008 	beqz	t4,110e0 <func_801105E8_ovl2+0x88>
   110c0:	2401ffff 	li	at,-1
   110c4:	8dad0000 	lw	t5,0(t5)
   110c8:	3c01800f 	lui	at,0x800f
   110cc:	8dae0000 	lw	t6,0(t5)
   110d0:	000e7880 	sll	t7,t6,0x2
   110d4:	002f0821 	addu	at,at,t7
   110d8:	10000121 	b	11560 <func_801105E8_ovl2+0x508>
   110dc:	ac2083e0 	sw	zero,-31776(at)
   110e0:	5301003b 	beql	t8,at,111d0 <func_801105E8_ovl2+0x178>
   110e4:	44802000 	mtc1	zero,$f4
   110e8:	94790068 	lhu	t9,104(v1)
   110ec:	24010002 	li	at,2
   110f0:	00002025 	move	a0,zero
   110f4:	17210003 	bne	t9,at,11104 <func_801105E8_ovl2+0xac>
   110f8:	3c010000 	lui	at,0x0
   110fc:	10000118 	b	11560 <func_801105E8_ovl2+0x508>
   11100:	ac200000 	sw	zero,0(at)
   11104:	afa50024 	sw	a1,36(sp)
   11108:	0c000000 	jal	0 <func_800FF5E0_ovl2>
   1110c:	afa70020 	sw	a3,32(sp)
   11110:	3c030000 	lui	v1,0x0
   11114:	24630000 	addiu	v1,v1,0
   11118:	8fa50024 	lw	a1,36(sp)
   1111c:	14400005 	bnez	v0,11134 <func_801105E8_ovl2+0xdc>
   11120:	8fa70020 	lw	a3,32(sp)
   11124:	8ca90010 	lw	t1,16(a1)
   11128:	00095000 	sll	t2,t1,0x0
   1112c:	05430028 	bgezl	t2,111d0 <func_801105E8_ovl2+0x178>
   11130:	44802000 	mtc1	zero,$f4
   11134:	8fab001c 	lw	t3,28(sp)
   11138:	3c0d800e 	lui	t5,0x800e
   1113c:	000b6080 	sll	t4,t3,0x2
   11140:	01ac6821 	addu	t5,t5,t4
   11144:	8dad7ce0 	lw	t5,31968(t5)
   11148:	55a00006 	bnezl	t5,11164 <func_801105E8_ovl2+0x10c>
   1114c:	90780005 	lbu	t8,5(v1)
   11150:	8cee0010 	lw	t6,16(a3)
   11154:	000e7800 	sll	t7,t6,0x0
   11158:	05e10019 	bgez	t7,111c0 <func_801105E8_ovl2+0x168>
   1115c:	00000000 	nop
   11160:	90780005 	lbu	t8,5(v1)
   11164:	24010015 	li	at,21
   11168:	13010006 	beq	t8,at,11184 <func_801105E8_ovl2+0x12c>
   1116c:	00000000 	nop
   11170:	8c790028 	lw	t9,40(v1)
   11174:	24090001 	li	t1,1
   11178:	24040015 	li	a0,21
   1117c:	13200004 	beqz	t9,11190 <func_801105E8_ovl2+0x138>
   11180:	24050016 	li	a1,22
   11184:	3c010000 	lui	at,0x0
   11188:	100000f5 	b	11560 <func_801105E8_ovl2+0x508>
   1118c:	ac200000 	sw	zero,0(at)
   11190:	0c000000 	jal	0 <func_800FF5E0_ovl2>
   11194:	ac690024 	sw	t1,36(v1)
   11198:	3c030000 	lui	v1,0x0
   1119c:	24630000 	addiu	v1,v1,0
   111a0:	8c6a0034 	lw	t2,52(v1)
   111a4:	2401fff8 	li	at,-8
   111a8:	01415824 	and	t3,t2,at
   111ac:	0c000000 	jal	0 <func_800FF5E0_ovl2>
   111b0:	ac6b0034 	sw	t3,52(v1)
   111b4:	3c030000 	lui	v1,0x0
   111b8:	10000064 	b	1134c <func_801105E8_ovl2+0x2f4>
   111bc:	24630000 	addiu	v1,v1,0
   111c0:	3c010000 	lui	at,0x0
   111c4:	100000e6 	b	11560 <func_801105E8_ovl2+0x508>
   111c8:	ac200000 	sw	zero,0(at)
   111cc:	44802000 	mtc1	zero,$f4
   111d0:	c4e60008 	lwc1	$f6,8(a3)
   111d4:	240c0001 	li	t4,1
   111d8:	24040015 	li	a0,21
   111dc:	46062032 	c.eq.s	$f4,$f6
   111e0:	00000000 	nop
   111e4:	45020011 	bc1fl	1122c <func_801105E8_ovl2+0x1d4>
   111e8:	8caf0010 	lw	t7,16(a1)
   111ec:	ac6c0024 	sw	t4,36(v1)
   111f0:	0c000000 	jal	0 <func_800FF5E0_ovl2>
   111f4:	24050016 	li	a1,22
   111f8:	3c030000 	lui	v1,0x0
   111fc:	24630000 	addiu	v1,v1,0
   11200:	8c6d0034 	lw	t5,52(v1)
   11204:	2401fff8 	li	at,-8
   11208:	01a17024 	and	t6,t5,at
   1120c:	0c000000 	jal	0 <func_800FF5E0_ovl2>
   11210:	ac6e0034 	sw	t6,52(v1)
   11214:	0c000000 	jal	0 <func_800FF5E0_ovl2>
   11218:	240401e9 	li	a0,489
   1121c:	3c030000 	lui	v1,0x0
   11220:	1000004a 	b	1134c <func_801105E8_ovl2+0x2f4>
   11224:	24630000 	addiu	v1,v1,0
   11228:	8caf0010 	lw	t7,16(a1)
   1122c:	24190006 	li	t9,6
   11230:	3c010000 	lui	at,0x0
   11234:	31f80001 	andi	t8,t7,0x1
   11238:	13000003 	beqz	t8,11248 <func_801105E8_ovl2+0x1f0>
   1123c:	00000000 	nop
   11240:	100000c7 	b	11560 <func_801105E8_ovl2+0x508>
   11244:	ac390000 	sw	t9,0(at)
   11248:	0c000000 	jal	0 <func_800FF5E0_ovl2>
   1124c:	afa70020 	sw	a3,32(sp)
   11250:	8fa70020 	lw	a3,32(sp)
   11254:	c4ec0008 	lwc1	$f12,8(a3)
   11258:	0c000000 	jal	0 <func_800FF5E0_ovl2>
   1125c:	46006307 	neg.s	$f12,$f12
   11260:	3c030000 	lui	v1,0x0
   11264:	24630000 	addiu	v1,v1,0
   11268:	14400013 	bnez	v0,112b8 <func_801105E8_ovl2+0x260>
   1126c:	8fa70020 	lw	a3,32(sp)
   11270:	90690005 	lbu	t1,5(v1)
   11274:	24010015 	li	at,21
   11278:	240a0001 	li	t2,1
   1127c:	1121000b 	beq	t1,at,112ac <func_801105E8_ovl2+0x254>
   11280:	3c010000 	lui	at,0x0
   11284:	ac2a0000 	sw	t2,0(at)
   11288:	8c6b0028 	lw	t3,40(v1)
   1128c:	24040016 	li	a0,22
   11290:	556000b4 	bnezl	t3,11564 <func_801105E8_ovl2+0x50c>
   11294:	8fbf0014 	lw	ra,20(sp)
   11298:	0c000000 	jal	0 <func_800FF5E0_ovl2>
   1129c:	24050017 	li	a1,23
   112a0:	3c030000 	lui	v1,0x0
   112a4:	100000a8 	b	11548 <func_801105E8_ovl2+0x4f0>
   112a8:	24630000 	addiu	v1,v1,0
   112ac:	3c010000 	lui	at,0x0
   112b0:	100000a5 	b	11548 <func_801105E8_ovl2+0x4f0>
   112b4:	ac200000 	sw	zero,0(at)
   112b8:	906c0005 	lbu	t4,5(v1)
   112bc:	24010015 	li	at,21
   112c0:	240d0001 	li	t5,1
   112c4:	15810003 	bne	t4,at,112d4 <func_801105E8_ovl2+0x27c>
   112c8:	3c010000 	lui	at,0x0
   112cc:	100000a4 	b	11560 <func_801105E8_ovl2+0x508>
   112d0:	ac200000 	sw	zero,0(at)
   112d4:	ac6d0024 	sw	t5,36(v1)
   112d8:	90ee000c 	lbu	t6,12(a3)
   112dc:	3c010000 	lui	at,0x0
   112e0:	24040014 	li	a0,20
   112e4:	000e7c00 	sll	t7,t6,0x10
   112e8:	25f80002 	addiu	t8,t7,2
   112ec:	ac380000 	sw	t8,0(at)
   112f0:	8c790028 	lw	t9,40(v1)
   112f4:	24050016 	li	a1,22
   112f8:	5720009a 	bnezl	t9,11564 <func_801105E8_ovl2+0x50c>
   112fc:	8fbf0014 	lw	ra,20(sp)
   11300:	0c000000 	jal	0 <func_800FF5E0_ovl2>
   11304:	afa70020 	sw	a3,32(sp)
   11308:	3c030000 	lui	v1,0x0
   1130c:	24630000 	addiu	v1,v1,0
   11310:	8c690034 	lw	t1,52(v1)
   11314:	8fa70020 	lw	a3,32(sp)
   11318:	2401fff8 	li	at,-8
   1131c:	01215024 	and	t2,t1,at
   11320:	ac6a0034 	sw	t2,52(v1)
   11324:	44804000 	mtc1	zero,$f8
   11328:	c4ea0008 	lwc1	$f10,8(a3)
   1132c:	460a4032 	c.eq.s	$f8,$f10
   11330:	00000000 	nop
   11334:	45030006 	bc1tl	11350 <func_801105E8_ovl2+0x2f8>
   11338:	8fab001c 	lw	t3,28(sp)
   1133c:	0c000000 	jal	0 <func_800FF5E0_ovl2>
   11340:	00000000 	nop
   11344:	3c030000 	lui	v1,0x0
   11348:	24630000 	addiu	v1,v1,0
   1134c:	8fab001c 	lw	t3,28(sp)
   11350:	2408ffff 	li	t0,-1
   11354:	3c06800e 	lui	a2,0x800e
   11358:	11680004 	beq	t3,t0,1136c <func_801105E8_ovl2+0x314>
   1135c:	000b1080 	sll	v0,t3,0x2
   11360:	00c23021 	addu	a2,a2,v0
   11364:	8cc65f90 	lw	a2,24464(a2)
   11368:	15060039 	bne	t0,a2,11450 <func_801105E8_ovl2+0x3f8>
   1136c:	3c010000 	lui	at,0x0
   11370:	0c000000 	jal	0 <func_800FF5E0_ovl2>
   11374:	c42c0000 	lwc1	$f12,0(at)
   11378:	3c010000 	lui	at,0x0
   1137c:	e7a00018 	swc1	$f0,24(sp)
   11380:	0c000000 	jal	0 <func_800FF5E0_ovl2>
   11384:	c42c0000 	lwc1	$f12,0(at)
   11388:	8fac0028 	lw	t4,40(sp)
   1138c:	3c010000 	lui	at,0x0
   11390:	c4320000 	lwc1	$f18,0(at)
   11394:	c5900020 	lwc1	$f16,32(t4)
   11398:	3c010000 	lui	at,0x0
   1139c:	c42a0000 	lwc1	$f10,0(at)
   113a0:	46128101 	sub.s	$f4,$f16,$f18
   113a4:	c5880018 	lwc1	$f8,24(t4)
   113a8:	c7b20018 	lwc1	$f18,24(sp)
   113ac:	3c030000 	lui	v1,0x0
   113b0:	460a4401 	sub.s	$f16,$f8,$f10
   113b4:	46002182 	mul.s	$f6,$f4,$f0
   113b8:	44804000 	mtc1	zero,$f8
   113bc:	24630000 	addiu	v1,v1,0
   113c0:	46109102 	mul.s	$f4,$f18,$f16
   113c4:	3c01bf80 	lui	at,0xbf80
   113c8:	46043080 	add.s	$f2,$f6,$f4
   113cc:	4602403e 	c.le.s	$f8,$f2
   113d0:	00000000 	nop
   113d4:	45020011 	bc1fl	1141c <func_801105E8_ovl2+0x3c4>
   113d8:	44818000 	mtc1	at,$f16
   113dc:	3c013f80 	lui	at,0x3f80
   113e0:	44815000 	mtc1	at,$f10
   113e4:	3c010000 	lui	at,0x0
   113e8:	c4320000 	lwc1	$f18,0(at)
   113ec:	240dffff 	li	t5,-1
   113f0:	3c01800f 	lui	at,0x800f
   113f4:	46125032 	c.eq.s	$f10,$f18
   113f8:	240e0001 	li	t6,1
   113fc:	45000004 	bc1f	11410 <func_801105E8_ovl2+0x3b8>
   11400:	00000000 	nop
   11404:	3c01800f 	lui	at,0x800f
   11408:	1000004f 	b	11548 <func_801105E8_ovl2+0x4f0>
   1140c:	ac2d0000 	sw	t5,0(at)
   11410:	1000004d 	b	11548 <func_801105E8_ovl2+0x4f0>
   11414:	ac2e0000 	sw	t6,0(at)
   11418:	44818000 	mtc1	at,$f16
   1141c:	3c010000 	lui	at,0x0
   11420:	c4260000 	lwc1	$f6,0(at)
   11424:	240fffff 	li	t7,-1
   11428:	3c01800f 	lui	at,0x800f
   1142c:	46068032 	c.eq.s	$f16,$f6
   11430:	24180001 	li	t8,1
   11434:	45000004 	bc1f	11448 <func_801105E8_ovl2+0x3f0>
   11438:	00000000 	nop
   1143c:	3c010000 	lui	at,0x0
   11440:	10000041 	b	11548 <func_801105E8_ovl2+0x4f0>
   11444:	ac2f0000 	sw	t7,0(at)
   11448:	1000003f 	b	11548 <func_801105E8_ovl2+0x4f0>
   1144c:	ac380000 	sw	t8,0(at)
   11450:	8c640170 	lw	a0,368(v1)
   11454:	3c07800e 	lui	a3,0x800e
   11458:	00e23821 	addu	a3,a3,v0
   1145c:	14860011 	bne	a0,a2,114a4 <func_801105E8_ovl2+0x44c>
   11460:	3c050000 	lui	a1,0x0
   11464:	3c010000 	lui	at,0x0
   11468:	c4240000 	lwc1	$f4,0(at)
   1146c:	3c01800e 	lui	at,0x800e
   11470:	00220821 	addu	at,at,v0
   11474:	c4286bd0 	lwc1	$f8,27600(at)
   11478:	3c01800f 	lui	at,0x800f
   1147c:	24190001 	li	t9,1
   11480:	4608203c 	c.lt.s	$f4,$f8
   11484:	00000000 	nop
   11488:	45000004 	bc1f	1149c <func_801105E8_ovl2+0x444>
   1148c:	00000000 	nop
   11490:	3c010000 	lui	at,0x0
   11494:	1000002c 	b	11548 <func_801105E8_ovl2+0x4f0>
   11498:	ac280000 	sw	t0,0(at)
   1149c:	1000002a 	b	11548 <func_801105E8_ovl2+0x4f0>
   114a0:	ac390000 	sw	t9,0(at)
   114a4:	8ca50000 	lw	a1,0(a1)
   114a8:	0c000000 	jal	0 <func_800FF5E0_ovl2>
   114ac:	8ce76bd0 	lw	a3,27600(a3)
   114b0:	3c010000 	lui	at,0x0
   114b4:	c42a0000 	lwc1	$f10,0(at)
   114b8:	3c030000 	lui	v1,0x0
   114bc:	24630000 	addiu	v1,v1,0
   114c0:	460a0032 	c.eq.s	$f0,$f10
   114c4:	3c0b0000 	lui	t3,0x0
   114c8:	4501000d 	bc1t	11500 <func_801105E8_ovl2+0x4a8>
   114cc:	00000000 	nop
   114d0:	44809000 	mtc1	zero,$f18
   114d4:	2409ffff 	li	t1,-1
   114d8:	240a0001 	li	t2,1
   114dc:	4600903c 	c.lt.s	$f18,$f0
   114e0:	3c01800f 	lui	at,0x800f
   114e4:	45000004 	bc1f	114f8 <func_801105E8_ovl2+0x4a0>
   114e8:	00000000 	nop
   114ec:	3c010000 	lui	at,0x0
   114f0:	10000015 	b	11548 <func_801105E8_ovl2+0x4f0>
   114f4:	ac290000 	sw	t1,0(at)
   114f8:	10000013 	b	11548 <func_801105E8_ovl2+0x4f0>
   114fc:	ac2a0000 	sw	t2,0(at)
   11500:	8d6b0000 	lw	t3,0(t3)
   11504:	3c01800e 	lui	at,0x800e
   11508:	44808000 	mtc1	zero,$f16
   1150c:	8d6c0000 	lw	t4,0(t3)
   11510:	240effff 	li	t6,-1
   11514:	240f0001 	li	t7,1
   11518:	000c6880 	sll	t5,t4,0x2
   1151c:	002d0821 	addu	at,at,t5
   11520:	c42664d0 	lwc1	$f6,25808(at)
   11524:	3c01800f 	lui	at,0x800f
   11528:	4606803c 	c.lt.s	$f16,$f6
   1152c:	00000000 	nop
   11530:	45000004 	bc1f	11544 <func_801105E8_ovl2+0x4ec>
   11534:	00000000 	nop
   11538:	3c010000 	lui	at,0x0
   1153c:	10000002 	b	11548 <func_801105E8_ovl2+0x4f0>
   11540:	ac2e0000 	sw	t6,0(at)
   11544:	ac2f0000 	sw	t7,0(at)
   11548:	8c7800a0 	lw	t8,160(v1)
   1154c:	24010012 	li	at,18
   11550:	53010003 	beql	t8,at,11560 <func_801105E8_ovl2+0x508>
   11554:	a06000b1 	sb	zero,177(v1)
   11558:	ac6000a0 	sw	zero,160(v1)
   1155c:	a06000b1 	sb	zero,177(v1)
   11560:	8fbf0014 	lw	ra,20(sp)
   11564:	27bd0020 	addiu	sp,sp,32
   11568:	03e00008 	jr	ra
   1156c:	00000000 	nop

00011570 <func_80110B00_ovl2>:
func_80110B00_ovl2():
   11570:	27bdff80 	addiu	sp,sp,-128
   11574:	afbf0034 	sw	ra,52(sp)
   11578:	afb70030 	sw	s7,48(sp)
   1157c:	afb6002c 	sw	s6,44(sp)
   11580:	afb50028 	sw	s5,40(sp)
   11584:	afb40024 	sw	s4,36(sp)
   11588:	afb30020 	sw	s3,32(sp)
   1158c:	afb2001c 	sw	s2,28(sp)
   11590:	afb10018 	sw	s1,24(sp)
   11594:	afb00014 	sw	s0,20(sp)
   11598:	a0800002 	sb	zero,2(a0)
   1159c:	a0800003 	sb	zero,3(a0)
   115a0:	3c030000 	lui	v1,0x0
   115a4:	8c630000 	lw	v1,0(v1)
   115a8:	3c140000 	lui	s4,0x0
   115ac:	0080b825 	move	s7,a0
   115b0:	26940000 	addiu	s4,s4,0
   115b4:	18600055 	blez	v1,1170c <func_80110B00_ovl2+0x19c>
   115b8:	0000a825 	move	s5,zero
   115bc:	3c020000 	lui	v0,0x0
   115c0:	3c160000 	lui	s6,0x0
   115c4:	3c130000 	lui	s3,0x0
   115c8:	26730000 	addiu	s3,s3,0
   115cc:	26d60000 	addiu	s6,s6,0
   115d0:	8c420000 	lw	v0,0(v0)
   115d4:	27b2004c 	addiu	s2,sp,76
   115d8:	00008025 	move	s0,zero
   115dc:	18400047 	blez	v0,116fc <func_80110B00_ovl2+0x18c>
   115e0:	02c08825 	move	s1,s6
   115e4:	02802025 	move	a0,s4
   115e8:	02202825 	move	a1,s1
   115ec:	0c000000 	jal	0 <func_800FF5E0_ovl2>
   115f0:	02403025 	move	a2,s2
   115f4:	5040003a 	beqzl	v0,116e0 <func_80110B00_ovl2+0x170>
   115f8:	8e620000 	lw	v0,0(s3)
   115fc:	962e0004 	lhu	t6,4(s1)
   11600:	8e900000 	lw	s0,0(s4)
   11604:	02202025 	move	a0,s1
   11608:	31cf0001 	andi	t7,t6,0x1
   1160c:	11e00019 	beqz	t7,11674 <func_80110B00_ovl2+0x104>
   11610:	02802825 	move	a1,s4
   11614:	2401ffff 	li	at,-1
   11618:	12010014 	beq	s0,at,1166c <func_80110B00_ovl2+0xfc>
   1161c:	00000000 	nop
   11620:	8e980010 	lw	t8,16(s4)
   11624:	3c018000 	lui	at,0x8000
   11628:	34210004 	ori	at,at,0x4
   1162c:	0301c824 	and	t9,t8,at
   11630:	13200004 	beqz	t9,11644 <func_80110B00_ovl2+0xd4>
   11634:	24090010 	li	t1,16
   11638:	24080011 	li	t0,17
   1163c:	10000002 	b	11648 <func_80110B00_ovl2+0xd8>
   11640:	a2e80003 	sb	t0,3(s7)
   11644:	a2e90003 	sb	t1,3(s7)
   11648:	aef0000c 	sw	s0,12(s7)
   1164c:	928a0008 	lbu	t2,8(s4)
   11650:	24020001 	li	v0,1
   11654:	a2ea0000 	sb	t2,0(s7)
   11658:	928b0009 	lbu	t3,9(s4)
   1165c:	a2eb0001 	sb	t3,1(s7)
   11660:	8e8c0014 	lw	t4,20(s4)
   11664:	1000002a 	b	11710 <func_80110B00_ovl2+0x1a0>
   11668:	aeec0008 	sw	t4,8(s7)
   1166c:	10000028 	b	11710 <func_80110B00_ovl2+0x1a0>
   11670:	00001025 	move	v0,zero
   11674:	a2e00002 	sb	zero,2(s7)
   11678:	0c000000 	jal	0 <func_800FF5E0_ovl2>
   1167c:	02e03025 	move	a2,s7
   11680:	02202025 	move	a0,s1
   11684:	0c000000 	jal	0 <func_800FF5E0_ovl2>
   11688:	02802825 	move	a1,s4
   1168c:	92ed0002 	lbu	t5,2(s7)
   11690:	11a00010 	beqz	t5,116d4 <func_80110B00_ovl2+0x164>
   11694:	00000000 	nop
   11698:	928e0008 	lbu	t6,8(s4)
   1169c:	24020001 	li	v0,1
   116a0:	a2ee0000 	sb	t6,0(s7)
   116a4:	928f0009 	lbu	t7,9(s4)
   116a8:	a2ef0001 	sb	t7,1(s7)
   116ac:	8e980014 	lw	t8,20(s4)
   116b0:	aef80008 	sw	t8,8(s7)
   116b4:	c7a4004c 	lwc1	$f4,76(sp)
   116b8:	e6e40010 	swc1	$f4,16(s7)
   116bc:	c7a60050 	lwc1	$f6,80(sp)
   116c0:	e6e60014 	swc1	$f6,20(s7)
   116c4:	c7a80054 	lwc1	$f8,84(sp)
   116c8:	aef0000c 	sw	s0,12(s7)
   116cc:	10000010 	b	11710 <func_80110B00_ovl2+0x1a0>
   116d0:	e6e80018 	swc1	$f8,24(s7)
   116d4:	1000000e 	b	11710 <func_80110B00_ovl2+0x1a0>
   116d8:	00001025 	move	v0,zero
   116dc:	8e620000 	lw	v0,0(s3)
   116e0:	26100001 	addiu	s0,s0,1
   116e4:	26310028 	addiu	s1,s1,40
   116e8:	0202082a 	slt	at,s0,v0
   116ec:	5420ffbe 	bnezl	at,115e8 <func_80110B00_ovl2+0x78>
   116f0:	02802025 	move	a0,s4
   116f4:	3c030000 	lui	v1,0x0
   116f8:	8c630000 	lw	v1,0(v1)
   116fc:	26b50001 	addiu	s5,s5,1
   11700:	02a3082a 	slt	at,s5,v1
   11704:	1420ffb4 	bnez	at,115d8 <func_80110B00_ovl2+0x68>
   11708:	26940024 	addiu	s4,s4,36
   1170c:	00001025 	move	v0,zero
   11710:	8fbf0034 	lw	ra,52(sp)
   11714:	8fb00014 	lw	s0,20(sp)
   11718:	8fb10018 	lw	s1,24(sp)
   1171c:	8fb2001c 	lw	s2,28(sp)
   11720:	8fb30020 	lw	s3,32(sp)
   11724:	8fb40024 	lw	s4,36(sp)
   11728:	8fb50028 	lw	s5,40(sp)
   1172c:	8fb6002c 	lw	s6,44(sp)
   11730:	8fb70030 	lw	s7,48(sp)
   11734:	03e00008 	jr	ra
   11738:	27bd0080 	addiu	sp,sp,128

0001173c <func_80110CCC>:
func_80110CCC():
   1173c:	27bdffe8 	addiu	sp,sp,-24
   11740:	afbf0014 	sw	ra,20(sp)
   11744:	8cae0010 	lw	t6,16(a1)
   11748:	00a03825 	move	a3,a1
   1174c:	8c820000 	lw	v0,0(a0)
   11750:	000e7840 	sll	t7,t6,0x1
   11754:	05e00067 	bltz	t7,118f4 <func_80110CCC+0x1b8>
   11758:	2401ffff 	li	at,-1
   1175c:	14410005 	bne	v0,at,11774 <func_80110CCC+0x38>
   11760:	24180002 	li	t8,2
   11764:	a0d80002 	sb	t8,2(a2)
   11768:	8cb9000c 	lw	t9,12(a1)
   1176c:	10000061 	b	118f4 <func_80110CCC+0x1b8>
   11770:	a0d90003 	sb	t9,3(a2)
   11774:	8c830014 	lw	v1,20(a0)
   11778:	3c0b0000 	lui	t3,0x0
   1177c:	256b0000 	addiu	t3,t3,0
   11780:	00035000 	sll	t2,v1,0x0
   11784:	0540005b 	bltz	t2,118f4 <func_80110CCC+0x1b8>
   11788:	00024080 	sll	t0,v0,0x2
   1178c:	010b4821 	addu	t1,t0,t3
   11790:	8d2c0000 	lw	t4,0(t1)
   11794:	55800058 	bnezl	t4,118f8 <func_80110CCC+0x1bc>
   11798:	8fbf0014 	lw	ra,20(sp)
   1179c:	90e50009 	lbu	a1,9(a3)
   117a0:	24010001 	li	at,1
   117a4:	306d0001 	andi	t5,v1,0x1
   117a8:	10a10008 	beq	a1,at,117cc <func_80110CCC+0x90>
   117ac:	24010002 	li	at,2
   117b0:	10a1000f 	beq	a1,at,117f0 <func_80110CCC+0xb4>
   117b4:	30790002 	andi	t9,v1,0x2
   117b8:	24010003 	li	at,3
   117bc:	10a10015 	beq	a1,at,11814 <func_80110CCC+0xd8>
   117c0:	306d0004 	andi	t5,v1,0x4
   117c4:	1000001c 	b	11838 <func_80110CCC+0xfc>
   117c8:	3c040000 	lui	a0,0x0
   117cc:	11a0001e 	beqz	t5,11848 <func_80110CCC+0x10c>
   117d0:	240e0007 	li	t6,7
   117d4:	a0ce0002 	sb	t6,2(a2)
   117d8:	8c8f0000 	lw	t7,0(a0)
   117dc:	000fc0c0 	sll	t8,t7,0x3
   117e0:	07030045 	bgezl	t8,118f8 <func_80110CCC+0x1bc>
   117e4:	8fbf0014 	lw	ra,20(sp)
   117e8:	10000042 	b	118f4 <func_80110CCC+0x1b8>
   117ec:	a0c00002 	sb	zero,2(a2)
   117f0:	13200015 	beqz	t9,11848 <func_80110CCC+0x10c>
   117f4:	240a0008 	li	t2,8
   117f8:	a0ca0002 	sb	t2,2(a2)
   117fc:	8c8b0000 	lw	t3,0(a0)
   11800:	000b60c0 	sll	t4,t3,0x3
   11804:	0583003c 	bgezl	t4,118f8 <func_80110CCC+0x1bc>
   11808:	8fbf0014 	lw	ra,20(sp)
   1180c:	10000039 	b	118f4 <func_80110CCC+0x1b8>
   11810:	a0c00002 	sb	zero,2(a2)
   11814:	11a0000c 	beqz	t5,11848 <func_80110CCC+0x10c>
   11818:	240e0009 	li	t6,9
   1181c:	a0ce0002 	sb	t6,2(a2)
   11820:	8c8f0000 	lw	t7,0(a0)
   11824:	000fc0c0 	sll	t8,t7,0x3
   11828:	07030033 	bgezl	t8,118f8 <func_80110CCC+0x1bc>
   1182c:	8fbf0014 	lw	ra,20(sp)
   11830:	10000030 	b	118f4 <func_80110CCC+0x1b8>
   11834:	a0c00002 	sb	zero,2(a2)
   11838:	0c000000 	jal	0 <func_800FF5E0_ovl2>
   1183c:	24840000 	addiu	a0,a0,0
   11840:	1000002d 	b	118f8 <func_80110CCC+0x1bc>
   11844:	8fbf0014 	lw	ra,20(sp)
   11848:	8cf9000c 	lw	t9,12(a3)
   1184c:	44800000 	mtc1	zero,$f0
   11850:	3c0d0000 	lui	t5,0x0
   11854:	a0d90003 	sb	t9,3(a2)
   11858:	8c8a0014 	lw	t2,20(a0)
   1185c:	3c030800 	lui	v1,0x800
   11860:	3c0c0000 	lui	t4,0x0
   11864:	000a5900 	sll	t3,t2,0x4
   11868:	05600007 	bltz	t3,11888 <func_80110CCC+0x14c>
   1186c:	25ad0000 	addiu	t5,t5,0
   11870:	258c0000 	addiu	t4,t4,0
   11874:	010c1021 	addu	v0,t0,t4
   11878:	c4440000 	lwc1	$f4,0(v0)
   1187c:	c4e60004 	lwc1	$f6,4(a3)
   11880:	46062201 	sub.s	$f8,$f4,$f6
   11884:	e4480000 	swc1	$f8,0(v0)
   11888:	010d1021 	addu	v0,t0,t5
   1188c:	c44a0000 	lwc1	$f10,0(v0)
   11890:	240e0001 	li	t6,1
   11894:	4600503e 	c.le.s	$f10,$f0
   11898:	00000000 	nop
   1189c:	45020005 	bc1fl	118b4 <func_80110CCC+0x178>
   118a0:	240f0002 	li	t7,2
   118a4:	a0ce0002 	sb	t6,2(a2)
   118a8:	10000012 	b	118f4 <func_80110CCC+0x1b8>
   118ac:	e4400000 	swc1	$f0,0(v0)
   118b0:	240f0002 	li	t7,2
   118b4:	a0cf0002 	sb	t7,2(a2)
   118b8:	8c980014 	lw	t8,20(a0)
   118bc:	0303c824 	and	t9,t8,v1
   118c0:	1720000b 	bnez	t9,118f0 <func_80110CCC+0x1b4>
   118c4:	3c0a800e 	lui	t2,0x800e
   118c8:	01485021 	addu	t2,t2,t0
   118cc:	8d4ad710 	lw	t2,-10480(t2)
   118d0:	24010017 	li	at,23
   118d4:	240b000f 	li	t3,15
   118d8:	15410003 	bne	t2,at,118e8 <func_80110CCC+0x1ac>
   118dc:	240c002d 	li	t4,45
   118e0:	10000004 	b	118f4 <func_80110CCC+0x1b8>
   118e4:	ad2b0000 	sw	t3,0(t1)
   118e8:	10000002 	b	118f4 <func_80110CCC+0x1b8>
   118ec:	ad2c0000 	sw	t4,0(t1)
   118f0:	ad200000 	sw	zero,0(t1)
   118f4:	8fbf0014 	lw	ra,20(sp)
   118f8:	27bd0018 	addiu	sp,sp,24
   118fc:	03e00008 	jr	ra
   11900:	00000000 	nop

00011904 <func_80110E94_ovl2>:
func_80110E94_ovl2():
   11904:	948e0004 	lhu	t6,4(a0)
   11908:	8ca20000 	lw	v0,0(a1)
   1190c:	8c830000 	lw	v1,0(a0)
   11910:	31cf0006 	andi	t7,t6,0x6
   11914:	15e00049 	bnez	t7,11a3c <func_80110E94_ovl2+0x138>
   11918:	2401ffff 	li	at,-1
   1191c:	10410047 	beq	v0,at,11a3c <func_80110E94_ovl2+0x138>
   11920:	00000000 	nop
   11924:	8c860014 	lw	a2,20(a0)
   11928:	0006c040 	sll	t8,a2,0x1
   1192c:	07000043 	bltz	t8,11a3c <func_80110E94_ovl2+0x138>
   11930:	00000000 	nop
   11934:	8cb90010 	lw	t9,16(a1)
   11938:	3c078000 	lui	a3,0x8000
   1193c:	00194000 	sll	t0,t9,0x0
   11940:	0500003e 	bltz	t0,11a3c <func_80110E94_ovl2+0x138>
   11944:	00000000 	nop
   11948:	8ca9000c 	lw	t1,12(a1)
   1194c:	2401000a 	li	at,10
   11950:	00035080 	sll	t2,v1,0x2
   11954:	1521000b 	bne	t1,at,11984 <func_80110E94_ovl2+0x80>
   11958:	3c0b800e 	lui	t3,0x800e
   1195c:	016a5821 	addu	t3,t3,t2
   11960:	8d6bd710 	lw	t3,-10480(t3)
   11964:	24010017 	li	at,23
   11968:	240c0006 	li	t4,6
   1196c:	11610005 	beq	t3,at,11984 <func_80110E94_ovl2+0x80>
   11970:	00026880 	sll	t5,v0,0x2
   11974:	3c01800f 	lui	at,0x800f
   11978:	002d0821 	addu	at,at,t5
   1197c:	03e00008 	jr	ra
   11980:	ac2c83e0 	sw	t4,-31776(at)
   11984:	90a30009 	lbu	v1,9(a1)
   11988:	24010001 	li	at,1
   1198c:	30ce0001 	andi	t6,a2,0x1
   11990:	10610008 	beq	v1,at,119b4 <func_80110E94_ovl2+0xb0>
   11994:	24010002 	li	at,2
   11998:	1061000f 	beq	v1,at,119d8 <func_80110E94_ovl2+0xd4>
   1199c:	30c80002 	andi	t0,a2,0x2
   119a0:	24010003 	li	at,3
   119a4:	10610015 	beq	v1,at,119fc <func_80110E94_ovl2+0xf8>
   119a8:	30cc0004 	andi	t4,a2,0x4
   119ac:	1000001d 	b	11a24 <func_80110E94_ovl2+0x120>
   119b0:	9098000c 	lbu	t8,12(a0)
   119b4:	15c00002 	bnez	t6,119c0 <func_80110E94_ovl2+0xbc>
   119b8:	00c77824 	and	t7,a2,a3
   119bc:	11e00018 	beqz	t7,11a20 <func_80110E94_ovl2+0x11c>
   119c0:	0002c880 	sll	t9,v0,0x2
   119c4:	3c01800f 	lui	at,0x800f
   119c8:	00390821 	addu	at,at,t9
   119cc:	24180006 	li	t8,6
   119d0:	03e00008 	jr	ra
   119d4:	ac3883e0 	sw	t8,-31776(at)
   119d8:	15000002 	bnez	t0,119e4 <func_80110E94_ovl2+0xe0>
   119dc:	00c74824 	and	t1,a2,a3
   119e0:	1120000f 	beqz	t1,11a20 <func_80110E94_ovl2+0x11c>
   119e4:	00025880 	sll	t3,v0,0x2
   119e8:	3c01800f 	lui	at,0x800f
   119ec:	002b0821 	addu	at,at,t3
   119f0:	240a0006 	li	t2,6
   119f4:	03e00008 	jr	ra
   119f8:	ac2a83e0 	sw	t2,-31776(at)
   119fc:	15800002 	bnez	t4,11a08 <func_80110E94_ovl2+0x104>
   11a00:	00c76824 	and	t5,a2,a3
   11a04:	11a00006 	beqz	t5,11a20 <func_80110E94_ovl2+0x11c>
   11a08:	00027880 	sll	t7,v0,0x2
   11a0c:	3c01800f 	lui	at,0x800f
   11a10:	002f0821 	addu	at,at,t7
   11a14:	240e0006 	li	t6,6
   11a18:	03e00008 	jr	ra
   11a1c:	ac2e83e0 	sw	t6,-31776(at)
   11a20:	9098000c 	lbu	t8,12(a0)
   11a24:	00024880 	sll	t1,v0,0x2
   11a28:	3c01800f 	lui	at,0x800f
   11a2c:	0018cc00 	sll	t9,t8,0x10
   11a30:	27280002 	addiu	t0,t9,2
   11a34:	00290821 	addu	at,at,t1
   11a38:	ac2883e0 	sw	t0,-31776(at)
   11a3c:	03e00008 	jr	ra
   11a40:	00000000 	nop

00011a44 <func_80110FD4_ovl2>:
func_80110FD4_ovl2():
   11a44:	27bdff80 	addiu	sp,sp,-128
   11a48:	afbf0034 	sw	ra,52(sp)
   11a4c:	afb70030 	sw	s7,48(sp)
   11a50:	afb6002c 	sw	s6,44(sp)
   11a54:	afb50028 	sw	s5,40(sp)
   11a58:	afb40024 	sw	s4,36(sp)
   11a5c:	afb30020 	sw	s3,32(sp)
   11a60:	afb2001c 	sw	s2,28(sp)
   11a64:	afb10018 	sw	s1,24(sp)
   11a68:	afb00014 	sw	s0,20(sp)
   11a6c:	a0800002 	sb	zero,2(a0)
   11a70:	a0800003 	sb	zero,3(a0)
   11a74:	3c030000 	lui	v1,0x0
   11a78:	8c630000 	lw	v1,0(v1)
   11a7c:	3c140000 	lui	s4,0x0
   11a80:	0080b825 	move	s7,a0
   11a84:	26940000 	addiu	s4,s4,0
   11a88:	1860004e 	blez	v1,11bc4 <func_80110FD4_ovl2+0x180>
   11a8c:	0000a825 	move	s5,zero
   11a90:	3c020000 	lui	v0,0x0
   11a94:	3c160000 	lui	s6,0x0
   11a98:	3c130000 	lui	s3,0x0
   11a9c:	26730000 	addiu	s3,s3,0
   11aa0:	26d60000 	addiu	s6,s6,0
   11aa4:	8c420000 	lw	v0,0(v0)
   11aa8:	27b2004c 	addiu	s2,sp,76
   11aac:	00008025 	move	s0,zero
   11ab0:	18400040 	blez	v0,11bb4 <func_80110FD4_ovl2+0x170>
   11ab4:	02c08825 	move	s1,s6
   11ab8:	02802025 	move	a0,s4
   11abc:	02202825 	move	a1,s1
   11ac0:	0c000000 	jal	0 <func_800FF5E0_ovl2>
   11ac4:	02403025 	move	a2,s2
   11ac8:	50400033 	beqzl	v0,11b98 <func_80110FD4_ovl2+0x154>
   11acc:	8e620000 	lw	v0,0(s3)
   11ad0:	962e0004 	lhu	t6,4(s1)
   11ad4:	8e900000 	lw	s0,0(s4)
   11ad8:	02202025 	move	a0,s1
   11adc:	31cf0001 	andi	t7,t6,0x1
   11ae0:	11e00003 	beqz	t7,11af0 <func_80110FD4_ovl2+0xac>
   11ae4:	02802825 	move	a1,s4
   11ae8:	10000037 	b	11bc8 <func_80110FD4_ovl2+0x184>
   11aec:	00001025 	move	v0,zero
   11af0:	a2e00002 	sb	zero,2(s7)
   11af4:	0c000000 	jal	0 <func_800FF5E0_ovl2>
   11af8:	02e03025 	move	a2,s7
   11afc:	02202025 	move	a0,s1
   11b00:	0c000000 	jal	0 <func_800FF5E0_ovl2>
   11b04:	02802825 	move	a1,s4
   11b08:	92f80002 	lbu	t8,2(s7)
   11b0c:	1300001f 	beqz	t8,11b8c <func_80110FD4_ovl2+0x148>
   11b10:	00000000 	nop
   11b14:	92990008 	lbu	t9,8(s4)
   11b18:	00105080 	sll	t2,s0,0x2
   11b1c:	3c02800e 	lui	v0,0x800e
   11b20:	a2f90000 	sb	t9,0(s7)
   11b24:	92880009 	lbu	t0,9(s4)
   11b28:	004a1021 	addu	v0,v0,t2
   11b2c:	2403ffff 	li	v1,-1
   11b30:	a2e80001 	sb	t0,1(s7)
   11b34:	8e890014 	lw	t1,20(s4)
   11b38:	3c0c800e 	lui	t4,0x800e
   11b3c:	aee90008 	sw	t1,8(s7)
   11b40:	c7a4004c 	lwc1	$f4,76(sp)
   11b44:	e6e40010 	swc1	$f4,16(s7)
   11b48:	c7a60050 	lwc1	$f6,80(sp)
   11b4c:	e6e60014 	swc1	$f6,20(s7)
   11b50:	c7a80054 	lwc1	$f8,84(sp)
   11b54:	e6e80018 	swc1	$f8,24(s7)
   11b58:	8c420d50 	lw	v0,3408(v0)
   11b5c:	10620008 	beq	v1,v0,11b80 <func_80110FD4_ovl2+0x13c>
   11b60:	00025880 	sll	t3,v0,0x2
   11b64:	018b6021 	addu	t4,t4,t3
   11b68:	8d8cd710 	lw	t4,-10480(t4)
   11b6c:	506c0005 	beql	v1,t4,11b84 <func_80110FD4_ovl2+0x140>
   11b70:	aef0000c 	sw	s0,12(s7)
   11b74:	aee2000c 	sw	v0,12(s7)
   11b78:	10000013 	b	11bc8 <func_80110FD4_ovl2+0x184>
   11b7c:	24020001 	li	v0,1
   11b80:	aef0000c 	sw	s0,12(s7)
   11b84:	10000010 	b	11bc8 <func_80110FD4_ovl2+0x184>
   11b88:	24020001 	li	v0,1
   11b8c:	1000000e 	b	11bc8 <func_80110FD4_ovl2+0x184>
   11b90:	00001025 	move	v0,zero
   11b94:	8e620000 	lw	v0,0(s3)
   11b98:	26100001 	addiu	s0,s0,1
   11b9c:	26310028 	addiu	s1,s1,40
   11ba0:	0202082a 	slt	at,s0,v0
   11ba4:	5420ffc5 	bnezl	at,11abc <func_80110FD4_ovl2+0x78>
   11ba8:	02802025 	move	a0,s4
   11bac:	3c030000 	lui	v1,0x0
   11bb0:	8c630000 	lw	v1,0(v1)
   11bb4:	26b50001 	addiu	s5,s5,1
   11bb8:	02a3082a 	slt	at,s5,v1
   11bbc:	1420ffbb 	bnez	at,11aac <func_80110FD4_ovl2+0x68>
   11bc0:	26940024 	addiu	s4,s4,36
   11bc4:	00001025 	move	v0,zero
   11bc8:	8fbf0034 	lw	ra,52(sp)
   11bcc:	8fb00014 	lw	s0,20(sp)
   11bd0:	8fb10018 	lw	s1,24(sp)
   11bd4:	8fb2001c 	lw	s2,28(sp)
   11bd8:	8fb30020 	lw	s3,32(sp)
   11bdc:	8fb40024 	lw	s4,36(sp)
   11be0:	8fb50028 	lw	s5,40(sp)
   11be4:	8fb6002c 	lw	s6,44(sp)
   11be8:	8fb70030 	lw	s7,48(sp)
   11bec:	03e00008 	jr	ra
   11bf0:	27bd0080 	addiu	sp,sp,128

00011bf4 <func_80111184>:
func_80111184():
   11bf4:	27bdffe8 	addiu	sp,sp,-24
   11bf8:	afbf0014 	sw	ra,20(sp)
   11bfc:	afa5001c 	sw	a1,28(sp)
   11c00:	8caf0010 	lw	t7,16(a1)
   11c04:	8ca70000 	lw	a3,0(a1)
   11c08:	8c830000 	lw	v1,0(a0)
   11c0c:	000fc040 	sll	t8,t7,0x1
   11c10:	070200ab 	bltzl	t8,11ec0 <func_80111184+0x2cc>
   11c14:	8fbf0014 	lw	ra,20(sp)
   11c18:	8c820018 	lw	v0,24(a0)
   11c1c:	3c0a0000 	lui	t2,0x0
   11c20:	254a0000 	addiu	t2,t2,0
   11c24:	0002c800 	sll	t9,v0,0x0
   11c28:	072000a4 	bltz	t9,11ebc <func_80111184+0x2c8>
   11c2c:	00034080 	sll	t0,v1,0x2
   11c30:	010a4821 	addu	t1,t0,t2
   11c34:	8d2b0000 	lw	t3,0(t1)
   11c38:	3c0c0000 	lui	t4,0x0
   11c3c:	258c0000 	addiu	t4,t4,0
   11c40:	5560009f 	bnezl	t3,11ec0 <func_80111184+0x2cc>
   11c44:	8fbf0014 	lw	ra,20(sp)
   11c48:	152c0007 	bne	t1,t4,11c68 <func_80111184+0x74>
   11c4c:	8fb8001c 	lw	t8,28(sp)
   11c50:	240d0002 	li	t5,2
   11c54:	a0cd0002 	sb	t5,2(a2)
   11c58:	8fae001c 	lw	t6,28(sp)
   11c5c:	8dcf000c 	lw	t7,12(t6)
   11c60:	10000096 	b	11ebc <func_80111184+0x2c8>
   11c64:	a0cf0003 	sb	t7,3(a2)
   11c68:	93050009 	lbu	a1,9(t8)
   11c6c:	2ca10007 	sltiu	at,a1,7
   11c70:	10200060 	beqz	at,11df4 <func_80111184+0x200>
   11c74:	0005c880 	sll	t9,a1,0x2
   11c78:	3c018013 	lui	at,0x8013
   11c7c:	00390821 	addu	at,at,t9
   11c80:	8c398cac 	lw	t9,-29524(at)
   11c84:	03200008 	jr	t9
   11c88:	00000000 	nop
   11c8c:	304a0002 	andi	t2,v0,0x2
   11c90:	11400009 	beqz	t2,11cb8 <func_80111184+0xc4>
   11c94:	2402ffff 	li	v0,-1
   11c98:	240b000a 	li	t3,10
   11c9c:	a0cb0002 	sb	t3,2(a2)
   11ca0:	8c8c0018 	lw	t4,24(a0)
   11ca4:	000c68c0 	sll	t5,t4,0x3
   11ca8:	05a30085 	bgezl	t5,11ec0 <func_80111184+0x2cc>
   11cac:	8fbf0014 	lw	ra,20(sp)
   11cb0:	10000082 	b	11ebc <func_80111184+0x2c8>
   11cb4:	a0c00002 	sb	zero,2(a2)
   11cb8:	10e20016 	beq	a3,v0,11d14 <func_80111184+0x120>
   11cbc:	3c040000 	lui	a0,0x0
   11cc0:	3c013f80 	lui	at,0x3f80
   11cc4:	44812000 	mtc1	at,$f4
   11cc8:	3c01800e 	lui	at,0x800e
   11ccc:	00077080 	sll	t6,a3,0x2
   11cd0:	002e0821 	addu	at,at,t6
   11cd4:	c4266a10 	lwc1	$f6,27152(at)
   11cd8:	3c01800f 	lui	at,0x800f
   11cdc:	00280821 	addu	at,at,t0
   11ce0:	46062032 	c.eq.s	$f4,$f6
   11ce4:	240f0001 	li	t7,1
   11ce8:	24180003 	li	t8,3
   11cec:	45000005 	bc1f	11d04 <func_80111184+0x110>
   11cf0:	00000000 	nop
   11cf4:	3c01800f 	lui	at,0x800f
   11cf8:	00280821 	addu	at,at,t0
   11cfc:	10000002 	b	11d08 <func_80111184+0x114>
   11d00:	ac2285a0 	sw	v0,-31328(at)
   11d04:	ac2f85a0 	sw	t7,-31328(at)
   11d08:	a0d80002 	sb	t8,2(a2)
   11d0c:	1000006b 	b	11ebc <func_80111184+0x2c8>
   11d10:	a0c00004 	sb	zero,4(a2)
   11d14:	a0c00002 	sb	zero,2(a2)
   11d18:	24840000 	addiu	a0,a0,0
   11d1c:	0c000000 	jal	0 <func_800FF5E0_ovl2>
   11d20:	00e02825 	move	a1,a3
   11d24:	10000066 	b	11ec0 <func_80111184+0x2cc>
   11d28:	8fbf0014 	lw	ra,20(sp)
   11d2c:	30590001 	andi	t9,v0,0x1
   11d30:	13200035 	beqz	t9,11e08 <func_80111184+0x214>
   11d34:	240a0006 	li	t2,6
   11d38:	a0ca0002 	sb	t2,2(a2)
   11d3c:	8c8b0018 	lw	t3,24(a0)
   11d40:	000b60c0 	sll	t4,t3,0x3
   11d44:	0583005e 	bgezl	t4,11ec0 <func_80111184+0x2cc>
   11d48:	8fbf0014 	lw	ra,20(sp)
   11d4c:	1000005b 	b	11ebc <func_80111184+0x2c8>
   11d50:	a0c00002 	sb	zero,2(a2)
   11d54:	304d0008 	andi	t5,v0,0x8
   11d58:	11a0002b 	beqz	t5,11e08 <func_80111184+0x214>
   11d5c:	240e000c 	li	t6,12
   11d60:	a0ce0002 	sb	t6,2(a2)
   11d64:	8c8f0018 	lw	t7,24(a0)
   11d68:	000fc0c0 	sll	t8,t7,0x3
   11d6c:	07030054 	bgezl	t8,11ec0 <func_80111184+0x2cc>
   11d70:	8fbf0014 	lw	ra,20(sp)
   11d74:	10000051 	b	11ebc <func_80111184+0x2c8>
   11d78:	a0c00002 	sb	zero,2(a2)
   11d7c:	30590010 	andi	t9,v0,0x10
   11d80:	13200021 	beqz	t9,11e08 <func_80111184+0x214>
   11d84:	240a000d 	li	t2,13
   11d88:	a0ca0002 	sb	t2,2(a2)
   11d8c:	8c8b0018 	lw	t3,24(a0)
   11d90:	000b60c0 	sll	t4,t3,0x3
   11d94:	0583004a 	bgezl	t4,11ec0 <func_80111184+0x2cc>
   11d98:	8fbf0014 	lw	ra,20(sp)
   11d9c:	10000047 	b	11ebc <func_80111184+0x2c8>
   11da0:	a0c00002 	sb	zero,2(a2)
   11da4:	304d0020 	andi	t5,v0,0x20
   11da8:	11a00017 	beqz	t5,11e08 <func_80111184+0x214>
   11dac:	240e000e 	li	t6,14
   11db0:	a0ce0002 	sb	t6,2(a2)
   11db4:	8c8f0018 	lw	t7,24(a0)
   11db8:	000fc0c0 	sll	t8,t7,0x3
   11dbc:	07030040 	bgezl	t8,11ec0 <func_80111184+0x2cc>
   11dc0:	8fbf0014 	lw	ra,20(sp)
   11dc4:	1000003d 	b	11ebc <func_80111184+0x2c8>
   11dc8:	a0c00002 	sb	zero,2(a2)
   11dcc:	30590040 	andi	t9,v0,0x40
   11dd0:	1320000d 	beqz	t9,11e08 <func_80111184+0x214>
   11dd4:	240a000f 	li	t2,15
   11dd8:	a0ca0002 	sb	t2,2(a2)
   11ddc:	8c8b0018 	lw	t3,24(a0)
   11de0:	000b60c0 	sll	t4,t3,0x3
   11de4:	05830036 	bgezl	t4,11ec0 <func_80111184+0x2cc>
   11de8:	8fbf0014 	lw	ra,20(sp)
   11dec:	10000033 	b	11ebc <func_80111184+0x2c8>
   11df0:	a0c00002 	sb	zero,2(a2)
   11df4:	3c040000 	lui	a0,0x0
   11df8:	0c000000 	jal	0 <func_800FF5E0_ovl2>
   11dfc:	24840000 	addiu	a0,a0,0
   11e00:	1000002f 	b	11ec0 <func_80111184+0x2cc>
   11e04:	8fbf0014 	lw	ra,20(sp)
   11e08:	8fad001c 	lw	t5,28(sp)
   11e0c:	44800000 	mtc1	zero,$f0
   11e10:	3c190000 	lui	t9,0x0
   11e14:	8dae000c 	lw	t6,12(t5)
   11e18:	3c0b0000 	lui	t3,0x0
   11e1c:	3c030800 	lui	v1,0x800
   11e20:	a0ce0003 	sb	t6,3(a2)
   11e24:	8c8f0018 	lw	t7,24(a0)
   11e28:	8faa001c 	lw	t2,28(sp)
   11e2c:	27390000 	addiu	t9,t9,0
   11e30:	000fc100 	sll	t8,t7,0x4
   11e34:	07000006 	bltz	t8,11e50 <func_80111184+0x25c>
   11e38:	256b0000 	addiu	t3,t3,0
   11e3c:	01191021 	addu	v0,t0,t9
   11e40:	c4480000 	lwc1	$f8,0(v0)
   11e44:	c54a0004 	lwc1	$f10,4(t2)
   11e48:	460a4401 	sub.s	$f16,$f8,$f10
   11e4c:	e4500000 	swc1	$f16,0(v0)
   11e50:	010b1021 	addu	v0,t0,t3
   11e54:	c4520000 	lwc1	$f18,0(v0)
   11e58:	240c0001 	li	t4,1
   11e5c:	4600903e 	c.le.s	$f18,$f0
   11e60:	00000000 	nop
   11e64:	45020005 	bc1fl	11e7c <func_80111184+0x288>
   11e68:	240d0002 	li	t5,2
   11e6c:	a0cc0002 	sb	t4,2(a2)
   11e70:	10000012 	b	11ebc <func_80111184+0x2c8>
   11e74:	e4400000 	swc1	$f0,0(v0)
   11e78:	240d0002 	li	t5,2
   11e7c:	a0cd0002 	sb	t5,2(a2)
   11e80:	8c8e0018 	lw	t6,24(a0)
   11e84:	01c37824 	and	t7,t6,v1
   11e88:	15e0000b 	bnez	t7,11eb8 <func_80111184+0x2c4>
   11e8c:	3c18800e 	lui	t8,0x800e
   11e90:	0308c021 	addu	t8,t8,t0
   11e94:	8f18d710 	lw	t8,-10480(t8)
   11e98:	24010017 	li	at,23
   11e9c:	2419000f 	li	t9,15
   11ea0:	17010003 	bne	t8,at,11eb0 <func_80111184+0x2bc>
   11ea4:	240a002d 	li	t2,45
   11ea8:	10000004 	b	11ebc <func_80111184+0x2c8>
   11eac:	ad390000 	sw	t9,0(t1)
   11eb0:	10000002 	b	11ebc <func_80111184+0x2c8>
   11eb4:	ad2a0000 	sw	t2,0(t1)
   11eb8:	ad200000 	sw	zero,0(t1)
   11ebc:	8fbf0014 	lw	ra,20(sp)
   11ec0:	27bd0018 	addiu	sp,sp,24
   11ec4:	03e00008 	jr	ra
   11ec8:	00000000 	nop

00011ecc <func_8011145C_ovl2>:
func_8011145C_ovl2():
   11ecc:	8cae0010 	lw	t6,16(a1)
   11ed0:	3c068000 	lui	a2,0x8000
   11ed4:	8ca20000 	lw	v0,0(a1)
   11ed8:	000e7800 	sll	t7,t6,0x0
   11edc:	05e0001a 	bltz	t7,11f48 <func_8011145C_ovl2+0x7c>
   11ee0:	00000000 	nop
   11ee4:	8c830018 	lw	v1,24(a0)
   11ee8:	0003c040 	sll	t8,v1,0x1
   11eec:	07000016 	bltz	t8,11f48 <func_8011145C_ovl2+0x7c>
   11ef0:	00000000 	nop
   11ef4:	94990004 	lhu	t9,4(a0)
   11ef8:	00664824 	and	t1,v1,a2
   11efc:	33280006 	andi	t0,t9,0x6
   11f00:	15000011 	bnez	t0,11f48 <func_8011145C_ovl2+0x7c>
   11f04:	00000000 	nop
   11f08:	15200003 	bnez	t1,11f18 <func_8011145C_ovl2+0x4c>
   11f0c:	306a0078 	andi	t2,v1,0x78
   11f10:	11400007 	beqz	t2,11f30 <func_8011145C_ovl2+0x64>
   11f14:	0002c080 	sll	t8,v0,0x2
   11f18:	00026080 	sll	t4,v0,0x2
   11f1c:	3c01800f 	lui	at,0x800f
   11f20:	002c0821 	addu	at,at,t4
   11f24:	240b0006 	li	t3,6
   11f28:	03e00008 	jr	ra
   11f2c:	ac2b83e0 	sw	t3,-31776(at)
   11f30:	908d000c 	lbu	t5,12(a0)
   11f34:	3c01800f 	lui	at,0x800f
   11f38:	00380821 	addu	at,at,t8
   11f3c:	000d7400 	sll	t6,t5,0x10
   11f40:	25cf0002 	addiu	t7,t6,2
   11f44:	ac2f83e0 	sw	t7,-31776(at)
   11f48:	03e00008 	jr	ra
   11f4c:	00000000 	nop

00011f50 <func_801114E0_ovl2>:
func_801114E0_ovl2():
   11f50:	3c020000 	lui	v0,0x0
   11f54:	24420000 	addiu	v0,v0,0
   11f58:	240e0050 	li	t6,80
   11f5c:	ac4e0000 	sw	t6,0(v0)
   11f60:	3c010000 	lui	at,0x0
   11f64:	ac2e0000 	sw	t6,0(at)
   11f68:	3c030000 	lui	v1,0x0
   11f6c:	3c040000 	lui	a0,0x0
   11f70:	24840000 	addiu	a0,a0,0
   11f74:	24630000 	addiu	v1,v1,0
   11f78:	ac600000 	sw	zero,0(v1)
   11f7c:	ac800000 	sw	zero,0(a0)
   11f80:	3c010000 	lui	at,0x0
   11f84:	ac200000 	sw	zero,0(at)
   11f88:	3c010000 	lui	at,0x0
   11f8c:	ac200000 	sw	zero,0(at)
   11f90:	3c08ff80 	lui	t0,0xff80
   11f94:	35080080 	ori	t0,t0,0x80
   11f98:	3c018013 	lui	at,0x8013
   11f9c:	03e00008 	jr	ra
   11fa0:	ac28d924 	sw	t0,-9948(at)

00011fa4 <func_80111534>:
func_80111534():
   11fa4:	3c010000 	lui	at,0x0
   11fa8:	ac240000 	sw	a0,0(at)
   11fac:	3c010000 	lui	at,0x0
   11fb0:	ac200000 	sw	zero,0(at)
   11fb4:	3c018012 	lui	at,0x8012
   11fb8:	03e00008 	jr	ra
   11fbc:	ac2049b0 	sw	zero,18864(at)

00011fc0 <func_80111550>:
func_80111550():
   11fc0:	3c010000 	lui	at,0x0
   11fc4:	ac240000 	sw	a0,0(at)
   11fc8:	3c010000 	lui	at,0x0
   11fcc:	ac200000 	sw	zero,0(at)
   11fd0:	3c010000 	lui	at,0x0
   11fd4:	ac200000 	sw	zero,0(at)
   11fd8:	3c018012 	lui	at,0x8012
   11fdc:	03e00008 	jr	ra
   11fe0:	ac2049a0 	sw	zero,18848(at)

00011fe4 <func_80111574>:
func_80111574():
   11fe4:	27bdffe8 	addiu	sp,sp,-24
   11fe8:	afbf0014 	sw	ra,20(sp)
   11fec:	afa5001c 	sw	a1,28(sp)
   11ff0:	8c8e0000 	lw	t6,0(a0)
   11ff4:	3c070000 	lui	a3,0x0
   11ff8:	00803025 	move	a2,a0
   11ffc:	11c00003 	beqz	t6,1200c <func_80111574+0x28>
   12000:	24e70000 	addiu	a3,a3,0
   12004:	10000002 	b	12010 <func_80111574+0x2c>
   12008:	24020001 	li	v0,1
   1200c:	00001025 	move	v0,zero
   12010:	8cef0000 	lw	t7,0(a3)
   12014:	8cd90004 	lw	t9,4(a2)
   12018:	3c080000 	lui	t0,0x0
   1201c:	004fc021 	addu	t8,v0,t7
   12020:	03194821 	addu	t1,t8,t9
   12024:	2921001a 	slti	at,t1,26
   12028:	14200007 	bnez	at,12048 <func_80111574+0x64>
   1202c:	25080000 	addiu	t0,t0,0
   12030:	3c040000 	lui	a0,0x0
   12034:	24840000 	addiu	a0,a0,0
   12038:	0c000000 	jal	0 <func_800FF5E0_ovl2>
   1203c:	00001025 	move	v0,zero
   12040:	1000ffff 	b	12040 <func_80111574+0x5c>
   12044:	00000000 	nop
   12048:	8d020000 	lw	v0,0(t0)
   1204c:	24010005 	li	at,5
   12050:	3c0b0000 	lui	t3,0x0
   12054:	14410007 	bne	v0,at,12074 <func_80111574+0x90>
   12058:	000250c0 	sll	t2,v0,0x3
   1205c:	3c040000 	lui	a0,0x0
   12060:	24840000 	addiu	a0,a0,0
   12064:	0c000000 	jal	0 <func_800FF5E0_ovl2>
   12068:	00001025 	move	v0,zero
   1206c:	1000ffff 	b	1206c <func_80111574+0x88>
   12070:	00000000 	nop
   12074:	8fac001c 	lw	t4,28(sp)
   12078:	01425021 	addu	t2,t2,v0
   1207c:	000a5080 	sll	t2,t2,0x2
   12080:	256b0000 	addiu	t3,t3,0
   12084:	014b2821 	addu	a1,t2,t3
   12088:	acac0000 	sw	t4,0(a1)
   1208c:	8cce000c 	lw	t6,12(a2)
   12090:	acae0004 	sw	t6,4(a1)
   12094:	8ccd0010 	lw	t5,16(a2)
   12098:	acad0008 	sw	t5,8(a1)
   1209c:	8cce0014 	lw	t6,20(a2)
   120a0:	acae000c 	sw	t6,12(a1)
   120a4:	8ccd0018 	lw	t5,24(a2)
   120a8:	acad0010 	sw	t5,16(a1)
   120ac:	8cce001c 	lw	t6,28(a2)
   120b0:	acae0014 	sw	t6,20(a1)
   120b4:	8ccf0000 	lw	t7,0(a2)
   120b8:	51e00026 	beqzl	t7,12154 <func_80111574+0x170>
   120bc:	aca00018 	sw	zero,24(a1)
   120c0:	8cf80000 	lw	t8,0(a3)
   120c4:	3c090000 	lui	t1,0x0
   120c8:	25290000 	addiu	t1,t1,0
   120cc:	0018c880 	sll	t9,t8,0x2
   120d0:	0338c821 	addu	t9,t9,t8
   120d4:	0019c8c0 	sll	t9,t9,0x3
   120d8:	03295021 	addu	t2,t9,t1
   120dc:	acaa0018 	sw	t2,24(a1)
   120e0:	8ceb0000 	lw	t3,0(a3)
   120e4:	256c0001 	addiu	t4,t3,1
   120e8:	acec0000 	sw	t4,0(a3)
   120ec:	8cad0018 	lw	t5,24(a1)
   120f0:	a1a00000 	sb	zero,0(t5)
   120f4:	8ccf0000 	lw	t7,0(a2)
   120f8:	8cae0018 	lw	t6,24(a1)
   120fc:	8df90000 	lw	t9,0(t7)
   12100:	add90004 	sw	t9,4(t6)
   12104:	8df80004 	lw	t8,4(t7)
   12108:	add80008 	sw	t8,8(t6)
   1210c:	8cca0000 	lw	t2,0(a2)
   12110:	8ca90018 	lw	t1,24(a1)
   12114:	8d4c0008 	lw	t4,8(t2)
   12118:	ad2c000c 	sw	t4,12(t1)
   1211c:	8d4b000c 	lw	t3,12(t2)
   12120:	ad2b0010 	sw	t3,16(t1)
   12124:	8d4c0010 	lw	t4,16(t2)
   12128:	ad2c0014 	sw	t4,20(t1)
   1212c:	8d4b0014 	lw	t3,20(t2)
   12130:	ad2b0018 	sw	t3,24(t1)
   12134:	8d4c0018 	lw	t4,24(t2)
   12138:	ad2c001c 	sw	t4,28(t1)
   1213c:	8d4b001c 	lw	t3,28(t2)
   12140:	ad2b0020 	sw	t3,32(t1)
   12144:	8d4c0020 	lw	t4,32(t2)
   12148:	10000002 	b	12154 <func_80111574+0x170>
   1214c:	ad2c0024 	sw	t4,36(t1)
   12150:	aca00018 	sw	zero,24(a1)
   12154:	8ccd0004 	lw	t5,4(a2)
   12158:	3c180000 	lui	t8,0x0
   1215c:	27180000 	addiu	t8,t8,0
   12160:	acad001c 	sw	t5,28(a1)
   12164:	8cee0000 	lw	t6,0(a3)
   12168:	00002025 	move	a0,zero
   1216c:	000e7880 	sll	t7,t6,0x2
   12170:	01ee7821 	addu	t7,t7,t6
   12174:	000f78c0 	sll	t7,t7,0x3
   12178:	01f81021 	addu	v0,t7,t8
   1217c:	aca20020 	sw	v0,32(a1)
   12180:	19a0001b 	blez	t5,121f0 <func_80111574+0x20c>
   12184:	8cc30008 	lw	v1,8(a2)
   12188:	a0400000 	sb	zero,0(v0)
   1218c:	8c6b0000 	lw	t3,0(v1)
   12190:	24840001 	addiu	a0,a0,1
   12194:	24630024 	addiu	v1,v1,36
   12198:	ac4b0004 	sw	t3,4(v0)
   1219c:	8c6affe0 	lw	t2,-32(v1)
   121a0:	24420028 	addiu	v0,v0,40
   121a4:	ac4affe0 	sw	t2,-32(v0)
   121a8:	8c6dffe4 	lw	t5,-28(v1)
   121ac:	ac4dffe4 	sw	t5,-28(v0)
   121b0:	8c6cffe8 	lw	t4,-24(v1)
   121b4:	ac4cffe8 	sw	t4,-24(v0)
   121b8:	8c6dffec 	lw	t5,-20(v1)
   121bc:	ac4dffec 	sw	t5,-20(v0)
   121c0:	8c6cfff0 	lw	t4,-16(v1)
   121c4:	ac4cfff0 	sw	t4,-16(v0)
   121c8:	8c6dfff4 	lw	t5,-12(v1)
   121cc:	ac4dfff4 	sw	t5,-12(v0)
   121d0:	8c6cfff8 	lw	t4,-8(v1)
   121d4:	ac4cfff8 	sw	t4,-8(v0)
   121d8:	8c6dfffc 	lw	t5,-4(v1)
   121dc:	ac4dfffc 	sw	t5,-4(v0)
   121e0:	8cae001c 	lw	t6,28(a1)
   121e4:	008e082a 	slt	at,a0,t6
   121e8:	5420ffe8 	bnezl	at,1218c <func_80111574+0x1a8>
   121ec:	a0400000 	sb	zero,0(v0)
   121f0:	8cef0000 	lw	t7,0(a3)
   121f4:	8cd80004 	lw	t8,4(a2)
   121f8:	8d090000 	lw	t1,0(t0)
   121fc:	8fbf0014 	lw	ra,20(sp)
   12200:	3c0bff80 	lui	t3,0xff80
   12204:	01f8c821 	addu	t9,t7,t8
   12208:	252a0001 	addiu	t2,t1,1
   1220c:	acf90000 	sw	t9,0(a3)
   12210:	ad0a0000 	sw	t2,0(t0)
   12214:	356b0080 	ori	t3,t3,0x80
   12218:	3c010000 	lui	at,0x0
   1221c:	ac2b0000 	sw	t3,0(at)
   12220:	27bd0018 	addiu	sp,sp,24
   12224:	03e00008 	jr	ra
   12228:	00a01025 	move	v0,a1

0001222c <func_801117BC>:
func_801117BC():
   1222c:	27bdffe8 	addiu	sp,sp,-24
   12230:	afbf0014 	sw	ra,20(sp)
   12234:	afa5001c 	sw	a1,28(sp)
   12238:	8c8e0000 	lw	t6,0(a0)
   1223c:	3c070000 	lui	a3,0x0
   12240:	00803025 	move	a2,a0
   12244:	11c00003 	beqz	t6,12254 <func_801117BC+0x28>
   12248:	24e70000 	addiu	a3,a3,0
   1224c:	10000002 	b	12258 <func_801117BC+0x2c>
   12250:	24020001 	li	v0,1
   12254:	00001025 	move	v0,zero
   12258:	8cef0000 	lw	t7,0(a3)
   1225c:	8cd90004 	lw	t9,4(a2)
   12260:	3c080000 	lui	t0,0x0
   12264:	004fc021 	addu	t8,v0,t7
   12268:	03194821 	addu	t1,t8,t9
   1226c:	2921001a 	slti	at,t1,26
   12270:	14200007 	bnez	at,12290 <func_801117BC+0x64>
   12274:	25080000 	addiu	t0,t0,0
   12278:	3c040000 	lui	a0,0x0
   1227c:	24840000 	addiu	a0,a0,0
   12280:	0c000000 	jal	0 <func_800FF5E0_ovl2>
   12284:	00001025 	move	v0,zero
   12288:	1000ffff 	b	12288 <func_801117BC+0x5c>
   1228c:	00000000 	nop
   12290:	8d020000 	lw	v0,0(t0)
   12294:	2401000a 	li	at,10
   12298:	3c0b0000 	lui	t3,0x0
   1229c:	14410007 	bne	v0,at,122bc <func_801117BC+0x90>
   122a0:	000250c0 	sll	t2,v0,0x3
   122a4:	3c040000 	lui	a0,0x0
   122a8:	24840000 	addiu	a0,a0,0
   122ac:	0c000000 	jal	0 <func_800FF5E0_ovl2>
   122b0:	00001025 	move	v0,zero
   122b4:	1000ffff 	b	122b4 <func_801117BC+0x88>
   122b8:	00000000 	nop
   122bc:	8fac001c 	lw	t4,28(sp)
   122c0:	01425021 	addu	t2,t2,v0
   122c4:	000a5080 	sll	t2,t2,0x2
   122c8:	256b0000 	addiu	t3,t3,0
   122cc:	014b2821 	addu	a1,t2,t3
   122d0:	acac0000 	sw	t4,0(a1)
   122d4:	8cce000c 	lw	t6,12(a2)
   122d8:	acae0004 	sw	t6,4(a1)
   122dc:	8ccd0010 	lw	t5,16(a2)
   122e0:	acad0008 	sw	t5,8(a1)
   122e4:	8cce0014 	lw	t6,20(a2)
   122e8:	acae000c 	sw	t6,12(a1)
   122ec:	8ccd0018 	lw	t5,24(a2)
   122f0:	acad0010 	sw	t5,16(a1)
   122f4:	8cce001c 	lw	t6,28(a2)
   122f8:	acae0014 	sw	t6,20(a1)
   122fc:	8ccf0000 	lw	t7,0(a2)
   12300:	51e00026 	beqzl	t7,1239c <func_801117BC+0x170>
   12304:	aca00018 	sw	zero,24(a1)
   12308:	8cf80000 	lw	t8,0(a3)
   1230c:	3c090000 	lui	t1,0x0
   12310:	25290000 	addiu	t1,t1,0
   12314:	0018c880 	sll	t9,t8,0x2
   12318:	0338c821 	addu	t9,t9,t8
   1231c:	0019c8c0 	sll	t9,t9,0x3
   12320:	03295021 	addu	t2,t9,t1
   12324:	acaa0018 	sw	t2,24(a1)
   12328:	8ceb0000 	lw	t3,0(a3)
   1232c:	256c0001 	addiu	t4,t3,1
   12330:	acec0000 	sw	t4,0(a3)
   12334:	8cad0018 	lw	t5,24(a1)
   12338:	a1a00000 	sb	zero,0(t5)
   1233c:	8ccf0000 	lw	t7,0(a2)
   12340:	8cae0018 	lw	t6,24(a1)
   12344:	8df90000 	lw	t9,0(t7)
   12348:	add90004 	sw	t9,4(t6)
   1234c:	8df80004 	lw	t8,4(t7)
   12350:	add80008 	sw	t8,8(t6)
   12354:	8cca0000 	lw	t2,0(a2)
   12358:	8ca90018 	lw	t1,24(a1)
   1235c:	8d4c0008 	lw	t4,8(t2)
   12360:	ad2c000c 	sw	t4,12(t1)
   12364:	8d4b000c 	lw	t3,12(t2)
   12368:	ad2b0010 	sw	t3,16(t1)
   1236c:	8d4c0010 	lw	t4,16(t2)
   12370:	ad2c0014 	sw	t4,20(t1)
   12374:	8d4b0014 	lw	t3,20(t2)
   12378:	ad2b0018 	sw	t3,24(t1)
   1237c:	8d4c0018 	lw	t4,24(t2)
   12380:	ad2c001c 	sw	t4,28(t1)
   12384:	8d4b001c 	lw	t3,28(t2)
   12388:	ad2b0020 	sw	t3,32(t1)
   1238c:	8d4c0020 	lw	t4,32(t2)
   12390:	10000002 	b	1239c <func_801117BC+0x170>
   12394:	ad2c0024 	sw	t4,36(t1)
   12398:	aca00018 	sw	zero,24(a1)
   1239c:	8ccd0004 	lw	t5,4(a2)
   123a0:	3c180000 	lui	t8,0x0
   123a4:	27180000 	addiu	t8,t8,0
   123a8:	acad001c 	sw	t5,28(a1)
   123ac:	8cee0000 	lw	t6,0(a3)
   123b0:	00002025 	move	a0,zero
   123b4:	000e7880 	sll	t7,t6,0x2
   123b8:	01ee7821 	addu	t7,t7,t6
   123bc:	000f78c0 	sll	t7,t7,0x3
   123c0:	01f81021 	addu	v0,t7,t8
   123c4:	aca20020 	sw	v0,32(a1)
   123c8:	19a0001b 	blez	t5,12438 <func_801117BC+0x20c>
   123cc:	8cc30008 	lw	v1,8(a2)
   123d0:	a0400000 	sb	zero,0(v0)
   123d4:	8c6b0000 	lw	t3,0(v1)
   123d8:	24840001 	addiu	a0,a0,1
   123dc:	24630024 	addiu	v1,v1,36
   123e0:	ac4b0004 	sw	t3,4(v0)
   123e4:	8c6affe0 	lw	t2,-32(v1)
   123e8:	24420028 	addiu	v0,v0,40
   123ec:	ac4affe0 	sw	t2,-32(v0)
   123f0:	8c6dffe4 	lw	t5,-28(v1)
   123f4:	ac4dffe4 	sw	t5,-28(v0)
   123f8:	8c6cffe8 	lw	t4,-24(v1)
   123fc:	ac4cffe8 	sw	t4,-24(v0)
   12400:	8c6dffec 	lw	t5,-20(v1)
   12404:	ac4dffec 	sw	t5,-20(v0)
   12408:	8c6cfff0 	lw	t4,-16(v1)
   1240c:	ac4cfff0 	sw	t4,-16(v0)
   12410:	8c6dfff4 	lw	t5,-12(v1)
   12414:	ac4dfff4 	sw	t5,-12(v0)
   12418:	8c6cfff8 	lw	t4,-8(v1)
   1241c:	ac4cfff8 	sw	t4,-8(v0)
   12420:	8c6dfffc 	lw	t5,-4(v1)
   12424:	ac4dfffc 	sw	t5,-4(v0)
   12428:	8cae001c 	lw	t6,28(a1)
   1242c:	008e082a 	slt	at,a0,t6
   12430:	5420ffe8 	bnezl	at,123d4 <func_801117BC+0x1a8>
   12434:	a0400000 	sb	zero,0(v0)
   12438:	8cef0000 	lw	t7,0(a3)
   1243c:	8cd80004 	lw	t8,4(a2)
   12440:	8d090000 	lw	t1,0(t0)
   12444:	8fbf0014 	lw	ra,20(sp)
   12448:	3c0bffff 	lui	t3,0xffff
   1244c:	01f8c821 	addu	t9,t7,t8
   12450:	252a0001 	addiu	t2,t1,1
   12454:	acf90000 	sw	t9,0(a3)
   12458:	ad0a0000 	sw	t2,0(t0)
   1245c:	356b00a0 	ori	t3,t3,0xa0
   12460:	3c010000 	lui	at,0x0
   12464:	ac2b0000 	sw	t3,0(at)
   12468:	27bd0018 	addiu	sp,sp,24
   1246c:	03e00008 	jr	ra
   12470:	00a01025 	move	v0,a1

00012474 <func_80111A04>:
func_80111A04():
   12474:	27bdffe8 	addiu	sp,sp,-24
   12478:	afbf0014 	sw	ra,20(sp)
   1247c:	afa5001c 	sw	a1,28(sp)
   12480:	8c8e0000 	lw	t6,0(a0)
   12484:	3c070000 	lui	a3,0x0
   12488:	00803025 	move	a2,a0
   1248c:	11c00003 	beqz	t6,1249c <func_80111A04+0x28>
   12490:	24e70000 	addiu	a3,a3,0
   12494:	10000002 	b	124a0 <func_80111A04+0x2c>
   12498:	24020001 	li	v0,1
   1249c:	00001025 	move	v0,zero
   124a0:	8cef0000 	lw	t7,0(a3)
   124a4:	8cd90004 	lw	t9,4(a2)
   124a8:	3c080000 	lui	t0,0x0
   124ac:	004fc021 	addu	t8,v0,t7
   124b0:	03194821 	addu	t1,t8,t9
   124b4:	2921001a 	slti	at,t1,26
   124b8:	14200007 	bnez	at,124d8 <func_80111A04+0x64>
   124bc:	25080000 	addiu	t0,t0,0
   124c0:	3c040000 	lui	a0,0x0
   124c4:	24840000 	addiu	a0,a0,0
   124c8:	0c000000 	jal	0 <func_800FF5E0_ovl2>
   124cc:	00001025 	move	v0,zero
   124d0:	1000ffff 	b	124d0 <func_80111A04+0x5c>
   124d4:	00000000 	nop
   124d8:	8d020000 	lw	v0,0(t0)
   124dc:	2401000a 	li	at,10
   124e0:	3c0b0000 	lui	t3,0x0
   124e4:	14410007 	bne	v0,at,12504 <func_80111A04+0x90>
   124e8:	000250c0 	sll	t2,v0,0x3
   124ec:	3c040000 	lui	a0,0x0
   124f0:	24840000 	addiu	a0,a0,0
   124f4:	0c000000 	jal	0 <func_800FF5E0_ovl2>
   124f8:	00001025 	move	v0,zero
   124fc:	1000ffff 	b	124fc <func_80111A04+0x88>
   12500:	00000000 	nop
   12504:	8fac001c 	lw	t4,28(sp)
   12508:	01425021 	addu	t2,t2,v0
   1250c:	000a5080 	sll	t2,t2,0x2
   12510:	256b0000 	addiu	t3,t3,0
   12514:	014b2821 	addu	a1,t2,t3
   12518:	acac0000 	sw	t4,0(a1)
   1251c:	8cce000c 	lw	t6,12(a2)
   12520:	acae0004 	sw	t6,4(a1)
   12524:	8ccd0010 	lw	t5,16(a2)
   12528:	acad0008 	sw	t5,8(a1)
   1252c:	8cce0014 	lw	t6,20(a2)
   12530:	acae000c 	sw	t6,12(a1)
   12534:	8ccd0018 	lw	t5,24(a2)
   12538:	acad0010 	sw	t5,16(a1)
   1253c:	8cce001c 	lw	t6,28(a2)
   12540:	acae0014 	sw	t6,20(a1)
   12544:	8ccf0000 	lw	t7,0(a2)
   12548:	51e00026 	beqzl	t7,125e4 <func_80111A04+0x170>
   1254c:	aca00018 	sw	zero,24(a1)
   12550:	8cf80000 	lw	t8,0(a3)
   12554:	3c090000 	lui	t1,0x0
   12558:	25290000 	addiu	t1,t1,0
   1255c:	0018c880 	sll	t9,t8,0x2
   12560:	0338c821 	addu	t9,t9,t8
   12564:	0019c8c0 	sll	t9,t9,0x3
   12568:	03295021 	addu	t2,t9,t1
   1256c:	acaa0018 	sw	t2,24(a1)
   12570:	8ceb0000 	lw	t3,0(a3)
   12574:	256c0001 	addiu	t4,t3,1
   12578:	acec0000 	sw	t4,0(a3)
   1257c:	8cad0018 	lw	t5,24(a1)
   12580:	a1a00000 	sb	zero,0(t5)
   12584:	8ccf0000 	lw	t7,0(a2)
   12588:	8cae0018 	lw	t6,24(a1)
   1258c:	8df90000 	lw	t9,0(t7)
   12590:	add90004 	sw	t9,4(t6)
   12594:	8df80004 	lw	t8,4(t7)
   12598:	add80008 	sw	t8,8(t6)
   1259c:	8cca0000 	lw	t2,0(a2)
   125a0:	8ca90018 	lw	t1,24(a1)
   125a4:	8d4c0008 	lw	t4,8(t2)
   125a8:	ad2c000c 	sw	t4,12(t1)
   125ac:	8d4b000c 	lw	t3,12(t2)
   125b0:	ad2b0010 	sw	t3,16(t1)
   125b4:	8d4c0010 	lw	t4,16(t2)
   125b8:	ad2c0014 	sw	t4,20(t1)
   125bc:	8d4b0014 	lw	t3,20(t2)
   125c0:	ad2b0018 	sw	t3,24(t1)
   125c4:	8d4c0018 	lw	t4,24(t2)
   125c8:	ad2c001c 	sw	t4,28(t1)
   125cc:	8d4b001c 	lw	t3,28(t2)
   125d0:	ad2b0020 	sw	t3,32(t1)
   125d4:	8d4c0020 	lw	t4,32(t2)
   125d8:	10000002 	b	125e4 <func_80111A04+0x170>
   125dc:	ad2c0024 	sw	t4,36(t1)
   125e0:	aca00018 	sw	zero,24(a1)
   125e4:	8ccd0004 	lw	t5,4(a2)
   125e8:	3c180000 	lui	t8,0x0
   125ec:	27180000 	addiu	t8,t8,0
   125f0:	acad001c 	sw	t5,28(a1)
   125f4:	8cee0000 	lw	t6,0(a3)
   125f8:	00002025 	move	a0,zero
   125fc:	000e7880 	sll	t7,t6,0x2
   12600:	01ee7821 	addu	t7,t7,t6
   12604:	000f78c0 	sll	t7,t7,0x3
   12608:	01f81021 	addu	v0,t7,t8
   1260c:	aca20020 	sw	v0,32(a1)
   12610:	19a0001b 	blez	t5,12680 <func_80111A04+0x20c>
   12614:	8cc30008 	lw	v1,8(a2)
   12618:	a0400000 	sb	zero,0(v0)
   1261c:	8c6b0000 	lw	t3,0(v1)
   12620:	24840001 	addiu	a0,a0,1
   12624:	24630024 	addiu	v1,v1,36
   12628:	ac4b0004 	sw	t3,4(v0)
   1262c:	8c6affe0 	lw	t2,-32(v1)
   12630:	24420028 	addiu	v0,v0,40
   12634:	ac4affe0 	sw	t2,-32(v0)
   12638:	8c6dffe4 	lw	t5,-28(v1)
   1263c:	ac4dffe4 	sw	t5,-28(v0)
   12640:	8c6cffe8 	lw	t4,-24(v1)
   12644:	ac4cffe8 	sw	t4,-24(v0)
   12648:	8c6dffec 	lw	t5,-20(v1)
   1264c:	ac4dffec 	sw	t5,-20(v0)
   12650:	8c6cfff0 	lw	t4,-16(v1)
   12654:	ac4cfff0 	sw	t4,-16(v0)
   12658:	8c6dfff4 	lw	t5,-12(v1)
   1265c:	ac4dfff4 	sw	t5,-12(v0)
   12660:	8c6cfff8 	lw	t4,-8(v1)
   12664:	ac4cfff8 	sw	t4,-8(v0)
   12668:	8c6dfffc 	lw	t5,-4(v1)
   1266c:	ac4dfffc 	sw	t5,-4(v0)
   12670:	8cae001c 	lw	t6,28(a1)
   12674:	008e082a 	slt	at,a0,t6
   12678:	5420ffe8 	bnezl	at,1261c <func_80111A04+0x1a8>
   1267c:	a0400000 	sb	zero,0(v0)
   12680:	8cef0000 	lw	t7,0(a3)
   12684:	8cd80004 	lw	t8,4(a2)
   12688:	8d090000 	lw	t1,0(t0)
   1268c:	8fbf0014 	lw	ra,20(sp)
   12690:	3c0b00ff 	lui	t3,0xff
   12694:	01f8c821 	addu	t9,t7,t8
   12698:	252a0001 	addiu	t2,t1,1
   1269c:	acf90000 	sw	t9,0(a3)
   126a0:	ad0a0000 	sw	t2,0(t0)
   126a4:	356b0080 	ori	t3,t3,0x80
   126a8:	3c010000 	lui	at,0x0
   126ac:	ac2b0000 	sw	t3,0(at)
   126b0:	27bd0018 	addiu	sp,sp,24
   126b4:	03e00008 	jr	ra
   126b8:	00a01025 	move	v0,a1

000126bc <func_80111C4C>:
func_80111C4C():
   126bc:	27bdffe0 	addiu	sp,sp,-32
   126c0:	afb00018 	sw	s0,24(sp)
   126c4:	00808025 	move	s0,a0
   126c8:	10800006 	beqz	a0,126e4 <func_80111C4C+0x28>
   126cc:	afbf001c 	sw	ra,28(sp)
   126d0:	8c840000 	lw	a0,0(a0)
   126d4:	8e050018 	lw	a1,24(s0)
   126d8:	8e06001c 	lw	a2,28(s0)
   126dc:	0c000000 	jal	0 <func_800FF5E0_ovl2>
   126e0:	8e070020 	lw	a3,32(s0)
   126e4:	8fbf001c 	lw	ra,28(sp)
   126e8:	8fb00018 	lw	s0,24(sp)
   126ec:	27bd0020 	addiu	sp,sp,32
   126f0:	03e00008 	jr	ra
   126f4:	00000000 	nop

000126f8 <func_80111C88_ovl2>:
func_80111C88_ovl2():
   126f8:	27bdffe8 	addiu	sp,sp,-24
   126fc:	afbf0014 	sw	ra,20(sp)
   12700:	8c8e0000 	lw	t6,0(a0)
   12704:	3c080000 	lui	t0,0x0
   12708:	00803825 	move	a3,a0
   1270c:	11c00003 	beqz	t6,1271c <func_80111C88_ovl2+0x24>
   12710:	25080000 	addiu	t0,t0,0
   12714:	10000002 	b	12720 <func_80111C88_ovl2+0x28>
   12718:	24020001 	li	v0,1
   1271c:	00001025 	move	v0,zero
   12720:	8d0f0000 	lw	t7,0(t0)
   12724:	8cf90004 	lw	t9,4(a3)
   12728:	3c090000 	lui	t1,0x0
   1272c:	004fc021 	addu	t8,v0,t7
   12730:	03195021 	addu	t2,t8,t9
   12734:	2941000b 	slti	at,t2,11
   12738:	14200007 	bnez	at,12758 <func_80111C88_ovl2+0x60>
   1273c:	25290000 	addiu	t1,t1,0
   12740:	3c040000 	lui	a0,0x0
   12744:	24840000 	addiu	a0,a0,0
   12748:	0c000000 	jal	0 <func_800FF5E0_ovl2>
   1274c:	00001025 	move	v0,zero
   12750:	1000ffff 	b	12750 <func_80111C88_ovl2+0x58>
   12754:	00000000 	nop
   12758:	8d220000 	lw	v0,0(t1)
   1275c:	24010005 	li	at,5
   12760:	3c0c0000 	lui	t4,0x0
   12764:	14410007 	bne	v0,at,12784 <func_80111C88_ovl2+0x8c>
   12768:	00025880 	sll	t3,v0,0x2
   1276c:	3c040000 	lui	a0,0x0
   12770:	24840000 	addiu	a0,a0,0
   12774:	0c000000 	jal	0 <func_800FF5E0_ovl2>
   12778:	00001025 	move	v0,zero
   1277c:	1000ffff 	b	1277c <func_80111C88_ovl2+0x84>
   12780:	00000000 	nop
   12784:	01625821 	addu	t3,t3,v0
   12788:	000b58c0 	sll	t3,t3,0x3
   1278c:	258c0000 	addiu	t4,t4,0
   12790:	016c3021 	addu	a2,t3,t4
   12794:	acc50000 	sw	a1,0(a2)
   12798:	8cee000c 	lw	t6,12(a3)
   1279c:	acce0004 	sw	t6,4(a2)
   127a0:	8ced0010 	lw	t5,16(a3)
   127a4:	accd0008 	sw	t5,8(a2)
   127a8:	8cee0014 	lw	t6,20(a3)
   127ac:	acce000c 	sw	t6,12(a2)
   127b0:	8ced0018 	lw	t5,24(a3)
   127b4:	accd0010 	sw	t5,16(a2)
   127b8:	8cee001c 	lw	t6,28(a3)
   127bc:	acce0014 	sw	t6,20(a2)
   127c0:	8ced0020 	lw	t5,32(a3)
   127c4:	accd0018 	sw	t5,24(a2)
   127c8:	8cef0000 	lw	t7,0(a3)
   127cc:	51e00026 	beqzl	t7,12868 <func_80111C88_ovl2+0x170>
   127d0:	acc0001c 	sw	zero,28(a2)
   127d4:	8d180000 	lw	t8,0(t0)
   127d8:	3c0a0000 	lui	t2,0x0
   127dc:	254a0000 	addiu	t2,t2,0
   127e0:	0018c880 	sll	t9,t8,0x2
   127e4:	0338c821 	addu	t9,t9,t8
   127e8:	0019c8c0 	sll	t9,t9,0x3
   127ec:	032a5821 	addu	t3,t9,t2
   127f0:	accb001c 	sw	t3,28(a2)
   127f4:	8d0c0000 	lw	t4,0(t0)
   127f8:	258d0001 	addiu	t5,t4,1
   127fc:	ad0d0000 	sw	t5,0(t0)
   12800:	8cce001c 	lw	t6,28(a2)
   12804:	a1c00000 	sb	zero,0(t6)
   12808:	8cf80000 	lw	t8,0(a3)
   1280c:	8ccf001c 	lw	t7,28(a2)
   12810:	8f0a0000 	lw	t2,0(t8)
   12814:	adea0004 	sw	t2,4(t7)
   12818:	8f190004 	lw	t9,4(t8)
   1281c:	adf90008 	sw	t9,8(t7)
   12820:	8cec0000 	lw	t4,0(a3)
   12824:	8ccb001c 	lw	t3,28(a2)
   12828:	8d8e0008 	lw	t6,8(t4)
   1282c:	ad6e000c 	sw	t6,12(t3)
   12830:	8d8d000c 	lw	t5,12(t4)
   12834:	ad6d0010 	sw	t5,16(t3)
   12838:	8d8e0010 	lw	t6,16(t4)
   1283c:	ad6e0014 	sw	t6,20(t3)
   12840:	8d8d0014 	lw	t5,20(t4)
   12844:	ad6d0018 	sw	t5,24(t3)
   12848:	8d8e0018 	lw	t6,24(t4)
   1284c:	ad6e001c 	sw	t6,28(t3)
   12850:	8d8d001c 	lw	t5,28(t4)
   12854:	ad6d0020 	sw	t5,32(t3)
   12858:	8d8e0020 	lw	t6,32(t4)
   1285c:	10000002 	b	12868 <func_80111C88_ovl2+0x170>
   12860:	ad6e0024 	sw	t6,36(t3)
   12864:	acc0001c 	sw	zero,28(a2)
   12868:	8ce50004 	lw	a1,4(a3)
   1286c:	3c0a0000 	lui	t2,0x0
   12870:	254a0000 	addiu	t2,t2,0
   12874:	acc50020 	sw	a1,32(a2)
   12878:	8d180000 	lw	t8,0(t0)
   1287c:	00002025 	move	a0,zero
   12880:	0018c880 	sll	t9,t8,0x2
   12884:	0338c821 	addu	t9,t9,t8
   12888:	0019c8c0 	sll	t9,t9,0x3
   1288c:	032a1021 	addu	v0,t9,t2
   12890:	acc20024 	sw	v0,36(a2)
   12894:	18a0001b 	blez	a1,12904 <func_80111C88_ovl2+0x20c>
   12898:	8ce30008 	lw	v1,8(a3)
   1289c:	a0400000 	sb	zero,0(v0)
   128a0:	8c6d0000 	lw	t5,0(v1)
   128a4:	24840001 	addiu	a0,a0,1
   128a8:	24630024 	addiu	v1,v1,36
   128ac:	ac4d0004 	sw	t5,4(v0)
   128b0:	8c6cffe0 	lw	t4,-32(v1)
   128b4:	24420028 	addiu	v0,v0,40
   128b8:	ac4cffe0 	sw	t4,-32(v0)
   128bc:	8c6fffe4 	lw	t7,-28(v1)
   128c0:	ac4fffe4 	sw	t7,-28(v0)
   128c4:	8c6effe8 	lw	t6,-24(v1)
   128c8:	ac4effe8 	sw	t6,-24(v0)
   128cc:	8c6fffec 	lw	t7,-20(v1)
   128d0:	ac4fffec 	sw	t7,-20(v0)
   128d4:	8c6efff0 	lw	t6,-16(v1)
   128d8:	ac4efff0 	sw	t6,-16(v0)
   128dc:	8c6ffff4 	lw	t7,-12(v1)
   128e0:	ac4ffff4 	sw	t7,-12(v0)
   128e4:	8c6efff8 	lw	t6,-8(v1)
   128e8:	ac4efff8 	sw	t6,-8(v0)
   128ec:	8c6ffffc 	lw	t7,-4(v1)
   128f0:	ac4ffffc 	sw	t7,-4(v0)
   128f4:	8cc50020 	lw	a1,32(a2)
   128f8:	0085082a 	slt	at,a0,a1
   128fc:	5420ffe8 	bnezl	at,128a0 <func_80111C88_ovl2+0x1a8>
   12900:	a0400000 	sb	zero,0(v0)
   12904:	8d180000 	lw	t8,0(t0)
   12908:	8d2a0000 	lw	t2,0(t1)
   1290c:	8fbf0014 	lw	ra,20(sp)
   12910:	3c0c80ff 	lui	t4,0x80ff
   12914:	0305c821 	addu	t9,t8,a1
   12918:	254b0001 	addiu	t3,t2,1
   1291c:	ad190000 	sw	t9,0(t0)
   12920:	ad2b0000 	sw	t3,0(t1)
   12924:	358cff80 	ori	t4,t4,0xff80
   12928:	3c010000 	lui	at,0x0
   1292c:	ac2c0000 	sw	t4,0(at)
   12930:	27bd0018 	addiu	sp,sp,24
   12934:	03e00008 	jr	ra
   12938:	00c01025 	move	v0,a2

0001293c <func_80111ECC>:
func_80111ECC():
   1293c:	27bdffe0 	addiu	sp,sp,-32
   12940:	afb00018 	sw	s0,24(sp)
   12944:	00808025 	move	s0,a0
   12948:	10800006 	beqz	a0,12964 <func_80111ECC+0x28>
   1294c:	afbf001c 	sw	ra,28(sp)
   12950:	8c840000 	lw	a0,0(a0)
   12954:	8e05001c 	lw	a1,28(s0)
   12958:	8e060020 	lw	a2,32(s0)
   1295c:	0c000000 	jal	0 <func_800FF5E0_ovl2>
   12960:	8e070024 	lw	a3,36(s0)
   12964:	8fbf001c 	lw	ra,28(sp)
   12968:	8fb00018 	lw	s0,24(sp)
   1296c:	27bd0020 	addiu	sp,sp,32
   12970:	03e00008 	jr	ra
   12974:	00000000 	nop
	...
